(dp0
Vwoodi
p1
I0
sVyellow
p2
I1884
sVelvi
p3
I3
sVenriqu
p4
I4544
sVbringin'
p5
I1
sVpayoff
p6
I1885
sVlord
p7
I5892
sVdela
p8
I1886
sVdigit
p9
I5893
sVdell
p10
I1887
sVfoul
p11
I3908
sVhangin'
p12
I2
sVpolitician
p13
I6946
sVfour
p14
I3909
sVdisturb
p15
I3910
sVprize
p16
I1888
sVwooden
p17
I4
sVwednesday
p18
I5
sVsolid
p19
I7227
sVoooh
p20
I1889
sVcharter
p21
I1890
sVmiller
p22
I1891
sVfraulein
p23
I1892
sVbacon
p24
I5896
sVhistor
p25
I7799
sVsanderson
p26
I1893
sVsecond
p27
I5897
sVsooth
p28
I6
sVgorman
p29
I7
sVmelvin
p30
I3913
sVdialogu
p31
I8
sVcaptain
p32
I6882
sVthis'll
p33
I1894
sVruthless
p34
I1895
sVthunder
p35
I3914
sVfossil
p36
I3915
sVkid'
p37
I9
sVspecialist
p38
I5898
sVintellectu
p39
I5899
sVhero
p40
I5900
sVherb
p41
I5901
sVhere
p42
I5902
sVherd
p43
I5903
sVchina
p44
I10
sVcult
p45
I3916
sVherr
p46
I5904
sVdori
p47
I1897
sVchink
p48
I77
sVi'v
p49
I1899
sVmilitari
p50
I1900
sVk
p51
I3917
sVrobin
p52
I6246
sVi'd
p53
I1901
sVtalbi
p54
I11
sVvigo
p55
I1903
sVi'm
p56
I1904
sVclimber
p57
I12
sVgolden
p58
I13
sVbrought
p59
I5905
sVbaltimor
p60
I5906
sVstern
p61
I14
sVunit
p62
I5907
sVsymphoni
p63
I3918
sVdna
p64
I15
sVspoke
p65
I1905
sVmusic
p66
I16
sVpassport
p67
I5908
sVstrike
p68
I3919
sVuntil
p69
I5909
sVbuddi
p70
I5910
sVplayboy
p71
I5911
sVpaperwork
p72
I3920
sVrelay
p73
I1906
sVrelax
p74
I1907
sVrelat
p75
I1908
sVnotic
p76
I3922
sVhurt
p77
I1909
sV99
p78
I5912
sVglass
p79
I5913
sVholi
p80
I5914
sVgoddammit
p81
I1910
sV90
p82
I5915
sVhole
p83
I5916
sVherebi
p84
I3923
sVunpack
p85
I17
sVaccid
p86
I5918
sVblade
p87
I1911
sVlocker
p88
I18
sVsweeter
p89
I5919
sVflare
p90
I7572
sVgiron
p91
I5920
sVomelett
p92
I3924
sVhousehold
p93
I1912
sVcenturi
p94
I1252
sVcautiou
p95
I3925
sVcaution
p96
I3926
sVpinta
p97
I20
sVwant
p98
I21
sVartilleri
p99
I1913
sVdyke
p100
I1914
sVhog
p101
I5921
sVshuffl
p102
I1915
sVyuh
p103
I5827
sVhon
p104
I5922
sVhoo
p105
I3425
sVtravel
p106
I22
sVclassifi
p107
I5924
sVhow
p108
I5925
sVhot
p109
I5926
sVhor
p110
I5927
sVhop
p111
I5928
sVplace
p112
I5537
sVperspect
p113
I5929
sVmueller
p114
I5930
sVsomebody'
p115
I5931
sVmodest
p116
I162
sVbeauti
p117
I5933
sVendang
p118
I3927
sVchump
p119
I1916
sVsiberia
p120
I1917
sVwarfar
p121
I5934
sVrevolv
p122
I5935
sVchildhood
p123
I5540
sVsomeplac
p124
I1918
sVwing
p125
I1919
sVwind
p126
I1920
sVwine
p127
I1921
sVsurrend
p128
I5937
sValway
p129
I7554
sVhandcuff
p130
I1922
sVappar
p131
I6885
sVdreamer
p132
I5938
sVfit
p133
I24
sVfix
p134
I25
sVconnel
p135
I5941
sVconner
p136
I5942
sVhidden
p137
I1923
sVfin
p138
I27
sVeasier
p139
I3928
sVslate
p140
I3929
sVsurgic
p141
I3930
sVinterrupt
p142
I3931
sVsixteen
p143
I28
sVsilver
p144
I1924
sVrumour
p145
I1925
sVarrog
p146
I29
sVlillian
p147
I3932
sVbarton
p148
I30
sVaccommod
p149
I31
sVarrow
p150
I32
sVburial
p151
I33
sVwhim
p152
I4108
sVconcord
p153
I4110
sVlaboratori
p154
I1926
sVspider
p155
I5945
sVthelma
p156
I3933
sVwhiz
p157
I5946
sVwe'd
p158
I5947
sVtruman
p159
I1927
sVcommiss
p160
I3934
sVwhip
p161
I5948
sVshame
p162
I2438
sVwhaddya
p163
I34
sVhomicid
p164
I1928
sVmason
p165
I35
sVre
p166
I3935
sVadapt
p167
I36
sVburglar
p168
I6144
sVrm
p169
I3936
sVyourselv
p170
I6590
sVabbott
p171
I37
sVnavig
p172
I1929
sVdracula
p173
I3937
sVnightmar
p174
I1930
sVimmort
p175
I3938
sVjennif
p176
I5949
sVsilent
p177
I2618
sVallerg
p178
I3939
sVate
p179
I5950
sVdistrict
p180
I5543
sVbounti
p181
I5544
sVsilicon
p182
I3940
sVunabl
p183
I5951
sVconfus
p184
I3941
sVnigel
p185
I1932
sVwast
p186
I1933
sVwash
p187
I1934
sVclementin
p188
I38
sVwasn
p189
I1936
sVplastic
p190
I7578
sVbitten
p191
I5952
sVevolut
p192
I3942
sVratch
p193
I1937
sVnecessarili
p194
I5546
sVmaster
p195
I39
sVfeelin'
p196
I40
sVbitter
p197
I5954
sVlisten
p198
I1938
sVgeneva
p199
I1939
sVwisdom
p200
I1940
sVcrawl
p201
I3943
sVtechnic
p202
I3944
sVperil
p203
I5957
sVsaavik
p204
I1941
sVoutlaw
p205
I1942
sVtree
p206
I3945
sVproject
p207
I308
sVpneumonia
p208
I5959
sVmorpheu
p209
I1943
sVvaliant
p210
I3912
sVcorni
p211
I5960
sVrunner
p212
I3947
sVboston
p213
I5961
sVreassur
p214
I1944
sVminiatur
p215
I3948
sViii
p216
I361
sVdozen
p217
I41
sVthruster
p218
I3949
sVgripe
p219
I3950
sVseason
p220
I7580
sVshall
p221
I5962
sVdoin
p222
I1946
sVobject
p223
I5964
sVcorrect
p224
I7066
sVvictoria
p225
I1947
sVy
p226
I3312
sVmouth
p227
I42
sVaddict
p228
I3951
sVletter
p229
I1948
sVlong'
p230
I43
sVsinger
p231
I44
sVgrove
p232
I1950
sVunpleas
p233
I45
sVprofessor
p234
I1951
sVcamp
p235
I3953
sVhospit
p236
I5965
sVdummi
p237
I3954
sVtech
p238
I46
sVarlo
p239
I3955
sVscream
p240
I47
sVcame
p241
I3956
sVmarvel
p242
I5967
sVbomb
p243
I1953
sVreactor
p244
I1954
sVorchestra
p245
I4862
sVtequila
p246
I1955
sVteresa
p247
I5519
sVulcer
p248
I48
sVlethal
p249
I3957
sVdawn
p250
I2983
sVquaint
p251
I3958
sVmenu
p252
I1956
sVrestaur
p253
I49
sVbust
p254
I5968
sVrico
p255
I50
sVtheme
p256
I4271
sVbusi
p257
I5969
sVbliss
p258
I51
sVrick
p259
I52
sVrich
p260
I53
sVwoodward
p261
I5970
sVmend
p262
I1957
sVrice
p263
I54
sVmeuric
p264
I55
sVplate
p265
I381
sVplato
p266
I57
sVceil
p267
I58
sVpocket
p268
I3960
sVfetish
p269
I2955
sVremarri
p270
I3961
sVrandal
p271
I1960
sVpiggi
p272
I1961
sVmaverick
p273
I6892
sVcolet
p274
I5971
sVpatch
p275
I59
sVthem'
p276
I1962
sV'n'
p277
I1963
sVmen'
p278
I1964
sVrespond
p279
I4303
sVblew
p280
I1965
sVfair
p281
I1966
sVpinot
p282
I409
sVgoodnight
p283
I5972
sVresult
p284
I5973
sVrespons
p285
I1968
sVfail
p286
I1969
sVhammer
p287
I5974
sVbest
p288
I1970
sVdefinit
p289
I6130
sVmanson
p290
I3963
sVlott
p291
I60
sVringo
p292
I3964
sViri
p293
I61
sVfigur
p294
I3965
sVscore
p295
I1971
sVside
p296
I6136
sVdepriv
p297
I62
sVlamar
p298
I1972
sVnever
p299
I2958
sVdebi
p300
I3966
sVsouvenir
p301
I3967
sVextens
p302
I64
sVextent
p303
I65
sVtoler
p304
I3968
sVadvertis
p305
I5975
sVdebt
p306
I3969
sVroller
p307
I5976
sVaccident
p308
I5977
sVunemploy
p309
I66
sVlookit
p310
I67
sVedgar
p311
I3970
sVpiti
p312
I5978
sVwindham
p313
I68
sVlogic
p314
I3971
sVcountri
p315
I3972
sVlot'
p316
I69
sVcompromis
p317
I3973
sVpre
p318
I5979
sVassur
p319
I70
sVmoney'
p320
I1975
sVvain
p321
I1976
sVcuz
p322
I1265
sVcanyon
p323
I1977
sVgreenleaf
p324
I5980
sV250
p325
I1978
sVassum
p326
I71
sVduplic
p327
I3974
sVunion
p328
I72
sVtatum
p329
I3975
sVfri
p330
I73
sV.
p331
I74
sVmuck
p332
I75
sVshangri
p333
I3976
sVdork
p334
I1898
sVstadium
p335
I3977
sVjackass
p336
I5981
sVann
p337
I5982
sVhesit
p338
I1980
sVlife
p339
I1981
sVregul
p340
I78
sVspit
p341
I79
sVeastern
p342
I5983
sVworker
p343
I3978
sVdave
p344
I80
sVlift
p345
I1982
sVchild
p346
I1983
sVchili
p347
I1984
sVdoth
p348
I3980
sVspin
p349
I81
sVbookstor
p350
I5985
sVdavi
p351
I82
sVchill
p352
I1985
sVdissect
p353
I5987
sVcommerci
p354
I5988
sVcastro
p355
I5989
sVemploy
p356
I83
sVunsolv
p357
I1986
sVmarriag
p358
I5990
sVhopkin
p359
I5991
sVplayer
p360
I5992
sVeighteen
p361
I84
sVmadonna
p362
I1987
sVhong
p363
I85
sVharmoni
p364
I5993
sVwendel
p365
I1988
sVsplit
p366
I86
sVjungl
p367
I87
sVcostum
p368
I3982
sVeuropean
p369
I3983
sVkubelik
p370
I3984
sVfairli
p371
I1989
sVboiler
p372
I88
sVownership
p373
I5994
sVsupper
p374
I513
sVtuna
p375
I5995
sVtune
p376
I5996
sVbewar
p377
I3985
sVredeem
p378
I7241
sVsubpoena
p379
I1990
sVthing'
p380
I5997
sVcapitol
p381
I3986
sVwhatnot
p382
I6900
sVfalcon
p383
I6265
sVsleepi
p384
I3988
sVhah
p385
I89
sVhal
p386
I90
sVham
p387
I91
sVhan
p388
I92
sVhad
p389
I93
sVgotham
p390
I1991
sVhay
p391
I94
sVendur
p392
I95
sVeast
p393
I6000
sVhat
p394
I96
sVpreserv
p395
I1992
sVtwinki
p396
I1993
sVbirth
p397
I1994
sVshadow
p398
I97
sVmeasur
p399
I6001
sVspecif
p400
I3989
sVremind
p401
I6002
sVbobbi
p402
I6003
sVsebastian
p403
I3990
sVbattlefield
p404
I6004
sVattorney
p405
I98
sVright
p406
I6005
sVold
p407
I6006
sVcreek
p408
I3991
sVcrowd
p409
I99
sVczech
p410
I100
sVcreed
p411
I3992
sVcrown
p412
I101
sVhoover
p413
I1995
sVcreep
p414
I3993
sVtransmiss
p415
I1996
sVwitti
p416
I6008
sVfor
p417
I1997
sVbottom
p418
I102
sVfox
p419
I1998
sVfog
p420
I1999
sVumm
p421
I2000
sVcondit
p422
I3995
sVhindu
p423
I5849
sVsensibl
p424
I3996
sVol'
p425
I6009
sVdental
p426
I2001
sVmommy'
p427
I3997
sVeduard
p428
I103
sVcolleg
p429
I2002
sVvalium
p430
I596
sVslightli
p431
I6010
sVrecollect
p432
I4531
sVdespair
p433
I2003
sVadel
p434
I104
sVbandag
p435
I2004
sVnixon
p436
I2005
sVsod
p437
I3999
sVhoneymoon
p438
I105
sVfelson
p439
I4000
sVson
p440
I4001
sVcreativ
p441
I106
sVwrap
p442
I4002
sVsox
p443
I4003
sVfabric
p444
I107
sVsuffici
p445
I108
sVshinzon
p446
I2006
sVtame
p447
I109
sVavail
p448
I2008
sVjoseph
p449
I6013
sVjani
p450
I6014
sVspring
p451
I4229
sVjane
p452
I6015
sVconstantli
p453
I4006
sVheadach
p454
I110
sVso'
p455
I4007
sVoffer
p456
I6016
sVarmi
p457
I6905
sVrattl
p458
I2964
sVnicest
p459
I111
sVsampl
p460
I333
sV150
p461
I4008
sVlater
p462
I1305
sVproven
p463
I2016
sVexist
p464
I2017
sVloomi
p465
I2018
sVdealer
p466
I2019
sVever'bodi
p467
I3921
sVfloor
p468
I6018
sVactor
p469
I2020
sVflood
p470
I6019
sVpasadena
p471
I112
sVrole
p472
I113
sVferrari
p473
I4571
sVpresum
p474
I6020
sVsmell
p475
I6021
sVroll
p476
I115
sVlegitim
p477
I669
sVintend
p478
I116
sVdevot
p479
I117
sVintens
p480
I118
sVintent
p481
I119
sV'a
p482
I4010
sV'n
p483
I4011
sV'i
p484
I4012
sVpuss
p485
I6023
sVbabbl
p486
I7586
sVcarriag
p487
I6024
sVtime
p488
I6025
sVpush
p489
I6026
sVgown
p490
I120
sVchain
p491
I121
sVwhoever
p492
I122
sVhurl
p493
I4013
sVskate
p494
I4014
sVchair
p495
I123
sVgrifter
p496
I2021
sVballet
p497
I124
sVhold
p498
I5917
sVrecognit
p499
I6269
sVpen
p500
I3327
sVdecis
p501
I4016
sVmacho
p502
I125
sVwhen'd
p503
I126
sVvet
p504
I2022
sVjerk
p505
I127
sVmourn
p506
I2023
sVchild'
p507
I128
sVexact
p508
I129
sVsonora
p509
I2024
sVtear
p510
I2025
sVteas
p511
I2026
sVuncle'
p512
I5570
sVsubway
p513
I2028
sVteam
p514
I2029
sVcooki
p515
I130
sVprevent
p516
I2030
sVmeadow
p517
I131
sVattic
p518
I2031
sVsigh
p519
I4017
sVcompens
p520
I6029
sVsign
p521
I4018
sVbondag
p522
I4019
sVoutpost
p523
I5752
sVcurrenc
p524
I2033
sVfreaki
p525
I2034
sVmelt
p526
I4020
sVcurrent
p527
I2035
sVfifti
p528
I4574
sVboost
p529
I133
sVhonour
p530
I134
sVbi
p531
I6030
sVjuri
p532
I4021
sVaddress
p533
I135
sValong
p534
I6031
sVbrilliant
p535
I4022
sVincrimin
p536
I4023
sVdusti
p537
I136
sVourselv
p538
I6033
sVrambo
p539
I4721
sVorphan
p540
I6828
sVprefer
p541
I6035
sVseattl
p542
I2037
sVfake
p543
I4024
sVinstal
p544
I137
sVbloodi
p545
I2038
sVlighthous
p546
I138
sVmumford
p547
I6909
sVscope
p548
I4025
sVangri
p549
I4026
sVprosecutor
p550
I4027
sVafford
p551
I2039
sVpeopl
p552
I6036
sVjuvenil
p553
I6272
sVoregon
p554
I4742
sVenhanc
p555
I139
sVthompson
p556
I6599
sVvisual
p557
I2040
sVclaud
p558
I4028
sVeasiest
p559
I2041
sVbehalf
p560
I2042
sVcharlie'
p561
I2044
sVworkin'
p562
I141
sVpretend
p563
I4029
sVvega
p564
I2045
sVwhatev
p565
I2046
sVwonderin'
p566
I2047
sVwebster
p567
I2048
sVfranc
p568
I629
sVclarenc
p569
I4576
sVmateri
p570
I6273
sVlovin'
p571
I6037
sVgalbraith
p572
I828
sVstole
p573
I4030
sVwinter
p574
I2049
sVin
p575
I2440
sVambush
p576
I6038
sVjazz
p577
I1594
sVspot
p578
I2050
sVlouder
p579
I7422
sVjacqu
p580
I2051
sVlaundri
p581
I6039
sVdate
p582
I2052
sVsuch
p583
I6041
sVsuck
p584
I6042
sVdata
p585
I2053
sVstress
p586
I6044
sVconscious
p587
I143
sVwheelchair
p588
I2054
sVsu
p589
I4031
sVst
p590
I4032
sVquadrant
p591
I144
sVsi
p592
I4033
sVsh
p593
I4034
sVso
p594
I4035
sVcylind
p595
I5923
sVtruce
p596
I6047
sVse
p597
I4036
sVdrunken
p598
I4037
sVfootstep
p599
I4038
sVbeaumont
p600
I6050
sVkong
p601
I2055
sVelain
p602
I2056
sVtore
p603
I4039
sVdisconnect
p604
I146
sVthumb
p605
I6051
sVjim
p606
I147
sVweaker
p607
I6314
sVinstantli
p608
I6052
sVsolitari
p609
I2057
sVhomecom
p610
I148
sVsuspicion
p611
I4041
sVinto
p612
I336
sVideal
p613
I5561
sVcivilian
p614
I149
sVsmarter
p615
I6053
sVinsomnia
p616
I4821
sVexot
p617
I4042
sVnation
p618
I4043
sVyear'
p619
I150
sVshhh
p620
I151
sVplung
p621
I152
sVdidn
p622
I153
sVsepar
p623
I2060
sVfisherman
p624
I154
sVquarter
p625
I155
sVquartet
p626
I156
sVreceipt
p627
I157
sVsponsor
p628
I158
sVprostitut
p629
I4044
sVtrauma
p630
I159
sVcobb
p631
I4045
sVinternet
p632
I160
sVformula
p633
I6055
sVgallagh
p634
I2062
sVwillya
p635
I6056
sVdomest
p636
I2063
sVmillion
p637
I2064
sVenvelop
p638
I2065
sVseventi
p639
I6058
sVdisrespect
p640
I4046
sVy'know
p641
I7853
sVgrandma
p642
I161
sVmimi
p643
I4047
sVunpredict
p644
I2067
sVmarla
p645
I1274
sVdepartur
p646
I2068
sVrecon
p647
I4048
sVdunno
p648
I6060
sVhorac
p649
I6061
sVgaff
p650
I2069
sVwrong
p651
I23
sVostrich
p652
I2070
sVrecov
p653
I4049
sVlivingston
p654
I2071
sVaboard
p655
I163
sVnicknam
p656
I2072
sVneglect
p657
I164
sVoper
p658
I4050
sVgunshot
p659
I946
sVimprovis
p660
I2073
sVspoken
p661
I165
sVonc
p662
I166
sVpotter
p663
I2074
sVone
p664
I167
sVspanish
p665
I6063
sVvote
p666
I2075
sVopen
p667
I4051
sVurin
p668
I4052
sVconni
p669
I6064
sVboulevard
p670
I4053
sVconvent
p671
I4054
sVsoze
p672
I4055
sVbite
p673
I4056
sVduval
p674
I6066
sVlesbian
p675
I6913
sVciti
p676
I4057
sV2
p677
I2076
sVbluestar
p678
I962
sVsayer
p679
I2077
sVconveni
p680
I963
sVartifact
p681
I6068
sVsnatch
p682
I168
sVboyfriend
p683
I6069
sVrival
p684
I2078
sVrehab
p685
I169
sVnuisanc
p686
I6070
sVcounselor
p687
I4059
sVjanitor
p688
I6071
sVrussia
p689
I4060
sVsophia
p690
I6072
sVprospect
p691
I2079
sVsan
p692
I6073
sVnicer
p693
I2080
sVsal
p694
I4943
sVcoroner'
p695
I2081
sValley
p696
I4062
sVsad
p697
I6075
sValleg
p698
I4063
sVwoah
p699
I6076
sVtragedi
p700
I2497
sVallen
p701
I4064
sVturner
p702
I170
sVsap
p703
I6079
sVsaw
p704
I6080
sVsat
p705
I6081
sVv'ger
p706
I2082
sVfertil
p707
I2083
sVzoe
p708
I171
sVlaw'
p709
I4065
sVzoo
p710
I172
sVnote
p711
I6083
sVjefferson
p712
I2084
sVtake
p713
I2085
sVmacreadi
p714
I4066
sVdestroy
p715
I6084
sVnoth
p716
I6085
sVc'mere
p717
I4067
sVknew
p718
I6086
sVbuffet
p719
I173
sVbutterfli
p720
I6087
sVabus
p721
I2086
sVknee
p722
I6088
sVlawn
p723
I4068
sVarchi
p724
I2087
sVphil
p725
I174
sVdrive
p726
I4069
sVlandladi
p727
I6090
sVbadg
p728
I2088
sVaxe
p729
I2089
sVtouchi
p730
I175
sVsomething'
p731
I4987
sVsalt
p732
I6091
sVmadison
p733
I2090
sVmerit
p734
I4071
sVbright
p735
I4072
sVunfinish
p736
I4073
sVslot
p737
I6092
sVmerlin
p738
I2092
sVtransact
p739
I176
sVactiv
p740
I4074
sVcloak
p741
I6094
sVhockey
p742
I2093
sVslob
p743
I6095
sVrobe
p744
I2094
sVtrifl
p745
I5765
sVcarolina
p746
I2095
sVwalkin'
p747
I2096
sVpsychiatrist
p748
I4075
sVrequir
p749
I4076
sVprime
p750
I6097
sVpimp
p751
I178
sVartist
p752
I6098
sVborrow
p753
I6099
sVtwelv
p754
I5040
sVroger
p755
I6101
sVlandlord
p756
I6102
sVcheerlead
p757
I5197
sVvision
p758
I179
sVsurgeri
p759
I2097
sVjob'
p760
I6104
sVgangster
p761
I6105
sVdeadlin
p762
I2098
sVerica
p763
I344
sVdiver
p764
I2099
sVbustin'
p765
I180
sVtelevis
p766
I181
sVharvey
p767
I182
sVbureau
p768
I6106
sVman'
p769
I4078
sVassumpt
p770
I183
sVgrandpar
p771
I184
sVmarvin
p772
I5087
sVscreen
p773
I4079
sVdome
p774
I6107
sVclayton
p775
I1838
sVmarietta
p776
I185
sVspare
p777
I6108
sVshortag
p778
I2101
sVspark
p779
I6109
sVs
p780
I186
sVmani
p781
I4080
sVbackpack
p782
I5940
sVcan't
p783
I187
sVpanick
p784
I4081
sVexagger
p785
I2103
sVtwin
p786
I2104
sVanti
p787
I2105
sVextinct
p788
I6110
sVboat
p789
I6111
sValmighti
p790
I6112
sVstretch
p791
I6113
sVwest
p792
I188
sVvenic
p793
I4082
sVbreath
p794
I2106
sVteddi
p795
I2107
sVcrawford
p796
I2108
sVthousand
p797
I2109
sVresolut
p798
I189
sVphoton
p799
I3700
sVhaunt
p800
I348
sVwanta
p801
I190
sVcatastroph
p802
I6115
sVformer
p803
I191
sVisabella
p804
I2111
sVstraighten
p805
I192
sVconvinc
p806
I194
sVblah
p807
I6117
sVwarehous
p808
I2112
sVnearbi
p809
I6604
sVpursu
p810
I4085
sVfame
p811
I6118
sVlaszlo
p812
I7258
sVeconom
p813
I2113
sVwilhelm
p814
I4086
sVotto
p815
I195
sVyessir
p816
I196
sVdamon
p817
I2114
sVbreakdown
p818
I2115
sVbarber
p819
I4088
sVlyssa
p820
I4089
sVdefi
p821
I197
sVgeniu
p822
I2116
sVvacant
p823
I2117
sVknow
p824
I7836
sVtemptat
p825
I4090
sVnarcissu
p826
I4091
sVscholarship
p827
I6119
sVslimi
p828
I5214
sVpoach
p829
I4092
sVleffert
p830
I2118
sVslime
p831
I5221
sVrest
p832
I4093
sVdarien
p833
I2120
sVconcentr
p834
I2121
sVindulg
p835
I199
sVlittl
p836
I2122
sVinstrument
p837
I6122
sVexercis
p838
I200
sVsupernatur
p839
I1588
sVaround
p840
I4094
sVbein'
p841
I201
sVdart
p842
I4095
sVdark
p843
I4096
sVtraffic
p844
I202
sVdarn
p845
I1259
sVvacuum
p846
I1260
sVworld
p847
I203
sVdare
p848
I4098
sV60
p849
I5584
sVclam
p850
I2124
sVintel
p851
I4099
sVstranger
p852
I6123
sVbeverli
p853
I2125
sVupdat
p854
I4884
sVsparazza
p855
I4100
sVclay
p856
I2126
sVclaw
p857
I2127
sVclau
p858
I2128
sVmanag
p859
I2129
sVclap
p860
I2130
sVobstruct
p861
I204
sVmulder
p862
I4101
sVgrub
p863
I205
sVmuscl
p864
I6125
sVlobster
p865
I4102
sVbonu
p866
I6126
sVpushi
p867
I6127
sVracial
p868
I2131
sVconstitut
p869
I4103
sVjohnny'
p870
I206
sVchronicl
p871
I4104
sVtube
p872
I2133
sVnooo
p873
I6129
sVexil
p874
I5274
sVevolv
p875
I2134
sVexit
p876
I6131
sVcaviti
p877
I207
sV911
p878
I208
sVrefer
p879
I4105
sVpayin'
p880
I3659
sVpower
p881
I6133
sVvivian
p882
I4106
sVthink'
p883
I2135
sVration
p884
I2136
sVleadership
p885
I209
sVpowel
p886
I6134
sVthailand
p887
I210
sVstone
p888
I6135
sVhillyer
p889
I211
sVace
p890
I2137
sVgregori
p891
I7622
sVach
p892
I2138
sVacm
p893
I2139
sVmeal
p894
I4893
sVtumor
p895
I6137
sVacr
p896
I2140
sVbone
p897
I6138
sVneighbor
p898
I6139
sVact
p899
I2141
sVindustri
p900
I2142
sVmean
p901
I4895
sVeffici
p902
I2143
sVmarshmallow
p903
I6141
sVsurviv
p904
I4107
sVnowher
p905
I1805
sVjasper
p906
I5316
sVhomeless
p907
I4109
sVwade
p908
I6143
sVcharli
p909
I5324
sVmissi
p910
I212
sVher
p911
I1323
sVwe'v
p912
I5944
sVhey
p913
I4111
sVhee
p914
I4112
sVhow'd
p915
I2145
sVmindless
p916
I213
sVresum
p917
I4113
sVmissu
p918
I214
sVhen
p919
I4114
sVhow'm
p920
I2146
sVheh
p921
I4115
sVbottl
p922
I6146
sVbundl
p923
I2147
sVhairdress
p924
I215
sVbundi
p925
I2148
sVcreasi
p926
I356
sVmick
p927
I6147
sVfighter
p928
I6284
sVmice
p929
I6148
sVwith
p930
I216
sVconclus
p931
I217
sVpull
p932
I218
sVtripl
p933
I1351
sVdirti
p934
I220
sVrage
p935
I221
sVflirt
p936
I6150
sVhe'
p937
I4116
sVrust
p938
I222
sVgone
p939
I2152
sVab
p940
I2153
sVohh
p941
I2154
sVad
p942
I2155
sVcreat
p943
I223
sVah
p944
I2156
sVdoug
p945
I6924
sVam
p946
I2157
sVal
p947
I2158
sVan
p948
I2159
sVas
p949
I2160
sVau
p950
I2161
sVat
p951
I2162
sVjohnni
p952
I4118
sVtoontown
p953
I224
sVtranquil
p954
I4119
sVgruber
p955
I2165
sVcream
p956
I225
sVcollin
p957
I6152
sVpuppi
p958
I226
sVundercov
p959
I4120
sVtight
p960
I4121
sVimmens
p961
I2166
sVsculptur
p962
I6153
sVgenuin
p963
I2167
sVcongress
p964
I2168
sVterri
p965
I4122
sVbarzini
p966
I4123
sVmidget
p967
I227
sVsnitch
p968
I4124
sVsomeone'
p969
I6155
sVthorn
p970
I228
sVgroom
p971
I6156
sVmask
p972
I4125
sVmash
p973
I4126
sVtricki
p974
I229
sVmast
p975
I4127
sVmass
p976
I4128
sVadam
p977
I4129
sVconsider
p978
I6158
sVs'pose
p979
I6286
sVmerchandis
p980
I4130
sVngler
p981
I230
sVviolin
p982
I3981
sVtv
p983
I4131
sVincap
p984
I6159
sVtu
p985
I4132
sVlayin'
p986
I6160
sVto
p987
I4133
sVtail
p988
I4134
sVth
p989
I4135
sVti
p990
I4136
sVsmile
p991
I6161
sVte
p992
I4137
sVnorm
p993
I1420
sVta
p994
I4138
sVdiari
p995
I4139
sVbaton
p996
I232
sVcandid
p997
I2170
sVcrumb
p998
I6607
sVelena
p999
I4140
sVstrang
p1000
I6162
sVstrand
p1001
I6163
sVhuntin'
p1002
I6164
sVharri
p1003
I4141
sVcolleagu
p1004
I233
sVsang
p1005
I234
sVsand
p1006
I235
sVsane
p1007
I236
sVsmall
p1008
I237
sVfashion
p1009
I3514
sVsank
p1010
I238
sVhallucin
p1011
I4142
sVenterpris
p1012
I2172
sVquicker
p1013
I239
sVpaso
p1014
I240
sVpast
p1015
I241
sVpass
p1016
I242
sVhick
p1017
I6167
sVrichard
p1018
I6168
sVclock
p1019
I243
sVsection
p1020
I2173
sVdelet
p1021
I1472
sVleia
p1022
I1477
sVmethod
p1023
I6169
sVfull
p1024
I244
sVhash
p1025
I245
sVsmartest
p1026
I2174
sVhast
p1027
I246
sVlegend
p1028
I4143
sVbrutal
p1029
I6170
sVprior
p1030
I247
sVpick
p1031
I2175
sVaction
p1032
I2176
sVfuck'
p1033
I6172
sVvic
p1034
I6173
sVlilli
p1035
I7270
sVdepart
p1036
I248
sVvig
p1037
I6174
sVvest
p1038
I5593
sVregiment
p1039
I6175
sVgosh
p1040
I4144
sVlonnegan
p1041
I249
sVvoter
p1042
I6414
sVkeepin'
p1043
I2177
sVpearl
p1044
I4145
sVsitter
p1045
I4146
sVmorn
p1046
I250
sVhirsch
p1047
I4147
sVmora
p1048
I251
sVmore
p1049
I252
sVteen
p1050
I6179
sVdoor
p1051
I253
sVtripp
p1052
I254
sVfreelanc
p1053
I5493
sVuncov
p1054
I6610
sVchucki
p1055
I256
sVcompani
p1056
I257
sVdoom
p1057
I258
sVunderp
p1058
I4149
sVphillip
p1059
I6183
sVmall
p1060
I6184
sVmorgan
p1061
I4150
sVlearn
p1062
I259
sVmale
p1063
I6185
sVeras
p1064
I4596
sVscam
p1065
I3987
sVscan
p1066
I4151
sVchalleng
p1067
I4152
sVregistr
p1068
I2179
sVaccept
p1069
I2180
sVgallon
p1070
I2181
sVscar
p1071
I4153
sVdress
p1072
I6187
sVcondemn
p1073
I6188
sVhuge
p1074
I261
sVhugo
p1075
I262
sVhugh
p1076
I263
sVkatharin
p1077
I2183
sVcling
p1078
I2184
sVsimpl
p1079
I264
sVplant
p1080
I6189
sVstate'
p1081
I2185
sVbrett
p1082
I265
sVplane
p1083
I6190
sVdevelop
p1084
I659
sVplank
p1085
I5545
sVcircumst
p1086
I2187
sVrosebud
p1087
I266
sVwrench
p1088
I2188
sVcigarett
p1089
I268
sVpatio
p1090
I2820
sVembassi
p1091
I6192
sVmexican
p1092
I2189
sVpant
p1093
I2190
sVtrade
p1094
I6194
sVpaper
p1095
I269
sVscott
p1096
I270
sVpane
p1097
I2191
sVbroadway
p1098
I6195
sValla
p1099
I6196
sVgerald
p1100
I6197
sValli
p1101
I6198
sVrapidli
p1102
I6199
sVisaac
p1103
I271
sVcartman
p1104
I1612
sVsucker
p1105
I4156
sVskipper
p1106
I2192
sVfarewel
p1107
I4157
sVmagic
p1108
I4259
sVinstruct
p1109
I1935
sVauthent
p1110
I4158
sVlombardo
p1111
I363
sVachiev
p1112
I2194
sVfound
p1113
I4159
sVdenni
p1114
I273
sVengland
p1115
I6202
sVeyelash
p1116
I2195
sVprocedur
p1117
I274
sVrealli
p1118
I6204
sVhaldeman
p1119
I275
sVditch
p1120
I4906
sVlipstick
p1121
I276
sVvancouv
p1122
I6205
sVresearch
p1123
I277
sVbubbl
p1124
I2196
sVrace
p1125
I2197
sVtorranc
p1126
I278
sVpenit
p1127
I7769
sVhighway
p1128
I2199
sVqualifi
p1129
I4160
sVjeremiah
p1130
I1654
sVlifestyl
p1131
I2201
sVbeliev
p1132
I4162
sVgrandmother'
p1133
I6206
sVbartholomew
p1134
I4163
sVdriven
p1135
I7607
sVstruggl
p1136
I6207
sVpenetr
p1137
I4165
sVdebbi
p1138
I4166
sVdarlin'
p1139
I2203
sVmajor
p1140
I6209
sVwilder
p1141
I4167
sVnumber
p1142
I2204
sVtangl
p1143
I5953
sVslipper
p1144
I2205
sVhorribl
p1145
I280
sVguess
p1146
I4168
sVjew
p1147
I1695
sVjet
p1148
I4170
sVbenedict
p1149
I281
sVswipe
p1150
I282
sVspock
p1151
I2206
sVsaint
p1152
I283
sVilleg
p1153
I4171
sVammunit
p1154
I6211
sVmolecular
p1155
I5700
sVjen
p1156
I4172
sVrelationship
p1157
I2207
sVhandsom
p1158
I5599
sVmmmm
p1159
I4173
sVconsult
p1160
I2208
sVrain
p1161
I7452
sVgrace
p1162
I2209
sVhiya
p1163
I285
sVfrock
p1164
I6213
sVperfum
p1165
I286
sVaah
p1166
I4175
sVfreud
p1167
I2210
sVhead'
p1168
I2211
sVovertim
p1169
I288
sVprescott
p1170
I289
sVarrang
p1171
I4176
sVcomput
p1172
I6214
sVdefect
p1173
I4177
sVpackag
p1174
I290
sVblond
p1175
I291
sVgasket
p1176
I6215
sVproperli
p1177
I4736
sVmacaulay
p1178
I1732
sVsell
p1179
I292
sVodd
p1180
I6295
sVself
p1181
I293
sValso
p1182
I294
sVbrace
p1183
I6217
sVplay
p1184
I2214
sVnasal
p1185
I6218
sVbrooklyn
p1186
I6219
sVplan
p1187
I2215
sVwive
p1188
I2216
sVloan
p1189
I6235
sVchicago
p1190
I7279
sVcover
p1191
I2217
sVrais
p1192
I2524
sVext
p1193
I2218
sVbarrel
p1194
I296
sVgabe
p1195
I6221
sVbulletin
p1196
I297
sVugh
p1197
I298
sVgolf
p1198
I4179
sVjurisdict
p1199
I299
sVvader
p1200
I4181
sVsession
p1201
I2220
sVnaomi
p1202
I300
sVreput
p1203
I2221
sVfianc
p1204
I4182
sVblender
p1205
I301
sVimpact
p1206
I2222
sVwriter
p1207
I4183
sVsolut
p1208
I1785
sVpeculiar
p1209
I6930
sVcondom
p1210
I2223
sVfactor
p1211
I4184
sVbernstein
p1212
I4185
sVlombard
p1213
I1791
sVthey'v
p1214
I2224
sVthey'r
p1215
I5790
sVresent
p1216
I6222
sVthey'd
p1217
I2225
sVmainten
p1218
I6223
sVactress
p1219
I2226
sVcompass
p1220
I302
sVdamnit
p1221
I303
sVambiti
p1222
I6224
sVbanner
p1223
I4186
sVenemi
p1224
I4187
sVcri
p1225
I4188
sVpraetor
p1226
I6226
sVcoward
p1227
I5958
sVcrm
p1228
I4189
sVknowin'
p1229
I4190
sVset
p1230
I2229
sVcreator
p1231
I6227
sVbozo
p1232
I306
sVjade
p1233
I4191
sVsex
p1234
I2231
sVsee
p1235
I2232
sVsed
p1236
I2233
sVsec
p1237
I2234
sVsea
p1238
I2235
sVoverboard
p1239
I307
sVled
p1240
I2305
sVshower
p1241
I3946
sVspiritu
p1242
I4192
sVjenkin
p1243
I2237
sVpickup
p1244
I4194
sVrite
p1245
I6228
sVmayflow
p1246
I309
sVcompliment
p1247
I4979
sVsignatur
p1248
I2239
sVacknowledg
p1249
I332
sVpirat
p1250
I4196
sVincident
p1251
I4197
sVlast
p1252
I310
sVthou
p1253
I4199
sVnatali
p1254
I4200
sVpatti
p1255
I6230
sVlash
p1256
I311
sVwhole
p1257
I2241
sVblaze
p1258
I7271
sVload
p1259
I6231
sVloaf
p1260
I6232
sVepisod
p1261
I6233
sVdrunk
p1262
I2242
sVschedul
p1263
I6234
sVbela
p1264
I313
sVtown'
p1265
I1352
sVrosa
p1266
I5607
sVprovok
p1267
I314
sVmajesti
p1268
I6236
sVchurch
p1269
I4201
sVbelt
p1270
I315
sVworthless
p1271
I2244
sVdevil
p1272
I6238
sVfilth
p1273
I2245
sVperpetr
p1274
I316
sVdevic
p1275
I6239
sVperpetu
p1276
I317
sVmonthli
p1277
I6240
sVhomosexu
p1278
I2246
sVfirm
p1279
I2247
sVsweetheart
p1280
I6241
sVchampion
p1281
I4202
sVfire
p1282
I5887
sVinfect
p1283
I319
sVwhat'r
p1284
I2248
sVwhat'v
p1285
I2249
sVfund
p1286
I2250
sVeduc
p1287
I6244
sVwhat'd
p1288
I2251
sVhostess
p1289
I4203
sVstraight
p1290
I4204
sVbudget
p1291
I320
sVconceit
p1292
I321
sVmacleod
p1293
I2252
sVerror
p1294
I4205
sVkissing
p1295
I6245
sVbrunett
p1296
I4206
sVswim
p1297
I665
sVpound
p1298
I6247
sVmoth
p1299
I2253
sVvon
p1300
I323
sVowen
p1301
I2254
sVvou
p1302
I324
sVvow
p1303
I325
sVcaptiv
p1304
I326
sVvanish
p1305
I2255
sVchase
p1306
I6248
sVdecor
p1307
I5932
sVbarney
p1308
I6249
sVirrelev
p1309
I6250
sVseamu
p1310
I6617
sVobsolet
p1311
I6251
sVseek
p1312
I6252
sVshorter
p1313
I6253
sVfunni
p1314
I5939
sVdecod
p1315
I2256
sVcigar
p1316
I6254
sValert
p1317
I4208
sVcaen
p1318
I4209
sVrecent
p1319
I2257
sVeleg
p1320
I4210
sVkelli
p1321
I4211
sVpickl
p1322
I6257
sVperson
p1323
I1945
sVexpens
p1324
I4212
sVelev
p1325
I4213
sVacadem
p1326
I4214
sVsalvi
p1327
I328
sVtelegram
p1328
I2258
sVlester
p1329
I4215
sVvictim'
p1330
I2259
sVgalvin
p1331
I2667
sVunti
p1332
I6259
sVforrest
p1333
I4216
sVunto
p1334
I6260
sVtin
p1335
I7521
sVladies'
p1336
I4217
sVeager
p1337
I4218
sVcourtney
p1338
I4219
sVinput
p1339
I6262
sVhuey
p1340
I2261
sVshitti
p1341
I4220
sVaustralia
p1342
I4221
sVintuit
p1343
I4222
sVcoupla
p1344
I329
sVrexroth
p1345
I2262
sVquest
p1346
I6264
sVblackjack
p1347
I4223
sVsnore
p1348
I5613
sVabduct
p1349
I330
sVformal
p1350
I4224
sVbruis
p1351
I2263
sVd
p1352
I4225
sVspine
p1353
I331
sVthinkin'
p1354
I6618
sVpresidenti
p1355
I7285
sVconceiv
p1356
I322
sVcryin'
p1357
I6266
sVbaggag
p1358
I4226
sVivan
p1359
I4227
sVdoolittl
p1360
I2264
sVencount
p1361
I6267
sVmighti
p1362
I4228
sVgoddamn
p1363
I2009
sVmighta
p1364
I4230
sVpalm
p1365
I4232
sVsight
p1366
I2265
sVbattalion
p1367
I6017
sVpale
p1368
I4233
sVanythin'
p1369
I2266
sVprison
p1370
I5999
sVson'a
p1371
I6268
sVreligion
p1372
I6027
sVmummi
p1373
I6270
sVfigger
p1374
I5963
sVmachin
p1375
I2267
sVbe
p1376
I2268
sVba
p1377
I2269
sVgrotesqu
p1378
I334
sVbo
p1379
I2270
sVagreement
p1380
I2271
sVbu
p1381
I2272
sVsanta
p1382
I6034
sVsanto
p1383
I2273
sVcarol
p1384
I4234
sVby
p1385
I2274
sVmortgag
p1386
I4235
sVjealou
p1387
I335
sVhatchet
p1388
I2275
sVcommun
p1389
I2315
sVrevolut
p1390
I2276
sVsubconsci
p1391
I4236
sVrepair
p1392
I6274
sVirrit
p1393
I4237
sVhemingway
p1394
I2277
sVd'oeuvr
p1395
I2278
sVjack'
p1396
I337
sVsavag
p1397
I2279
sVearth'
p1398
I7583
sVoccupi
p1399
I2280
sVrighteou
p1400
I338
sVspan
p1401
I339
sVsock
p1402
I340
sVsubmit
p1403
I6276
sVcustom
p1404
I6277
sVsuit
p1405
I4238
sVspat
p1406
I341
sVblueprint
p1407
I6278
sVjewish
p1408
I2282
sVposter
p1409
I4239
sVpastor
p1410
I2283
sVlesli
p1411
I6308
sVlink
p1412
I2284
sVatom
p1413
I6279
sVline
p1414
I2285
sVjacki
p1415
I343
sVcia
p1416
I4240
sVup
p1417
I4241
sVus
p1418
I4242
sVlieuten
p1419
I4243
sVum
p1420
I4244
sVun
p1421
I4245
sVuh
p1422
I2100
sVsupervisor
p1423
I2286
sVchad
p1424
I346
sVchan
p1425
I347
sVchao
p1426
I2110
sVchap
p1427
I349
sVchat
p1428
I350
sVchaz
p1429
I351
sVryan'
p1430
I352
sVphantom
p1431
I2287
sVparadox
p1432
I4247
sVuranium
p1433
I353
sVscrape
p1434
I6121
sVhell'
p1435
I2288
sVhavin'
p1436
I4248
sVtart
p1437
I6124
sVtrouser
p1438
I4249
sVscrub
p1439
I6280
sVpinkerton
p1440
I6281
sVbianca
p1441
I354
sVago
p1442
I6282
sVagn
p1443
I6283
sVlane
p1444
I355
sVland
p1445
I2149
sVlanc
p1446
I2150
sVfixin'
p1447
I4250
sVage
p1448
I6285
sVbateman
p1449
I5966
sVwalker
p1450
I2290
sVfresh
p1451
I4251
sVhello
p1452
I2291
sVcode
p1453
I2292
sVpartial
p1454
I6287
sVilsa
p1455
I6288
sVscratch
p1456
I4252
sVsiddown
p1457
I6289
sVdwayn
p1458
I4253
sVgossip
p1459
I6290
sVhumpback
p1460
I358
sVquarantin
p1461
I359
sVturkish
p1462
I360
sVolymp
p1463
I5292
sVyoung
p1464
I4254
sVsend
p1465
I2295
sVwhoever'
p1466
I362
sVsens
p1467
I2296
sVsent
p1468
I2297
sVgarden
p1469
I2298
sVdisast
p1470
I4255
sVprecinct
p1471
I4256
sVwipe
p1472
I4257
sVtri
p1473
I4258
sVrecit
p1474
I2300
sVharbor
p1475
I2193
sVinclin
p1476
I6292
sVeve
p1477
I4260
sVkansa
p1478
I364
sVthreat
p1479
I7680
sVsmuggl
p1480
I4261
sVreich
p1481
I6293
sVmarri
p1482
I6294
sVrack
p1483
I4262
sVrach
p1484
I4263
sVvehicl
p1485
I2301
sVimpli
p1486
I4264
sVnatur
p1487
I2302
sVcrook
p1488
I365
sVvideo
p1489
I2212
sVspaghetti
p1490
I4265
sVvictor
p1491
I366
sVevacu
p1492
I367
sVthat'
p1493
I2219
sVthrob
p1494
I4610
sVindian
p1495
I6296
sVinjustic
p1496
I4266
sVbird
p1497
I2303
sVsweati
p1498
I368
sVklingon
p1499
I2304
sVpoverti
p1500
I4267
sVlee
p1501
I2306
sVleg
p1502
I2307
sVpunch
p1503
I4268
sVlen
p1504
I2308
sVleo
p1505
I2309
sVsceneri
p1506
I6298
sVlet
p1507
I2310
sVlex
p1508
I2312
sVfifteen
p1509
I369
sVeverything'
p1510
I4269
sVgreat
p1511
I6299
sVgreas
p1512
I6300
sVcasino
p1513
I4270
sVtechnolog
p1514
I2313
sVpeke
p1515
I2320
sVdefeat
p1516
I6301
sVpopcorn
p1517
I6302
sVopinion
p1518
I6303
sVmaker
p1519
I370
sVsire
p1520
I6261
sVcomanch
p1521
I2314
sVdisobey
p1522
I6263
sVemot
p1523
I6304
sVdisciplin
p1524
I6305
sVcarryin'
p1525
I6306
sVdumbest
p1526
I371
sVzip
p1527
I6307
sVcougar
p1528
I3959
sVgregor
p1529
I372
sVdoubl
p1530
I2316
sVbush
p1531
I6048
sVnexu
p1532
I373
sVnext
p1533
I374
sVeleven
p1534
I375
sVdoubt
p1535
I2317
sVlindenmey
p1536
I376
sVpencil
p1537
I377
sVbabe
p1538
I378
sVbabi
p1539
I379
sVgladli
p1540
I6309
sVchariti
p1541
I6310
sVcentral
p1542
I2671
sVgambl
p1543
I4272
sVstandin'
p1544
I2318
sVpour
p1545
I6312
sV'no
p1546
I1958
sVthin
p1547
I6313
sVdrill
p1548
I2319
sVcoffin
p1549
I4273
sVnixon'
p1550
I6996
sVlemm
p1551
I4274
sVbent
p1552
I2321
sVpawn
p1553
I4275
sVsayin'
p1554
I56
sVprocess
p1555
I382
sVlock
p1556
I383
sVslim
p1557
I4276
sVrode
p1558
I384
sVhauser
p1559
I4277
sVhigh
p1560
I6311
sVslit
p1561
I4278
sVbene
p1562
I2322
sVbend
p1563
I2323
sVslip
p1564
I4279
sVcrimin
p1565
I6316
sVmartyr
p1566
I6317
sVtrumpet
p1567
I2324
sVweaken
p1568
I6318
sVcomedi
p1569
I385
sVdelay
p1570
I4280
sVgump
p1571
I6625
sVpaley
p1572
I386
sVwater'
p1573
I7295
sVstand
p1574
I5625
sVlamb
p1575
I387
sVinhal
p1576
I4281
sVunderway
p1577
I2675
sVgardner
p1578
I6337
sVreed'
p1579
I6320
sVfett
p1580
I3361
sVben'
p1581
I2327
sVmarrow
p1582
I4282
sVhawk
p1583
I4283
sVautograph
p1584
I6323
sVtomato
p1585
I4284
sVessenti
p1586
I6324
sVnanci
p1587
I2328
sVclassi
p1588
I4285
sVseriou
p1589
I6325
sVcounter
p1590
I4286
sVrobot
p1591
I389
sVelement
p1592
I4287
sVissu
p1593
I2329
sVallow
p1594
I2330
sVhouston
p1595
I390
sVthigh
p1596
I391
sVtribe
p1597
I2331
sVmove
p1598
I4289
sVcommi
p1599
I2332
sVwarren
p1600
I4290
sVperfect
p1601
I393
sVchosen
p1602
I4291
sVhobbi
p1603
I2333
sVpuerto
p1604
I2334
sVdecad
p1605
I2386
sVtherefor
p1606
I2387
sVrecept
p1607
I4292
sVprosper
p1608
I395
sVhurrican
p1609
I4293
sVstrateg
p1610
I4294
sVdock
p1611
I4295
sVsnake
p1612
I396
sVkiss
p1613
I2335
sVromulan
p1614
I6328
sVcage
p1615
I6329
sVbetti
p1616
I4296
sVanyth
p1617
I2336
sVtruth
p1618
I4297
sVbeneath
p1619
I6330
sVfrancisco
p1620
I2416
sVsocieti
p1621
I6331
sVbump
p1622
I397
sVbooki
p1623
I398
sVconsum
p1624
I4508
sVstatic
p1625
I6332
sVthirteen
p1626
I2337
sVbay
p1627
I6948
sVtenth
p1628
I4299
sVwander
p1629
I2338
sVvariabl
p1630
I4300
sVsauc
p1631
I3962
sVairlin
p1632
I4616
sVmatrix
p1633
I399
sV'
p1634
I400
sVczar
p1635
I2339
sVshut
p1636
I6333
sVawait
p1637
I2325
sVperish
p1638
I6334
sVdoin'
p1639
I6335
sVtempl
p1640
I6336
sVtempt
p1641
I6338
sVthrust
p1642
I6339
sVembarrass
p1643
I6340
sVgreedi
p1644
I401
sVzap
p1645
I6589
sVmainland
p1646
I402
sVspill
p1647
I2341
sVcould
p1648
I403
sVlancelot
p1649
I6342
sVdavid
p1650
I2342
sVscari
p1651
I6343
sVlength
p1652
I404
sVnotebook
p1653
I2326
sVoutsid
p1654
I6344
sVscare
p1655
I6345
sVendors
p1656
I2343
sVanyone'
p1657
I2344
sVrothstein
p1658
I6347
sVmanuscript
p1659
I4304
sVblown
p1660
I2345
sVscene
p1661
I2461
sVowner
p1662
I2346
sVscent
p1663
I405
sVprank
p1664
I4305
sVlicens
p1665
I6348
sVsystem
p1666
I4306
sVsergeant
p1667
I406
sVbartend
p1668
I6349
sVtermin
p1669
I407
sVnorton
p1670
I2347
sVstomach
p1671
I408
sVseymour
p1672
I4307
sVgotcha
p1673
I4308
sVmegan
p1674
I2349
sVvouch
p1675
I4309
sVgrandpa
p1676
I6351
sS'UNK'
p1677
I7876
sVshorti
p1678
I4310
sVsteel
p1679
I2350
sVbled
p1680
I1967
sVsteed
p1681
I2351
sVbother
p1682
I4311
sVpsycholog
p1683
I410
sVmisunderstand
p1684
I2352
sVbeggar
p1685
I4312
sVterribl
p1686
I2353
sVviewer
p1687
I6353
sVpartnership
p1688
I6354
sVclearli
p1689
I2354
sVtonight
p1690
I411
sVsky
p1691
I7832
sVgentli
p1692
I4313
sVlila
p1693
I4314
sVsoak
p1694
I2355
sVmesseng
p1695
I413
sVbriefcas
p1696
I2356
sVlili
p1697
I4315
sVdiscret
p1698
I2357
sVmilli
p1699
I4316
sVlinda
p1700
I4317
sVkorean
p1701
I4318
sVsubject
p1702
I4195
sVsoap
p1703
I2358
sVtoughest
p1704
I6355
sVbrazil
p1705
I6954
sVcourtesi
p1706
I4319
sVwhattaya
p1707
I414
sVoracl
p1708
I2359
sVvisa
p1709
I6356
sVmedal
p1710
I2360
sVbree
p1711
I2552
sVbred
p1712
I415
sVstronger
p1713
I6357
sVface
p1714
I4320
sVyou'll
p1715
I2362
sVfact
p1716
I4321
sVbring
p1717
I4322
sVlloyd
p1718
I2363
sVbedroom
p1719
I6359
sVrough
p1720
I6360
sVasylum
p1721
I2364
sVscotti
p1722
I416
sVbrink
p1723
I4323
sVseizur
p1724
I6361
sVnoir
p1725
I4324
sVnois
p1726
I4325
sVjay
p1727
I417
sVjaw
p1728
I418
sVmovi
p1729
I4288
sVjar
p1730
I419
sVjap
p1731
I420
sVshould
p1732
I4326
sVgestur
p1733
I421
sVjam
p1734
I422
sVsuppos
p1735
I2365
sVjabez
p1736
I2366
sVjag
p1737
I424
sVsylvia
p1738
I2578
sVjab
p1739
I425
sVhope
p1740
I2368
sVmeant
p1741
I4327
sVinsight
p1742
I392
sVsatisfact
p1743
I426
sVfamiliar
p1744
I6363
sVpasseng
p1745
I6364
sVhorni
p1746
I1312
sVmeter
p1747
I3368
sVlucki
p1748
I6366
sVsmash
p1749
I4328
sVmayor'
p1750
I2369
sVsummon
p1751
I4329
sVdevast
p1752
I4330
sVstuff
p1753
I428
sVridin'
p1754
I3791
sVnoodl
p1755
I2370
sVframe
p1756
I430
sVpacket
p1757
I4331
sVtemporarili
p1758
I2371
sVstack
p1759
I6255
sVparticl
p1760
I2634
sVdoor'
p1761
I3952
sVwire
p1762
I6368
sVsuperhero
p1763
I2372
sVextend
p1764
I63
sVnuclear
p1765
I431
sVdestini
p1766
I432
sVpistol
p1767
I4332
sVdislik
p1768
I2373
sVbuttl
p1769
I4333
sVstaci
p1770
I6256
sVdisput
p1771
I2374
sVlawsuit
p1772
I433
sVdrum
p1773
I2375
sVla
p1774
I3371
sVlazi
p1775
I4940
sVdrug
p1776
I2376
sVdarryl
p1777
I2650
sVjodi
p1778
I5784
sVdoorway
p1779
I435
sVpuff
p1780
I6372
sVaye
p1781
I5009
sVco
p1782
I2377
sVcb
p1783
I2378
sVca
p1784
I2379
sVcd
p1785
I2380
sVcy
p1786
I6619
sVindict
p1787
I436
sVfeloni
p1788
I1973
sVlabor
p1789
I7309
sVchromium
p1790
I2381
sVscanner
p1791
I6632
sVwarden
p1792
I6972
sVtriniti
p1793
I6374
sVrhode
p1794
I4335
sVdrank
p1795
I6375
sVtrajectori
p1796
I2382
sVfeather
p1797
I437
sVimmedi
p1798
I438
sVlouisiana
p1799
I4336
sVselina
p1800
I4337
sVdeliber
p1801
I2383
sVtogeth
p1802
I4338
sVador
p1803
I2384
sVatlanta
p1804
I2385
sVspain
p1805
I4339
sVbanish
p1806
I439
sVlaser
p1807
I2388
sVounc
p1808
I2389
sVdecept
p1809
I440
sVbathtub
p1810
I4340
sVva
p1811
I4341
sVpurchas
p1812
I441
sVve
p1813
I4342
sVripe
p1814
I2390
sVvi
p1815
I4343
sVsite
p1816
I4344
sVlust
p1817
I2391
sVarchiv
p1818
I6377
sVincom
p1819
I4345
sVransom
p1820
I442
sVtattoo
p1821
I443
sVdenial
p1822
I444
sVmutat
p1823
I6379
sVjuan
p1824
I4346
sVbishop
p1825
I5631
sVmatthew
p1826
I4347
sVpauli
p1827
I445
sVandroid
p1828
I4348
sVpaula
p1829
I446
sVcompetit
p1830
I4349
sVball
p1831
I2392
sVcolumbia
p1832
I2393
sVraymond
p1833
I6380
sVdrink
p1834
I4350
sVupon
p1835
I6381
sVdreyfuss
p1836
I6382
sVcoffe
p1837
I4351
sVbonapart
p1838
I6383
sVdust
p1839
I2395
sVexpand
p1840
I6384
sVaudit
p1841
I447
sVoff
p1842
I448
sVshotgun
p1843
I449
sVexampl
p1844
I4352
sVcommand
p1845
I2396
sV350
p1846
I4353
sVpaul'
p1847
I450
sVpaus
p1848
I6385
sVflesh
p1849
I4354
sVkramer
p1850
I6387
sVethel
p1851
I6960
sVpaul
p1852
I6388
sVglue
p1853
I2397
sVweb
p1854
I451
sVwee
p1855
I452
sVwed
p1856
I453
sVarrest
p1857
I6389
sVcremat
p1858
I7621
sVcrack
p1859
I2765
sV5
p1860
I7632
sVscoundrel
p1861
I6390
sVmorphin
p1862
I6391
sVchancellor
p1863
I6717
sVpiec
p1864
I455
sVcruz
p1865
I456
sVcedar
p1866
I4355
sVdesk
p1867
I6394
sVpassword
p1868
I4356
sVpier
p1869
I458
sVresid
p1870
I6396
sVonion
p1871
I2398
sVcorpor
p1872
I4357
sVemmi
p1873
I459
sVdove
p1874
I6043
sVimprison
p1875
I4358
sVcrisi
p1876
I2399
sVblowin'
p1877
I4359
sVcaptur
p1878
I4360
sVthief
p1879
I2400
sVdaylight
p1880
I4361
sVflush
p1881
I460
sVguarante
p1882
I2401
sVthiev
p1883
I2402
sVtransport
p1884
I2403
sVfeder
p1885
I2404
sVavoid
p1886
I2405
sVpassion
p1887
I461
sVforgiven
p1888
I2406
sVkiddo
p1889
I462
sVkiddi
p1890
I463
sVsurfer
p1891
I3536
sVdisregard
p1892
I7318
sVoverreact
p1893
I2685
sVstage
p1894
I2407
sVsister
p1895
I2408
sVdocumentari
p1896
I465
sVslayer
p1897
I4362
sVwhistler
p1898
I4363
sVwarner
p1899
I7319
sVcadet
p1900
I6397
sVassess
p1901
I4364
sVlung
p1902
I4365
sVpussi
p1903
I4366
sVmere
p1904
I6399
sVheresi
p1905
I466
sVcaviar
p1906
I6402
sVmuch
p1907
I76
sVflynn
p1908
I4367
sVdeliveri
p1909
I2409
sVmathilda
p1910
I6403
sVinterest
p1911
I6404
sVinnoc
p1912
I7085
sVtreve
p1913
I2410
sVthey'
p1914
I6406
sVgrate
p1915
I6407
sVapollo
p1916
I4368
sVcount
p1917
I2411
sVbaptist
p1918
I4369
sVveget
p1919
I2412
sVsmooth
p1920
I2413
sVmonument
p1921
I6408
sVotherwis
p1922
I2414
sVproblem
p1923
I468
sVpeter'
p1924
I469
sVfriggin'
p1925
I4298
sVirish
p1926
I4371
sVint
p1927
I4372
sVnovemb
p1928
I4373
sVinn
p1929
I4374
sVjessi
p1930
I4375
sVink
p1931
I4376
sVing
p1932
I4377
sVsexual
p1933
I1317
sVvarieti
p1934
I2415
sVdeadli
p1935
I470
sVbehold
p1936
I471
sVreckless
p1937
I4378
sVdismiss
p1938
I991
sVmonday
p1939
I6409
sVmissouri
p1940
I2417
sVrex
p1941
I3378
sVvein
p1942
I4379
sVghost
p1943
I4380
sVmercenari
p1944
I6410
sVmozart
p1945
I4381
sVrule
p1946
I6411
sVpension
p1947
I2418
sVdefend
p1948
I4382
sVsincer
p1949
I6412
sVinning
p1950
I6413
sVnurseri
p1951
I473
sVparty'
p1952
I2419
sVupsid
p1953
I2420
sVoldest
p1954
I2421
sVporno
p1955
I474
sVstanwyk
p1956
I5984
sVbike
p1957
I4385
sVcertain
p1958
I6151
sVcunt
p1959
I5986
sVregan
p1960
I2967
sVergo
p1961
I6416
sVworth
p1962
I475
sVlack
p1963
I7640
sVrel
p1964
I3382
sVblanket
p1965
I2423
sVdistort
p1966
I2424
sVannabel
p1967
I6401
sVjacob
p1968
I4387
sVbellerophon
p1969
I4389
sVchapel
p1970
I6418
sVwe'll
p1971
I6419
sVpinch
p1972
I4390
sVnigger
p1973
I4392
sVenquir
p1974
I6422
sVmath
p1975
I5326
sVtriumph
p1976
I4393
sVchew
p1977
I4394
sVchet
p1978
I4395
sVphoney
p1979
I6423
sVspeck
p1980
I4396
sVspeci
p1981
I4397
sVharold
p1982
I7321
sVhorn
p1983
I4398
sVchef
p1984
I2999
sVconsequ
p1985
I477
sVhors
p1986
I4400
sVsupervis
p1987
I478
sVdisk
p1988
I5647
sVamus
p1989
I6425
sVnear
p1990
I2425
sVscumbag
p1991
I7322
sVtold
p1992
I6426
sVcrunch
p1993
I4401
sVrichest
p1994
I481
sVpursuit
p1995
I2427
sVpleasur
p1996
I2428
sVphone'
p1997
I6427
sVdaughter
p1998
I4402
sVjuarez
p1999
I483
sVcorleon
p2000
I4404
sVadopt
p2001
I5565
sVgerri
p2002
I6970
sVgoddamnit
p2003
I2429
sVsmoke
p2004
I2430
sVstudi
p2005
I2431
sVtol'
p2006
I6428
sVnewspap
p2007
I6429
sVmitchel
p2008
I484
sVbro
p2009
I485
sVreleas
p2010
I7323
sVattitud
p2011
I6430
sVspooki
p2012
I6431
sVtotal
p2013
I4405
sVbra
p2014
I486
sVhighli
p2015
I4407
sVsarah
p2016
I487
sVplot
p2017
I488
sVsweater
p2018
I489
sVbleed
p2019
I3385
sVprogram
p2020
I6434
sVindiana
p2021
I2433
sVtheatr
p2022
I3026
sVsushi
p2023
I6968
sVreign
p2024
I2435
sVturtl
p2025
I2340
sVwhatiya
p2026
I490
sVword
p2027
I6435
sVinsignific
p2028
I2437
sVworf
p2029
I6437
sVrestor
p2030
I4411
sVwork
p2031
I6438
sVworm
p2032
I6439
sVpierc
p2033
I2439
sVwors
p2034
I6441
sVera
p2035
I491
sVelbow
p2036
I492
sVgloria
p2037
I493
sVpierr
p2038
I1205
sVeyebal
p2039
I494
sVjesu
p2040
I3031
sVindia
p2041
I6442
sVexquisit
p2042
I495
sVliter
p2043
I5650
sVbasebal
p2044
I496
sVwaddaya
p2045
I7530
sVbloodsh
p2046
I6445
sVordinari
p2047
I2441
sVsong
p2048
I7645
sVenforc
p2049
I4302
sVrecoveri
p2050
I497
sVmoron
p2051
I498
sVverifi
p2052
I4413
sVbeach
p2053
I4414
sVpizza
p2054
I4415
sVfever
p2055
I4416
sVrecogn
p2056
I7064
sVlad
p2057
I6448
sVladder
p2058
I499
sVearlier
p2059
I3126
sVlab
p2060
I6449
sVlax
p2061
I6450
sVlay
p2062
I6451
sVlaz
p2063
I6452
sVlaw
p2064
I6453
sVlap
p2065
I6454
sVdemonstr
p2066
I4418
sVgoin'
p2067
I6100
sVdomin
p2068
I6457
sVgreer
p2069
I2443
sVcredenti
p2070
I4419
sVpsychologist
p2071
I7649
sVgreet
p2072
I2444
sVdetent
p2073
I2445
sVgreek
p2074
I2446
sVgreen
p2075
I2447
sVwaitress
p2076
I7325
sVgreec
p2077
I2448
sVorder
p2078
I6459
sVgreed
p2079
I2449
sVsalon
p2080
I4421
sVsoftwar
p2081
I6346
sVconsent
p2082
I2450
sVoffici
p2083
I6461
sVtypewrit
p2084
I6462
sVveri
p2085
I2692
sVtoddi
p2086
I2452
sVincid
p2087
I6463
sVjapan
p2088
I4422
sVflexibl
p2089
I6464
sVmayor
p2090
I2453
sVchristin
p2091
I501
sVhypnot
p2092
I6466
sVdenver
p2093
I2454
sVoffic
p2094
I2455
sVtheo
p2095
I2456
sVthen
p2096
I2457
sVthem
p2097
I2458
sVfragment
p2098
I2459
sVthee
p2099
I2460
sVsafe
p2100
I503
sVthea
p2101
I7110
sVbreak
p2102
I6467
sVband
p2103
I4424
sVbang
p2104
I4425
sVcosgrov
p2105
I7327
sVthey
p2106
I2462
sVbank
p2107
I4426
sVbread
p2108
I6469
sVtendenc
p2109
I4427
sVregula
p2110
I4428
sVoxygen
p2111
I6470
sVl
p2112
I504
sVanastasia
p2113
I7471
sVrocki
p2114
I4429
sVslaveri
p2115
I3198
sVcostello
p2116
I4430
sVflock
p2117
I2463
sVo'higgin
p2118
I505
sVnetwork
p2119
I6471
sVgoebbel
p2120
I2464
sVpalac
p2121
I4431
sVdaniel
p2122
I7671
sVmonro
p2123
I2465
sVforth
p2124
I2466
sVforti
p2125
I2467
sVbarrier
p2126
I506
sVstandard
p2127
I4433
sVcharenton
p2128
I4434
sVlousi
p2129
I6473
sVdammit
p2130
I507
sVmaniac
p2131
I508
sVangl
p2132
I2469
sVangi
p2133
I2470
sVrenew
p2134
I509
sVwhatta
p2135
I4435
sVsubtl
p2136
I510
sVrefil
p2137
I511
sVi'll
p2138
I6643
sVrender
p2139
I512
sVrefin
p2140
I3453
sVchopper
p2141
I2472
sV'cours
p2142
I2473
sVthick
p2143
I4436
sVnomin
p2144
I514
sVoverr
p2145
I6973
sVdumbass
p2146
I6476
sVjohn
p2147
I515
sVgrandchildren
p2148
I4437
sValbert
p2149
I4438
sVzira
p2150
I516
sVcereal
p2151
I517
sVhappili
p2152
I4439
sVguild
p2153
I518
sVtarget
p2154
I6477
sVprovid
p2155
I6478
sVdog'
p2156
I519
sVbiolog
p2157
I7652
sVlapd
p2158
I7332
sVmerci
p2159
I6480
sVguilt
p2160
I520
sViron
p2161
I6481
sVminut
p2162
I4441
sVsalvag
p2163
I2476
sVmanner
p2164
I2477
sVlula
p2165
I6482
sVanswer'
p2166
I2693
sVsalvat
p2167
I2478
sVstrength
p2168
I2479
sVrealm
p2169
I4442
sVluxuri
p2170
I4443
sVterrif
p2171
I4444
sVsaunder
p2172
I521
sVboyfriend'
p2173
I6484
sVtransmit
p2174
I4445
sVmagnum
p2175
I2481
sVcurfew
p2176
I4446
sVanatomi
p2177
I4447
sVgermani
p2178
I3324
sVmaiden
p2179
I4448
sVbruce
p2180
I522
sVhammond
p2181
I523
sVautopsi
p2182
I4449
sVwhat
p2183
I5652
sVgravi
p2184
I3332
sVphase
p2185
I6485
sVgrave
p2186
I524
sVexcus
p2187
I6486
sVhanna
p2188
I2482
sVargon
p2189
I6350
sVswamp
p2190
I525
sVaunt
p2191
I526
sVaccompani
p2192
I6487
sVnotion
p2193
I2484
sVopposit
p2194
I4450
sVbimbo
p2195
I4451
sVidentifi
p2196
I2485
sVinvolv
p2197
I6489
sVskye
p2198
I2486
sVhaven
p2199
I6352
sVdeepest
p2200
I4452
sVgideon
p2201
I6490
sVozon
p2202
I7655
sVdo
p2203
I2487
sVdi
p2204
I2488
sVnasti
p2205
I4453
sVde
p2206
I2489
sVlainey
p2207
I7298
sVda
p2208
I7299
sVwatson
p2209
I2490
sVhappiest
p2210
I7308
sVdu
p2211
I2491
sVdr
p2212
I2492
sVuhura
p2213
I4454
sVdiabet
p2214
I4455
sVsecretari
p2215
I527
sVgaug
p2216
I4456
sVseptemb
p2217
I528
sVsteal
p2218
I6492
sVsteam
p2219
I6493
sVwestley
p2220
I4457
sVinna
p2221
I6494
sVchristian
p2222
I2493
sVawar
p2223
I3399
sVmitch
p2224
I2494
sVaway
p2225
I529
sVgentleman
p2226
I2495
sVbien
p2227
I6495
sVawak
p2228
I530
sVdrawn
p2229
I531
sVreggi
p2230
I6496
sVwe
p2231
I4458
sVwa
p2232
I4459
sVwh
p2233
I4460
sVwu
p2234
I4461
sVkitchen
p2235
I532
sVcop
p2236
I2498
sVeasi
p2237
I5998
sVcow
p2238
I2499
sVbrat
p2239
I4462
sVill
p2240
I6497
sVbrag
p2241
I4463
sVsteer
p2242
I6498
sVbrad
p2243
I4464
sVcom
p2244
I2500
sVcol
p2245
I2501
sVcon
p2246
I2502
sVtone
p2247
I533
sVheali
p2248
I2503
sVtoni
p2249
I534
sVtrunk
p2250
I6648
sVparadis
p2251
I2504
sVguid
p2252
I2505
sVgoodby
p2253
I1667
sVspeak
p2254
I6501
sVstrong
p2255
I2695
sVpetti
p2256
I2507
sVleech
p2257
I6503
sVdixi
p2258
I4465
sVcyru
p2259
I4466
sVsabotag
p2260
I4467
sVphysician
p2261
I2508
sVident
p2262
I7417
sVsampson
p2263
I4468
sVhitler'
p2264
I6504
sVproperti
p2265
I4469
sVair
p2266
I4470
sVaim
p2267
I4471
sVmicheal
p2268
I6505
sVremo
p2269
I6506
sVaid
p2270
I4473
sVvagu
p2271
I535
sVfuriou
p2272
I2977
sVdizzi
p2273
I536
sVwhaddaya
p2274
I2509
sVsting
p2275
I6507
sVaudrey
p2276
I2510
sVbrake
p2277
I6508
sVcone
p2278
I537
sVhebrew
p2279
I2511
sVgirls'
p2280
I2512
sVdumper
p2281
I2513
sVperform
p2282
I4475
sVbunni
p2283
I4476
sVcecil
p2284
I412
sVjerri
p2285
I2516
sVhank
p2286
I3497
sVraid
p2287
I2517
sVfragil
p2288
I2518
sVevid
p2289
I2519
sVwaal
p2290
I7320
sVeverett
p2291
I2520
sVrail
p2292
I2521
sVlyndon
p2293
I2522
sVhand
p2294
I542
sVbicentenni
p2295
I543
sVnix
p2296
I6510
sVfuse
p2297
I544
sVredneck
p2298
I4477
sVvermont
p2299
I545
sVkept
p2300
I2525
sVscenario
p2301
I2526
sVthu
p2302
I2527
sVdrip
p2303
I6511
sVepp
p2304
I2528
sVzuzu
p2305
I6512
sVclient
p2306
I546
sVmamma
p2307
I6513
sVthi
p2308
I2529
sVlothar
p2309
I7469
sVthe
p2310
I2530
sVcampu
p2311
I2531
sVshe'll
p2312
I6514
sVphoto
p2313
I4479
sVroderick
p2314
I2532
sVfarther
p2315
I4480
sVvictim
p2316
I6515
sVgot
p2317
I3502
sVjosh
p2318
I547
sVjosi
p2319
I548
sVma'am
p2320
I2533
sVspread
p2321
I2534
sVboard
p2322
I4481
sVplasma
p2323
I2535
sVmaya
p2324
I6516
sVmayb
p2325
I6517
sVmayo
p2326
I6518
sVarab
p2327
I2536
sVleagu
p2328
I550
sVcape
p2329
I2537
sVgod'
p2330
I4483
sVretreat
p2331
I4484
sVriddl
p2332
I4485
sVcountry'
p2333
I6519
sVcooler
p2334
I551
sVgandhi
p2335
I6520
sVnight
p2336
I552
sVwebb
p2337
I2538
sVlasher
p2338
I5091
sVflatter
p2339
I553
sVjefferi
p2340
I2539
sVpercentag
p2341
I554
sVborn
p2342
I555
sVborg
p2343
I556
sVbore
p2344
I557
sVhumor
p2345
I6521
sVtonight'
p2346
I4487
sVpreliminari
p2347
I7337
sVeleph
p2348
I6522
sVovercom
p2349
I4488
sVmonth'
p2350
I4489
sVpeek
p2351
I558
sVplu
p2352
I6523
sVpeel
p2353
I559
sVcabbi
p2354
I6524
sVpose
p2355
I4490
sVconfer
p2356
I4491
sVpeed
p2357
I560
sVpeer
p2358
I561
sVpost
p2359
I4493
sVposs
p2360
I4494
sVmulwray
p2361
I4791
sVdiner
p2362
I2541
sVliteratur
p2363
I6525
sVtrophi
p2364
I6526
sVaskin'
p2365
I563
sVthreepio
p2366
I2542
sVbanker
p2367
I6527
sVhorizon
p2368
I6528
sVcherish
p2369
I2543
sVbeatin'
p2370
I4495
sVbook
p2371
I7866
sVdilemma
p2372
I2544
sVcuriou
p2373
I565
sVbounc
p2374
I4496
sVfloat
p2375
I4497
sVprofession
p2376
I566
sVbound
p2377
I4498
sVcurios
p2378
I567
sVlewi
p2379
I2545
sVbizarr
p2380
I1671
sVlaval
p2381
I568
sVopportun
p2382
I2546
sVole
p2383
I6007
sVcohaagen
p2384
I569
sVshhhh
p2385
I2547
sVtowler
p2386
I6243
sVfight
p2387
I2548
sVway
p2388
I4499
sVwax
p2389
I4500
sVwhy'
p2390
I6529
sVwar
p2391
I4501
sVlowest
p2392
I6530
sVrefriger
p2393
I5489
sVmaxin
p2394
I6532
sVboon
p2395
I7835
sVtrue
p2396
I4502
sVreset
p2397
I2549
sVabsent
p2398
I4503
sVemin
p2399
I4504
sVinquir
p2400
I2550
sVmaximum
p2401
I571
sVcrystal
p2402
I6533
sVabsenc
p2403
I4505
sVvatican
p2404
I2551
sVretir
p2405
I6534
sVhotter
p2406
I2553
sValongsid
p2407
I572
sVfrederick
p2408
I5348
sVabstract
p2409
I6535
sVflaw
p2410
I2554
sVbrother'
p2411
I4506
sVprayer
p2412
I573
sVenlist
p2413
I6358
sVmold
p2414
I2555
sVmole
p2415
I2556
sVstake
p2416
I6536
sVrmph
p2417
I3675
sVjone
p2418
I7614
sVtest
p2419
I574
sVshrink
p2420
I6537
sVrealiti
p2421
I6538
sVfredo
p2422
I6654
sVo'clock
p2423
I575
sVdeton
p2424
I3687
sVsheldrak
p2425
I6539
sVstairwel
p2426
I6540
sVdyin'
p2427
I6541
sVfaze
p2428
I576
sVloyal
p2429
I4507
sVholdin'
p2430
I6542
sVconcept
p2431
I577
sVglobal
p2432
I3781
sVtoothpick
p2433
I2559
sVheller
p2434
I578
sVmiddl
p2435
I6543
sVgrape
p2436
I2560
sVzone
p2437
I2561
sVoughtta
p2438
I2562
sVhump
p2439
I2563
sVflash
p2440
I2564
sVsupposedli
p2441
I2565
sVrhythm
p2442
I4509
sVterror
p2443
I6544
sVbrown
p2444
I6545
sVexcalibur
p2445
I2567
sVhannah
p2446
I4510
sVkitten
p2447
I3729
sVoctob
p2448
I4511
sVblast
p2449
I2568
sVadministr
p2450
I6547
sVreconcil
p2451
I6548
sVgun
p2452
I579
sVgum
p2453
I580
sVp
p2454
I2569
sVq
p2455
I7051
sVgut
p2456
I581
sVguy
p2457
I582
sVupper
p2458
I6550
sVbrave
p2459
I6551
sVregret
p2460
I6552
sVcreatur
p2461
I4975
sVbravo
p2462
I6553
sVthinker
p2463
I2570
sVcost
p2464
I583
sValfr
p2465
I584
sVhelpless
p2466
I3747
sVcargo
p2467
I4512
sVappear
p2468
I4513
sVrepriev
p2469
I585
sVuniform
p2470
I4514
sVappeal
p2471
I4515
sVwolfi
p2472
I4516
sVgener
p2473
I6554
sVmuslim
p2474
I4517
sVgenet
p2475
I6555
sVfootbal
p2476
I6556
sVsatisfi
p2477
I2571
sVhadn't
p2478
I586
sVteacher
p2479
I587
sVbuck
p2480
I6557
sVtrial
p2481
I2573
sVbehav
p2482
I2574
sVpillow
p2483
I589
sVpromot
p2484
I3050
sVregardless
p2485
I590
sVextra
p2486
I591
sVmarker
p2487
I6558
sVfbi
p2488
I592
sVsonofabitch
p2489
I1346
sVmobil
p2490
I2575
sVfirearm
p2491
I593
sVmarket
p2492
I6559
sVangelo
p2493
I6560
sVanesthet
p2494
I595
sVprove
p2495
I4518
sVangela
p2496
I6562
sVlive
p2497
I2576
sVshaken
p2498
I3998
sVtape
p2499
I423
sVclub
p2500
I6563
sVintrigu
p2501
I6362
sVclue
p2502
I6564
sVunconsci
p2503
I597
sVbourbon
p2504
I2367
sVgraphic
p2505
I4519
sVcar
p2506
I4520
sVprepar
p2507
I598
sVdmitri
p2508
I599
sVfocu
p2509
I6566
sVcat
p2510
I4523
sVdecker
p2511
I600
sVhardest
p2512
I4524
sVcan
p2513
I4525
sVcal
p2514
I4526
sVcab
p2515
I4527
sVheart
p2516
I4528
sVunderestim
p2517
I6567
sVgaston
p2518
I601
sVpuriti
p2519
I2579
sVchip
p2520
I602
sVdidn't
p2521
I603
sVtopic
p2522
I4529
sVspi
p2523
I2580
sVabort
p2524
I6568
sVchin
p2525
I604
sVo
p2526
I6011
sVoccur
p2527
I605
sVoccup
p2528
I606
sVmultipl
p2529
I607
sVchurchil
p2530
I6570
sVfreezer
p2531
I4533
sVeconomi
p2532
I608
sVwrite
p2533
I6571
sVproduct
p2534
I609
sVsuperintend
p2535
I6572
sVsuzett
p2536
I6573
sVdive
p2537
I6574
sVsweeney
p2538
I3842
sVsouthern
p2539
I6575
sVdrastic
p2540
I610
sVautom
p2541
I6365
sVgrandson
p2542
I611
sVfavorit
p2543
I4535
sVoffens
p2544
I2582
sVoffend
p2545
I2583
sVkurt
p2546
I612
sVbenni
p2547
I4536
sVmichel
p2548
I6576
sVbirdi
p2549
I2584
sVinfiltr
p2550
I613
sVapprov
p2551
I614
sVkafka
p2552
I6577
sVbrain
p2553
I615
sVcold
p2554
I2586
sVstill
p2555
I616
sVcola
p2556
I2588
sVethic
p2557
I2589
sVwillow
p2558
I4537
sVwindow
p2559
I2591
sVcurli
p2560
I6578
sVmediocr
p2561
I4538
sVnon
p2562
I617
sVrecal
p2563
I2592
sVfling
p2564
I4532
sVnod
p2565
I619
sVjame
p2566
I6897
sVhalf
p2567
I2593
sVnot
p2568
I620
sVnow
p2569
I621
sVhall
p2570
I2594
sVnor
p2571
I622
sVintroduct
p2572
I623
sVservant
p2573
I2595
sVdrop
p2574
I624
sVmagazin
p2575
I625
sVh
p2576
I6367
sVjanuari
p2577
I4539
sVcourag
p2578
I4540
sVem
p2579
I2596
sVel
p2580
I2597
sVen
p2581
I2598
sVeh
p2582
I2599
sVreplac
p2583
I626
sVkane
p2584
I6581
sVwrestl
p2585
I2601
sVex
p2586
I2602
sVyear
p2587
I628
sVresourc
p2588
I1049
sVhappen
p2589
I4541
sVcar'
p2590
I4542
sVes
p2591
I2604
sVer
p2592
I2605
sValbum
p2593
I4543
sVshown
p2594
I2606
sVaccomplish
p2595
I6582
sVspace
p2596
I2607
sVthirst
p2597
I630
sVironi
p2598
I4545
sVshithead
p2599
I6583
sVundead
p2600
I6584
sVcarv
p2601
I4546
sVargu
p2602
I4547
sVcart
p2603
I4548
sVrebel
p2604
I2609
sVcarl
p2605
I4549
sVohio
p2606
I429
sVjerry'
p2607
I2610
sVcard
p2608
I4550
sVcare
p2609
I4551
sVcouldn
p2610
I6586
sVcoulda
p2611
I19
sVbritish
p2612
I4552
sVhonest
p2613
I6587
sVlookin'
p2614
I4553
sVlindsey
p2615
I2611
sVprofess
p2616
I4554
sVsupport
p2617
I4005
sVblind
p2618
I631
sV'er
p2619
I2612
sVdirectli
p2620
I4555
sVblink
p2621
I632
sVring
p2622
I633
sVdrove
p2623
I4556
sVtomorrow
p2624
I634
sV'em
p2625
I2613
sVsize
p2626
I2614
sVsheep
p2627
I2615
sVsheer
p2628
I2616
sVsheet
p2629
I2617
sVchristma
p2630
I4557
sVcaught
p2631
I635
sVbreed
p2632
I2619
sVcarson
p2633
I4558
sVsilenc
p2634
I2620
sVtragic
p2635
I4559
sVbreez
p2636
I2621
sVdesmond
p2637
I4560
sVfriend
p2638
I2622
sVcourier
p2639
I2623
sVespeci
p2640
I4561
sVpittsburgh
p2641
I636
sVmostli
p2642
I2624
sVpeck
p2643
I2625
sVthan
p2644
I6592
sVrecruit
p2645
I637
sVoptimist
p2646
I2626
sVfork
p2647
I3053
sVdelic
p2648
I4562
sVangel
p2649
I2627
sVcraig
p2650
I6593
sVpremier
p2651
I6594
sVanywher
p2652
I6595
sVslap
p2653
I4563
sVslam
p2654
I4564
sVtrevor
p2655
I7668
sVdeliv
p2656
I4565
sVanger
p2657
I2628
sVrooki
p2658
I2629
sVbreakfast
p2659
I2630
sVengin
p2660
I2631
sVveteran
p2661
I2632
sVdeuc
p2662
I4566
sVberni
p2663
I2633
sVsatellit
p2664
I638
sVbegin
p2665
I6596
sVprick
p2666
I4568
sVprice
p2667
I4569
sVphaser
p2668
I7349
sVamerica
p2669
I4004
sVrescu
p2670
I4570
sVegg
p2671
I6663
sVtooth
p2672
I6597
sVmeanwhil
p2673
I639
sVsunset
p2674
I114
sVabraham
p2675
I2635
sVsteadi
p2676
I640
sVboundari
p2677
I1356
sVgerman
p2678
I4572
sVfletcher
p2679
I6598
sVhandwrit
p2680
I2636
sVfifth
p2681
I4573
sVground
p2682
I2637
sVonli
p2683
I4575
sVsnack
p2684
I641
sVadolf
p2685
I642
sVstair
p2686
I643
sVdon't
p2687
I7669
sVsierra
p2688
I140
sVstain
p2689
I644
sVpumpkin
p2690
I645
sVcannon
p2691
I4577
sVsamuel
p2692
I6600
sVloath
p2693
I4578
sVcannot
p2694
I4579
sV'til
p2695
I646
sVstroll
p2696
I647
sVtruli
p2697
I4580
sVeverything'l
p2698
I2638
sVleather
p2699
I6601
sVcallin'
p2700
I7344
sVseldom
p2701
I2639
sVhostil
p2702
I6602
sVamanda
p2703
I4581
sVhusband
p2704
I2640
sVdaddi
p2705
I3060
sVconcert
p2706
I2641
sVburst
p2707
I648
sVmonkeybon
p2708
I4582
sVerot
p2709
I6665
sVasleep
p2710
I4583
sVsooz
p2711
I6028
sVsport
p2712
I4584
sVconcern
p2713
I2642
sVwillard
p2714
I2643
sVestat
p2715
I177
sVbetween
p2716
I4585
sVimport
p2717
I649
sVblame
p2718
I4586
sVmonk
p2719
I4587
sVpropaganda
p2720
I6341
sVparalyz
p2721
I6729
sVdispatch
p2722
I2645
sVjeann
p2723
I650
sVexploit
p2724
I651
sVcouldn't
p2725
I6605
sVdamag
p2726
I652
sVclaric
p2727
I890
sVharmless
p2728
I7673
sVwladek
p2729
I6369
sVtoss
p2730
I6998
sVmonsieur
p2731
I653
sVrubi
p2732
I4588
sVkrono
p2733
I654
sVaviat
p2734
I6606
sVapiec
p2735
I655
sVbetcha
p2736
I2646
sVthesi
p2737
I4590
sVthese
p2738
I4591
sVsenat
p2739
I6608
sVchinatown
p2740
I4592
sVtrick
p2741
I4593
sVsophi
p2742
I4594
sVscum
p2743
I656
sVsusi
p2744
I6609
sVsoil
p2745
I2647
sVhenc
p2746
I2648
sVworri
p2747
I255
sVgloriou
p2748
I4595
sVbuljanoff
p2749
I2649
sVstewardess
p2750
I658
sVmarti
p2751
I434
sVinquiri
p2752
I4154
sVetc
p2753
I6371
sVil
p2754
I3030
sVmedia
p2755
I2651
sVmedic
p2756
I2652
sVgentlemen
p2757
I6611
sVfood
p2758
I2716
sVpoetic
p2759
I6612
sVsentenc
p2760
I6667
sVdocument
p2761
I2653
sVmedit
p2762
I2654
sVfinish
p2763
I2655
sVclosest
p2764
I4597
sVarctic
p2765
I660
sVsomeon
p2766
I279
sVfruit
p2767
I2656
sVtheater
p2768
I284
sVbrill
p2769
I6424
sVpaden
p2770
I4598
sVwessex
p2771
I4178
sVtaxi
p2772
I661
sVvenu
p2773
I7356
sVstaircas
p2774
I4599
sVgraciou
p2775
I4600
sVlistenin'
p2776
I4601
sVtouch
p2777
I2657
sVtobi
p2778
I4602
sVversu
p2779
I662
sVdeath
p2780
I663
sVeurop
p2781
I664
sVsheldon
p2782
I2659
sVsenseless
p2783
I6613
sVidentif
p2784
I2660
sVtreatment
p2785
I2661
sVirrespons
p2786
I318
sVbaloney
p2787
I6614
sVstruck
p2788
I2662
sVmalcolm
p2789
I6615
sVami
p2790
I4207
sVspectacular
p2791
I4603
sVread
p2792
I2664
sVruler
p2793
I4604
sVspecimen
p2794
I2665
sVladi
p2795
I2666
sVgonna
p2796
I666
sVstunt
p2797
I667
sVreynard
p2798
I4605
sVrebecca
p2799
I4606
sVrear
p2800
I2668
sVpostcard
p2801
I2669
sVbenefit
p2802
I6620
sVt
p2803
I4607
sVwhatcha
p2804
I6621
sVverbal
p2805
I668
sV's
p2806
I4009
sVsling
p2807
I7001
sVputter
p2808
I2670
sVsquirt
p2809
I6622
sVwheat
p2810
I4609
sVsixti
p2811
I670
sVsixth
p2812
I671
sVstarship
p2813
I4611
sVthrow
p2814
I4612
sVcomparison
p2815
I6623
sVcontagi
p2816
I672
sVwolv
p2817
I4613
sVtestimoni
p2818
I6624
sVchop
p2819
I2673
sVdegre
p2820
I2674
sVjourney
p2821
I1040
sVwolf
p2822
I4614
sVisn't
p2823
I673
sVchow
p2824
I388
sVunderwat
p2825
I2676
sVassassin
p2826
I6626
sVbackup
p2827
I674
sVheater
p2828
I2677
sVanomali
p2829
I1361
sVnurs
p2830
I6627
sVtryin'
p2831
I2678
sVyour
p2832
I6628
sVstare
p2833
I675
sVlog
p2834
I4618
sVarea
p2835
I6629
sVstarl
p2836
I676
sVloi
p2837
I4619
sVstark
p2838
I677
sVstart
p2839
I678
sVfascin
p2840
I2679
sVstarv
p2841
I679
sVlow
p2842
I4620
sVlot
p2843
I4621
sVlou
p2844
I4622
sVyou'
p2845
I6630
sVpitcher
p2846
I681
sVfreddi
p2847
I682
sVhire
p2848
I2680
sVfraud
p2849
I683
sVbucket
p2850
I2681
sVmutil
p2851
I6631
sV600
p2852
I684
sVfugit
p2853
I685
sVnerv
p2854
I2682
sVquantum
p2855
I6670
sVantenna
p2856
I2683
sVunidentifi
p2857
I6321
sVthat
p2858
I6591
sVvalid
p2859
I6633
sVyou
p2860
I6634
sVjuic
p2861
I4623
sVpoor
p2862
I686
sVpolar
p2863
I2684
sVpoop
p2864
I687
sVdrift
p2865
I4624
sVcocksuck
p2866
I688
sVpoof
p2867
I689
sVpeak
p2868
I4625
sVpooh
p2869
I690
sVpeac
p2870
I4626
sVpool
p2871
I691
sVreduc
p2872
I6635
sVphilosoph
p2873
I6636
sVyo'
p2874
I6637
sVmoonlight
p2875
I693
sVinevit
p2876
I694
sVrepay
p2877
I6638
sVcorey
p2878
I695
sVsybok
p2879
I1364
sVskeleton
p2880
I4627
sVmessi
p2881
I6639
sVmonth
p2882
I4388
sVanybody'
p2883
I2687
sVcameron
p2884
I4628
sVcarpet
p2885
I480
sVcorps
p2886
I698
sVarticl
p2887
I6640
sVfoster
p2888
I4629
sVfountain
p2889
I6673
sVvers
p2890
I2688
sVmasquerad
p2891
I701
sVhorror
p2892
I702
sVmph
p2893
I2689
sVvera
p2894
I2690
sVtomorrow'
p2895
I6641
sVmechan
p2896
I703
sVverg
p2897
I2691
sVfrankenstein
p2898
I4631
sVparri
p2899
I502
sVheaven
p2900
I6642
sVlouis
p2901
I4632
sVpunish
p2902
I6805
sVanal
p2903
I704
sVdimens
p2904
I705
sVorgasm
p2905
I706
sVfiber
p2906
I7678
sVmarvosa
p2907
I4633
sVcasual
p2908
I6645
sVdunn
p2909
I707
sVbomber
p2910
I7007
sVrooney
p2911
I6297
sVshould'v
p2912
I708
sVjedi
p2913
I2694
sVdeborah
p2914
I4634
sVessenc
p2915
I710
sVcannib
p2916
I6647
sVpacif
p2917
I711
sVtramel
p2918
I4635
sVdecid
p2919
I4015
sVexcess
p2920
I713
sViraq
p2921
I4636
sVarena
p2922
I714
sVtraumat
p2923
I2696
sVahead
p2924
I2697
sVcathi
p2925
I4472
sVvegetarian
p2926
I4637
sVwhine
p2927
I4638
sVhunseck
p2928
I4474
sVsoldier
p2929
I2698
sVamount
p2930
I6649
sVbase
p2931
I715
sVgear
p2932
I7333
sVreal
p2933
I2663
sVcreepi
p2934
I6650
sVmedicin
p2935
I2699
sVthatcher
p2936
I4639
sVglitch
p2937
I4640
sVfamili
p2938
I4641
sVellsberg
p2939
I1694
sVaggress
p2940
I6651
sVkhan
p2941
I4492
sV0
p2942
I6652
sVinjuri
p2943
I564
sValmost
p2944
I717
sVmassag
p2945
I2700
sVbash
p2946
I718
sVtaken
p2947
I4642
sV'round
p2948
I7679
sVtumbl
p2949
I4643
sVhurri
p2950
I2701
sVpreciou
p2951
I2702
sVbroke
p2952
I2703
sVgrill
p2953
I719
sVdaisi
p2954
I6675
sVhistori
p2955
I4644
sVnine
p2956
I2704
sVcasanova
p2957
I720
sVpusher
p2958
I2705
sVnippl
p2959
I6657
sVphrase
p2960
I721
sVanoth
p2961
I723
sVwarhead
p2962
I2706
sVreject
p2963
I725
sVfu
p2964
I2707
sVrude
p2965
I6659
sVrudi
p2966
I6660
sVsneak
p2967
I4645
sVterrorist
p2968
I6378
sVembrac
p2969
I2708
sVdaddy'
p2970
I2709
sVa
p2971
I6661
sVstabil
p2972
I4647
sVlifetim
p2973
I6677
sVovernight
p2974
I2710
sVego
p2975
I6662
sVdread
p2976
I4648
sVharry'
p2977
I2711
sVdream
p2978
I4649
sVding
p2979
I5690
sVhelp
p2980
I4651
sVreservoir
p2981
I6664
sVsoon
p2982
I4652
sVheld
p2983
I4653
sVhelm
p2984
I4654
sVhell
p2985
I4655
sVobscen
p2986
I727
sVpicard
p2987
I728
sVlightn
p2988
I6890
sVstensland
p2989
I4589
sVdelici
p2990
I729
sVhaven't
p2991
I730
sVfiner
p2992
I2714
sVfool
p2993
I2715
sVyo
p2994
I4657
sVya
p2995
I4658
sVmusket
p2996
I731
sVsssh
p2997
I6668
sVye
p2998
I4659
sVvomit
p2999
I4660
sVfoot
p3000
I2717
sVyu
p3001
I4661
sVfairi
p3002
I732
sVradiat
p3003
I733
sVbless
p3004
I734
sVfulla
p3005
I2718
sVfulli
p3006
I2720
sVtrailer
p3007
I2721
sVneil
p3008
I2722
sVrestless
p3009
I4617
sVanarchi
p3010
I735
sVdemocrat
p3011
I4995
sVheavi
p3012
I736
sVtodd
p3013
I6669
sVwacko
p3014
I2723
sVbeyond
p3015
I6671
sVevent
p3016
I6672
sVsafeti
p3017
I737
sVmarcia
p3018
I738
sVrobert
p3019
I696
sVpublish
p3020
I4662
sVsustain
p3021
I700
sV7
p3022
I739
sVmarseil
p3023
I4663
sVtestifi
p3024
I740
sVjolli
p3025
I741
sVass
p3026
I2816
sVbald
p3027
I2394
sVbass
p3028
I5000
sVdirt
p3029
I2725
sVpud
p3030
I709
sVpub
p3031
I712
sVreason
p3032
I4664
sVheroin
p3033
I2726
sVput
p3034
I2727
sVash
p3035
I2728
sVpup
p3036
I2729
sVheroic
p3037
I2730
sVbasi
p3038
I2731
sVlaunch
p3039
I4665
sVveloc
p3040
I742
sVrevolutionari
p3041
I722
sVamerican
p3042
I743
sVheartbeat
p3043
I6676
sVblush
p3044
I4666
sVassign
p3045
I4667
sVgrime
p3046
I5696
sVobviou
p3047
I4656
sVelder
p3048
I2733
sVriver
p3049
I6225
sVmiss
p3050
I6678
sVeddi
p3051
I2735
sVquestionnair
p3052
I6679
sVdeanna
p3053
I2736
sVstation
p3054
I4668
sVfingernail
p3055
I2032
sVscheme
p3056
I4670
sVbanana
p3057
I4671
sVbehind
p3058
I3154
sVnorma
p3059
I4672
sVasshol
p3060
I4673
sVtrapper
p3061
I4681
sVjordan
p3062
I753
sVgrew
p3063
I744
sVgrey
p3064
I745
sVstu
p3065
I759
sVgroceri
p3066
I760
sVgreg
p3067
I746
sVkindli
p3068
I2738
sVtoward
p3069
I747
sViniti
p3070
I7060
sVmickey
p3071
I4674
sVcomrad
p3072
I6682
sVmorgu
p3073
I4716
sVjuici
p3074
I2739
sVkarl
p3075
I778
sVlid
p3076
I6683
sVimagin
p3077
I4675
sVlib
p3078
I6685
sVcave
p3079
I749
sVscotland
p3080
I6686
sVlit
p3081
I6688
sVlip
p3082
I6689
sVuseless
p3083
I6690
sVliz
p3084
I6691
sVeater
p3085
I2740
sVinterpol
p3086
I7368
sVm'sieu
p3087
I4676
sVmace
p3088
I4677
sVpatchett
p3089
I750
sVawright
p3090
I2741
sVeaten
p3091
I2742
sVkat
p3092
I4678
sVsuitcas
p3093
I751
sVkay
p3094
I4679
sVmack
p3095
I4680
sVclear
p3096
I6693
sVsalari
p3097
I2743
sVtongu
p3098
I752
sVusual
p3099
I3429
sVblend
p3100
I2744
sVawesom
p3101
I2745
sVcowgirl
p3102
I2746
sVhumil
p3103
I4683
sVstalker
p3104
I4750
sVrandi
p3105
I4684
sVpretti
p3106
I2747
sVduncan
p3107
I4686
sVparanoid
p3108
I4687
sVscooter
p3109
I4688
sVless
p3110
I6386
sVparanoia
p3111
I4689
sVsuspect
p3112
I6695
sVinciner
p3113
I6696
sVheaven'
p3114
I754
sVnativ
p3115
I6697
sVcuervo
p3116
I6698
sVbasement
p3117
I6699
sVrocco
p3118
I4690
sVchimney
p3119
I4778
sVcatcher
p3120
I4691
sVstargher
p3121
I2748
sVantiqu
p3122
I6700
sVswitzerland
p3123
I2749
sVx
p3124
I6702
sVsuperstiti
p3125
I3743
sVcramp
p3126
I846
sVchrissak
p3127
I755
sVdelus
p3128
I756
sVshuttl
p3129
I7372
sVclose
p3130
I757
sVwhatsoev
p3131
I758
sVbride
p3132
I6680
sVwow
p3133
I2751
sVgrandmoth
p3134
I6703
sVparticip
p3135
I6704
sVwop
p3136
I2752
sVwon
p3137
I2753
sVguardian
p3138
I7022
sVarchitect
p3139
I5702
sVpiss
p3140
I2755
sVcatalogu
p3141
I2756
sVdalla
p3142
I4692
sVnumer
p3143
I4693
sVisol
p3144
I6705
sVwyatt
p3145
I770
sVspray
p3146
I761
sVdistinguish
p3147
I4694
sVnervou
p3148
I6706
sVboth
p3149
I6707
sVgarrison
p3150
I4695
sVfiance
p3151
I6708
sVkeaton
p3152
I2757
sVsollozzo
p3153
I763
sVbuzz
p3154
I2758
sVvault
p3155
I765
sVprotector
p3156
I4696
sVjeff
p3157
I4698
sVcaravaggio
p3158
I3083
sVbatteri
p3159
I2760
sVi'11
p3160
I4700
sVbridg
p3161
I6681
sVdeceiv
p3162
I3084
sVforgiv
p3163
I2761
sVstamp
p3164
I4702
sVdamp
p3165
I4703
sVterritori
p3166
I6710
sVempti
p3167
I766
sVnewcom
p3168
I4704
sVdamn
p3169
I4705
sVthreaten
p3170
I767
sVdame
p3171
I4706
sVanthoni
p3172
I2763
sVinvis
p3173
I5002
sVjesuit
p3174
I2764
sVimag
p3175
I6712
sVwet
p3176
I454
sVcoordin
p3177
I4707
sVpartli
p3178
I2766
sVliver
p3179
I768
sVpact
p3180
I769
sVlook
p3181
I4708
sVcanadian
p3182
I7026
sVgovernor
p3183
I2768
sVrope
p3184
I4709
sVpace
p3185
I771
sVwhile
p3186
I6713
sVsmart
p3187
I1858
sVshift
p3188
I5004
sVfleet
p3189
I6714
sVloot
p3190
I4710
sVleland
p3191
I2769
sVloos
p3192
I4864
sVloop
p3193
I4711
sVpack
p3194
I773
sVgimm
p3195
I6716
sVreadi
p3196
I4712
sVpetal
p3197
I774
sVhoax
p3198
I4713
sVbuckaroo
p3199
I4714
sVmalloy
p3200
I4715
sVnull
p3201
I748
sVshaw
p3202
I2770
sVgrant
p3203
I775
sVbelong
p3204
I2771
sValbani
p3205
I776
sVgrang
p3206
I777
sVshag
p3207
I2772
sVgrand
p3208
I779
sVconflict
p3209
I4717
sVhallway
p3210
I6718
sVmaneuv
p3211
I780
sVoptic
p3212
I957
sVdime
p3213
I2773
sVblair
p3214
I781
sV000
p3215
I782
sVtemporari
p3216
I2774
sVuser
p3217
I2775
sVblain
p3218
I784
sVolder
p3219
I4718
sVhaul
p3220
I6392
sVgrind
p3221
I2777
sVdiscipl
p3222
I6719
sVfive
p3223
I6393
sVcoup
p3224
I2973
sVcocki
p3225
I4719
sVnavi
p3226
I4897
sVvietnames
p3227
I785
sVbaptiz
p3228
I4720
sVlove
p3229
I2036
sVmarqui
p3230
I4722
sVtick
p3231
I457
sVnikki
p3232
I786
sVjerom
p3233
I787
sVcemeteri
p3234
I992
sVmarco
p3235
I2778
sVmarch
p3236
I2779
sVmarci
p3237
I2780
sVmolecul
p3238
I6721
sVgame
p3239
I4961
sVwiser
p3240
I4724
sVmarcu
p3241
I2781
sVcharacterist
p3242
I2782
sVrufu
p3243
I788
sVmcgann
p3244
I4968
sVsignal
p3245
I2783
sVresolv
p3246
I4725
sVmanifest
p3247
I6722
sVdonna
p3248
I2784
sVpopular
p3249
I789
sVcruis
p3250
I2785
sVdonni
p3251
I2786
sVsketch
p3252
I790
sVeatin'
p3253
I1025
sVcreation
p3254
I2787
sVsome
p3255
I6723
sVlingeri
p3256
I4726
sVurgent
p3257
I6725
sVmmmmm
p3258
I6726
sVmustang
p3259
I2788
sVsyndrom
p3260
I4727
sVchocol
p3261
I2789
sVdull
p3262
I5082
sVdebri
p3263
I4728
sVslash
p3264
I2790
sVeccentr
p3265
I7027
sVfoley
p3266
I6727
sVnelli
p3267
I4729
sVrun
p3268
I2791
sVrum
p3269
I2792
sVrub
p3270
I2793
sVrug
p3271
I2794
sVsacrif
p3272
I4730
sVstep
p3273
I4731
sVstew
p3274
I4732
sVwaterg
p3275
I7300
sVfather'
p3276
I6728
sVshine
p3277
I4733
sVfaith
p3278
I2795
sVdeceas
p3279
I2796
sVshini
p3280
I4734
sVperk
p3281
I2797
sVblock
p3282
I6731
sVdude
p3283
I5011
sVwithin
p3284
I4735
sVcarlton
p3285
I6732
sValpha
p3286
I6692
sVbarreng
p3287
I2798
sVpentagon
p3288
I6733
sVinstitut
p3289
I794
sVi'mma
p3290
I6734
sVwynant
p3291
I795
sVseein'
p3292
I2799
sVhimself
p3293
I2800
sVreveng
p3294
I7386
sVfrost
p3295
I6735
sVreed
p3296
I6736
sVreef
p3297
I6737
sVbranch
p3298
I7868
sVrussian
p3299
I2801
sVreek
p3300
I6738
sVreel
p3301
I6739
sVspecialti
p3302
I4737
sVinfo
p3303
I1121
sVskull
p3304
I6740
sVtransmitt
p3305
I6741
sVwe'r
p3306
I5943
sVsimilar
p3307
I799
sVdoesn
p3308
I2802
sVlectur
p3309
I4738
sVeverybody'
p3310
I4739
sVwillet
p3311
I2803
sVpsychopath
p3312
I4740
sVkidney
p3313
I4741
sVcotton
p3314
I2804
sVnag
p3315
I6743
sVgoddamit
p3316
I800
sVpronounc
p3317
I6744
sVtitl
p3318
I2805
sVnah
p3319
I6745
sVnam
p3320
I6746
sVnap
p3321
I6747
sVnaw
p3322
I6748
sVnay
p3323
I1155
sVmanhattan
p3324
I801
sVslick
p3325
I7618
sVdraw
p3326
I6749
sVgekko
p3327
I6750
sVclean
p3328
I6694
sVevas
p3329
I2806
sVresign
p3330
I6752
sVwilliam
p3331
I6753
sVdrag
p3332
I6754
sVevan
p3333
I2807
sVswede
p3334
I6755
sVe
p3335
I802
sVorbit
p3336
I803
sVshe'd
p3337
I2808
sVdepth
p3338
I2809
sVbribe
p3339
I804
sVgu
p3340
I2810
sVgt
p3341
I2811
sVhildi
p3342
I2812
sVmerced
p3343
I2813
sVga
p3344
I2814
sVtellin'
p3345
I805
sVpsycho
p3346
I4743
sVkate
p3347
I4744
sVhampshir
p3348
I806
sVbaron
p3349
I2817
sVwizard
p3350
I2818
sVfriendli
p3351
I807
sVshack
p3352
I4745
sVairplan
p3353
I2819
sVsausag
p3354
I808
sVnichola
p3355
I6756
sVwave
p3356
I809
sVcellular
p3357
I4746
sV'cuz
p3358
I1209
sVkitti
p3359
I2821
sVstiff
p3360
I6757
sVbutton
p3361
I6758
sVmichael
p3362
I810
sVappropri
p3363
I3279
sVryan
p3364
I811
sVverdict
p3365
I6759
sVbarbara
p3366
I4747
sVcarter
p3367
I6760
sVpicket
p3368
I4748
sVpornographi
p3369
I4749
sVze
p3370
I5203
sVsoul
p3371
I7036
sVjump
p3372
I812
sVannihil
p3373
I6761
sVstuff'
p3374
I7383
sVbooth
p3375
I4752
sVgo
p3376
I2815
sVdownload
p3377
I2823
sVcartel
p3378
I1229
sVclick
p3379
I2824
sVclich
p3380
I2825
sVpoke
p3381
I4753
sVsoup
p3382
I7038
sVcolonel
p3383
I4754
sVworthi
p3384
I3439
sVvalet
p3385
I2826
sVcell
p3386
I6762
sVrotten
p3387
I2827
sVexperiment
p3388
I2828
sV;
p3389
I2829
sVquell
p3390
I4756
sVweirdo
p3391
I6763
sV'bye
p3392
I2830
sVbecom
p3393
I813
sVconvert
p3394
I814
sVnorthern
p3395
I4685
sVtoast
p3396
I7280
sVgent
p3397
I816
sVvacat
p3398
I817
sVhost
p3399
I7385
sVkalen
p3400
I4757
sVweren't
p3401
I6764
sVchang
p3402
I4758
sVgene
p3403
I818
sVchanc
p3404
I4759
sVwig
p3405
I4760
sVclark
p3406
I819
sVclaim
p3407
I2831
sVpitch
p3408
I6827
sVwin
p3409
I4761
sVstayin'
p3410
I7040
sVaustria
p3411
I6766
sVwit
p3412
I4762
sVfeller
p3413
I4763
sVsicili
p3414
I2832
sVcloud
p3415
I2833
sVfabul
p3416
I3096
sVcrap
p3417
I4764
sVsnoop
p3418
I1276
sVhudson
p3419
I4765
sVimplic
p3420
I4766
sVedna
p3421
I5014
sVcamera
p3422
I820
sVcrab
p3423
I4767
sVcram
p3424
I4768
sVjonathan
p3425
I4769
sVfridg
p3426
I822
sVcosmo
p3427
I4770
sVwhiski
p3428
I6768
sVnarcot
p3429
I7441
sVstarter
p3430
I4771
sVretriev
p3431
I6769
sVmeek
p3432
I823
sVridg
p3433
I6771
sVride
p3434
I6772
sV'co
p3435
I824
sVdonut
p3436
I2834
sVarcher
p3437
I2835
sVmeet
p3438
I825
sVcontrol
p3439
I6773
sVmillionair
p3440
I826
sVhalloween
p3441
I1310
sVcalcul
p3442
I6775
sVkenni
p3443
I6776
sVglade
p3444
I7388
sVsought
p3445
I827
sVskirt
p3446
I4772
sVorson
p3447
I829
sVvibe
p3448
I2836
sVgeorg
p3449
I4773
sVdissolv
p3450
I830
sVpoetri
p3451
I2837
sVfare
p3452
I831
sVpink
p3453
I3099
sVfarm
p3454
I832
sViren
p3455
I5330
sVfart
p3456
I834
sVtomb
p3457
I1388
sVmasturb
p3458
I2839
sVscoop
p3459
I835
sVungrat
p3460
I4774
sVcattl
p3461
I4775
sVlongest
p3462
I7703
sVsperm
p3463
I6779
sVwon't
p3464
I6780
sVmassey
p3465
I6781
sVblake
p3466
I2840
sVouter
p3467
I4776
sVguerrilla
p3468
I4777
sVbrook
p3469
I6783
sVbanquet
p3470
I7704
sVyoungster
p3471
I2841
sVpure
p3472
I2842
sVhandl
p3473
I4779
sVauto
p3474
I2843
sVsweeti
p3475
I6785
sVhandi
p3476
I4780
sVtribun
p3477
I5366
sVfront
p3478
I6786
sVsomewher
p3479
I2844
sVslide
p3480
I836
sVmode
p3481
I2845
sVmerl
p3482
I6398
sVbooz
p3483
I7864
sVbaxter
p3484
I1389
sVbourgeoi
p3485
I7197
sVawhil
p3486
I3443
sVchunk
p3487
I2846
sVsandi
p3488
I2847
sVspecial
p3489
I837
sVbutch
p3490
I838
sVneedn't
p3491
I5391
sVconfess
p3492
I4781
sVdischarg
p3493
I840
sVsecretli
p3494
I2849
sVhardwar
p3495
I2850
sVwick
p3496
I2851
sVtime'
p3497
I842
sVricki
p3498
I2852
sVumbrella
p3499
I6788
sVundi
p3500
I6789
sVfilthi
p3501
I4783
sVmanipul
p3502
I6790
sVundo
p3503
I6791
sVjill
p3504
I843
sVadvisor
p3505
I2853
sVprincess
p3506
I6792
sVetern
p3507
I2854
sVask
p3508
I716
sVmac
p3509
I5020
sVtimer
p3510
I844
sVkeep
p3511
I2855
sVkeen
p3512
I2856
sVshred
p3513
I4784
sVcurti
p3514
I5713
sVaustin
p3515
I2857
sVlord'
p3516
I5021
sVairborn
p3517
I845
sVchristoph
p3518
I2858
sVqualiti
p3519
I6796
sVseventeen
p3520
I2750
sVbastaldi
p3521
I4785
sVcardiac
p3522
I6040
sVbitch
p3523
I847
sVstump
p3524
I7706
sVhorseman
p3525
I6800
sVfella
p3526
I2859
sVreman
p3527
I4786
sVperfectli
p3528
I4787
sVattach
p3529
I2860
sVattack
p3530
I2861
sVprivaci
p3531
I6801
sVaccessori
p3532
I7050
sVfinal
p3533
I6802
sVtownsend
p3534
I6803
sVbeard
p3535
I6804
sVnyah
p3536
I4788
sVviktor
p3537
I4789
sVfuzzi
p3538
I2862
sVhassl
p3539
I7394
sVtissu
p3540
I849
sVthat'll
p3541
I6806
sVexactli
p3542
I6807
sVherself
p3543
I2863
sVphotograph
p3544
I2864
sVben
p3545
I2865
sVrendezv
p3546
I4790
sVhanukkah
p3547
I3110
sVbeg
p3548
I2866
sVbed
p3549
I2867
sVbee
p3550
I2868
sVfirework
p3551
I6808
sVbare
p3552
I7708
sVbet
p3553
I2869
sVexhibit
p3554
I2870
sVfunction
p3555
I6810
sVjulian
p3556
I5460
sVtorment
p3557
I2871
sVsundown
p3558
I6811
sVtabl
p3559
I1493
sVneed
p3560
I1494
sVborder
p3561
I2872
sVscrew
p3562
I2608
sVbastard
p3563
I850
sVtactic
p3564
I6812
sVtruck
p3565
I6045
sVdetector
p3566
I4793
sVbrand
p3567
I7396
sVsingl
p3568
I6813
sVhappi
p3569
I2007
sVradioact
p3570
I851
sVdeploy
p3571
I4794
sVcamper
p3572
I5477
sVgalleri
p3573
I852
sVdiscov
p3574
I853
sVarcad
p3575
I6814
sVmontana
p3576
I2873
sVstereo
p3577
I1525
sVurg
p3578
I854
sVeject
p3579
I2874
sVupset
p3580
I6816
sVinde
p3581
I855
sVbusinessman
p3582
I2875
sVskunk
p3583
I856
sVindi
p3584
I857
sVaffair
p3585
I2876
sVparker
p3586
I2877
sVindoor
p3587
I6818
sVcrate
p3588
I4795
sVanyway
p3589
I2878
sVmolest
p3590
I6819
sVschwartz
p3591
I5032
sVtire
p3592
I4796
sVworley
p3593
I2879
sVwinner
p3594
I6820
sVforev
p3595
I4797
sVrash
p3596
I4798
sVmanufactur
p3597
I6822
sVhector
p3598
I5510
sVenvi
p3599
I2880
sVethan
p3600
I2881
sVfuel
p3601
I2882
sVmichigan
p3602
I1562
sVjoint
p3603
I6823
sVbuyer
p3604
I6824
sVendless
p3605
I4799
sVgray
p3606
I4800
sVextract
p3607
I6925
sVshu
p3608
I2883
sVtobacco
p3609
I859
sVsha
p3610
I2884
sVshe
p3611
I2885
sVseiz
p3612
I1395
sVshh
p3613
I2886
sVshi
p3614
I2887
sVgrab
p3615
I4801
sVpreach
p3616
I2888
sVlegaci
p3617
I2889
sVfuner
p3618
I2890
sVterrain
p3619
I4802
sVlatin
p3620
I5715
sVpowder
p3621
I6830
sVpeterson
p3622
I6831
sVstatu
p3623
I6832
sVcorrectli
p3624
I2891
sVtend
p3625
I861
sVwritten
p3626
I2892
sVluc
p3627
I2893
sVlug
p3628
I2894
sVtens
p3629
I862
sVlui
p3630
I2895
sVneither
p3631
I2896
sVsold
p3632
I7193
sVtent
p3633
I863
sVken
p3634
I864
sVmerri
p3635
I865
sVkey
p3636
I866
sVthank
p3637
I7056
sVcareer
p3638
I6834
sVkincaid
p3639
I4803
sVmarsh'
p3640
I2897
sVadmir
p3641
I4805
sVboatwright
p3642
I4370
sVjersey
p3643
I2898
sVtorn
p3644
I4040
sVtuesday
p3645
I867
sVgitt
p3646
I868
sVkeitel
p3647
I4806
sVsmokin'
p3648
I869
sVjohana
p3649
I6835
sV'till
p3650
I2899
sVwigand
p3651
I2900
sVquit
p3652
I4807
sVslowli
p3653
I4808
sVtread
p3654
I6837
sVsara
p3655
I4809
sVsarg
p3656
I5627
sVcent
p3657
I870
sVwilli
p3658
I4810
sVquid
p3659
I4811
sVyah
p3660
I4812
sVgarter
p3661
I7403
sVpoet
p3662
I6839
sVnicolet
p3663
I2901
sVdure
p3664
I7404
sVoti
p3665
I6840
sVvinci
p3666
I4813
sVmaxwel
p3667
I2902
sVking'
p3668
I4814
sVdisney
p3669
I3470
sVhamburg
p3670
I6842
sVfurnitur
p3671
I2903
sVreplic
p3672
I872
sVnovel
p3673
I2904
sVbahama
p3674
I2905
sVharder
p3675
I6843
sVchalk
p3676
I3241
sVya'
p3677
I4815
sVwouldn't
p3678
I762
sVengag
p3679
I2906
sVbuckl
p3680
I4816
sVevelyn
p3681
I873
sVneurot
p3682
I2907
sVreviv
p3683
I2908
sVwelcom
p3684
I875
sVparti
p3685
I876
sVballoon
p3686
I2558
sVgrusinskaya
p3687
I4817
sVfinanci
p3688
I3117
sVunderground
p3689
I4818
sVstrangl
p3690
I4819
sVoona
p3691
I4820
sVkiller
p3692
I3118
sVfireman
p3693
I6846
sVabsorb
p3694
I2910
sVinterrog
p3695
I6847
sVforgotten
p3696
I764
sVankl
p3697
I6849
sVpowwow
p3698
I878
sVkrueger
p3699
I5035
sVmagician
p3700
I4822
sVbarnhardt
p3701
I4823
sVmordechai
p3702
I5697
sVpaycheck
p3703
I2911
sVcarniv
p3704
I7716
sVashley
p3705
I879
sVi
p3706
I2912
sVwell
p3707
I4824
sVgrenad
p3708
I880
sVrifl
p3709
I881
sVguidanc
p3710
I1401
sVtaller
p3711
I2914
sVdistanc
p3712
I5710
sV42
p3713
I882
sVmistaken
p3714
I4825
sVdose
p3715
I4826
sVdistant
p3716
I883
sVvirtual
p3717
I3456
sVlaurel
p3718
I6851
sVskill
p3719
I1715
sVlauren
p3720
I6852
sVketchup
p3721
I6054
sVtitti
p3722
I6853
sVcrocodil
p3723
I5723
sVought
p3724
I772
sVwarrant
p3725
I2915
sVgestapo
p3726
I2916
sVfate
p3727
I2917
sVutah
p3728
I6854
sVburden
p3729
I6855
sVcrusher
p3730
I6856
sVloss
p3731
I884
sVsissi
p3732
I2918
sVlost
p3733
I886
sVclown
p3734
I4827
sVroth
p3735
I887
sVnecessari
p3736
I888
sVlose
p3737
I889
sVcandl
p3738
I2919
sVpage
p3739
I4828
sVcandi
p3740
I2920
sVshed
p3741
I6858
sVrevers
p3742
I2059
sVsheriff'
p3743
I4829
sVhush
p3744
I4830
sVvessel
p3745
I4699
sVcontin
p3746
I1750
sVwarmer
p3747
I6859
sVshep
p3748
I6860
sVtrucker
p3749
I892
sVannett
p3750
I2922
sVhome
p3751
I893
sVpeter
p3752
I4831
sVlibrari
p3753
I894
sVwendi
p3754
I895
sVbroad
p3755
I896
sVestim
p3756
I6861
sV?
p3757
I4832
sVshe'
p3758
I1768
sVencourag
p3759
I2923
sVjournal
p3760
I4833
sVparasit
p3761
I897
sVinstinct
p3762
I6863
sVbrodi
p3763
I2061
sVfreedom
p3764
I4834
sVnightclub
p3765
I5785
sVkarla
p3766
I2762
sVoverlook
p3767
I7718
sVcarolyn
p3768
I898
sVglenn
p3769
I4835
sVtortur
p3770
I899
sVwashington
p3771
I4836
sVcocoa
p3772
I900
sVpointless
p3773
I901
sVadrenalin
p3774
I6864
sVmississippi
p3775
I2925
sVmuseum
p3776
I6865
sVwimp
p3777
I4838
sVwhoo
p3778
I7720
sVinner
p3779
I2926
sVjinx
p3780
I2927
sVwilliamson
p3781
I6866
sVnorth
p3782
I902
sVagre
p3783
I6867
sVneutral
p3784
I4839
sVhi
p3785
I2928
sVho
p3786
I2929
sVpentang
p3787
I6868
sVwhistl
p3788
I2930
sVtechnician
p3789
I6869
sVmargi
p3790
I6870
sVeas
p3791
I4840
sVha
p3792
I2931
sVeat
p3793
I4842
sVhe
p3794
I2932
sVcruel
p3795
I6874
sVlimit
p3796
I2933
sVindefinit
p3797
I4843
sVwalter
p3798
I6711
sVdisplay
p3799
I906
sVevalu
p3800
I907
sVfriend'
p3801
I4844
sVbalconi
p3802
I2934
sVerin
p3803
I4845
sVerik
p3804
I4846
sVpenni
p3805
I6876
sVeric
p3806
I4847
sVdiego
p3807
I4848
sVcrummi
p3808
I2937
sVcontest
p3809
I6877
sVcavalri
p3810
I6878
sVfutur
p3811
I6879
sVmeteor
p3812
I2938
sVfinch
p3813
I908
sVlestat
p3814
I2939
sVjosephin
p3815
I4849
sVstay
p3816
I910
sVstag
p3817
I911
sVkittridg
p3818
I2102
sVdyle
p3819
I4850
sVdewey
p3820
I4851
sVappoint
p3821
I2940
sVspectacl
p3822
I914
sVmassacr
p3823
I2941
sVamp
p3824
I6258
sVportion
p3825
I6880
sVdecemb
p3826
I6881
sVsimpson
p3827
I4852
sVpardon
p3828
I4853
sVprotest
p3829
I2943
sVasian
p3830
I4854
sVdynamit
p3831
I2944
sVschmuck
p3832
I915
sVwhose
p3833
I4855
sVaccus
p3834
I2945
sVaccur
p3835
I2946
sVsorri
p3836
I916
sVswan
p3837
I917
sVsweetest
p3838
I6883
sVswat
p3839
I918
sVswap
p3840
I919
sVsway
p3841
I920
sVlonesom
p3842
I921
sVcaffein
p3843
I4856
sVvoid
p3844
I922
sVdutch
p3845
I5041
sVvoic
p3846
I923
sVvase
p3847
I4857
sVtoday'
p3848
I6884
sVsmack
p3849
I4858
sVstolen
p3850
I7723
sVgovern
p3851
I4859
sVaffect
p3852
I2947
sVvast
p3853
I4860
sVpilgrim
p3854
I2767
sVmontoya
p3855
I7065
sVherbert
p3856
I925
sVfalco
p3857
I926
sVwidow
p3858
I860
sVmansion
p3859
I4383
sVcrave
p3860
I6886
sVmama'
p3861
I2948
sVkidnap
p3862
I927
sVillumin
p3863
I928
sVeven
p3864
I6888
sVneo
p3865
I2950
sVnel
p3866
I2951
sVwreck
p3867
I4861
sVneg
p3868
I2952
sVned
p3869
I1952
sVasid
p3870
I6889
sVjaeger
p3871
I2954
sVasia
p3872
I6891
sVwhadda
p3873
I929
sVnew
p3874
I1959
sVnet
p3875
I2956
sVever
p3876
I1467
sVmed
p3877
I930
sVelimin
p3878
I2957
sVparents'
p3879
I6893
sVmel
p3880
I931
sVdeadbeat
p3881
I6894
sVmen
p3882
I932
sVdrew
p3883
I2959
sVmet
p3884
I933
sVpedro
p3885
I4384
sV100
p3886
I4863
sVaren't
p3887
I6895
sVinterpret
p3888
I1979
sVluther
p3889
I6896
sVcindi
p3890
I2960
sVseduc
p3891
I5167
sVdri
p3892
I4865
sVcredit
p3893
I4866
sVharass
p3894
I4867
sVpermit
p3895
I6898
sVcalifornia
p3896
I7067
sVjami
p3897
I6899
sVcounti
p3898
I2961
sVaveng
p3899
I4868
sVnineti
p3900
I4869
sVvolunt
p3901
I6901
sVhunch
p3902
I2962
sVcampaign
p3903
I6902
sVbayonet
p3904
I6903
sVavenu
p3905
I4870
sVmoral
p3906
I6904
sVwar'
p3907
I4871
sVmovie'
p3908
I934
sVhelmuth
p3909
I4872
sVedward
p3910
I6415
sVcall
p3911
I2010
sVcalm
p3912
I2011
sVrecommend
p3913
I2963
sVsutphin
p3914
I935
sVtype
p3915
I2014
sVtell
p3916
I2965
sVcalf
p3917
I6906
sVchevi
p3918
I6059
sVpuls
p3919
I6907
sVoscar
p3920
I4873
sVfunki
p3921
I1093
sVwarp
p3922
I4874
sVwarn
p3923
I4875
sVberlin
p3924
I936
sVwarm
p3925
I4876
sVgrandfath
p3926
I2966
sVadult
p3927
I4877
sVward
p3928
I4878
sVroom
p3929
I937
sVkraut
p3930
I4879
sVquaid
p3931
I3773
sVsetup
p3932
I4880
sVmajesty'
p3933
I4881
sVroof
p3934
I2644
sVwhack
p3935
I4386
sVroot
p3936
I6032
sVvodka
p3937
I6908
sVclimat
p3938
I938
sVgive
p3939
I2968
sVpunk
p3940
I6062
sVclimax
p3941
I939
sVhoney
p3942
I2043
sVgibarian
p3943
I4882
sVjoann
p3944
I4883
sVquot
p3945
I6910
sVpolic
p3946
I2969
sVconfin
p3947
I940
sVscrambl
p3948
I2970
sVanswer
p3949
I6911
sVnegoti
p3950
I2971
sVconfid
p3951
I941
sVcadillac
p3952
I6912
sVsubstanc
p3953
I2066
sVegon
p3954
I942
sVbecki
p3955
I4885
sVloyalti
p3956
I943
sVattempt
p3957
I4886
sVthird
p3958
I944
sVminim
p3959
I7732
sVmaintain
p3960
I6915
sVjanin
p3961
I2974
sVarous
p3962
I5394
sVdeck
p3963
I6916
sVmurray
p3964
I2975
sVmumbl
p3965
I947
sVhelena
p3966
I6917
sVmumbo
p3967
I948
sVprivileg
p3968
I6918
sVoswald
p3969
I4887
sVwindshield
p3970
I949
sVgentl
p3971
I950
sV,
p3972
I6919
sVcrew
p3973
I951
sVbetter
p3974
I6920
sVcarri
p3975
I2976
sVpersist
p3976
I4888
sVschmidt
p3977
I952
sVundress
p3978
I6724
sVanim
p3979
I953
sVtherapi
p3980
I4889
sVpromin
p3981
I954
sVpromis
p3982
I955
sVviciou
p3983
I6921
sVmeat
p3984
I4890
sVweek'
p3985
I4891
sVluca
p3986
I2978
sVroast
p3987
I4892
sVpoppi
p3988
I6420
sVwent
p3989
I6922
sVhigher
p3990
I1737
sVoblig
p3991
I6923
sVluci
p3992
I2979
sVmccord
p3993
I4894
sVluck
p3994
I2980
sVhitchhik
p3995
I4896
sVmediev
p3996
I2981
sVenorm
p3997
I2982
sVtaught
p3998
I2151
sVforgot
p3999
I956
sVrebutt
p4000
I4898
sVcollector
p4001
I2984
sVvelvet
p4002
I6154
sVcrucial
p4003
I4899
sVcontent
p4004
I2169
sVreader
p4005
I4900
sVcutest
p4006
I4901
sVsituat
p4007
I4902
sVmistress
p4008
I2985
sVwelfar
p4009
I4903
sVbarbecu
p4010
I7420
sVsunshin
p4011
I6181
sVlous
p4012
I2986
sVcosmic
p4013
I958
sVshush
p4014
I959
sVsteward
p4015
I2987
sVloui
p4016
I2988
sVisn
p4017
I2989
sVstartl
p4018
I6926
sVbetter'n
p4019
I6065
sV007
p4020
I783
sVloud
p4021
I2990
sVfuckin
p4022
I2991
sVstewart
p4023
I2992
sVplaywright
p4024
I2993
sVgradi
p4025
I6927
sVgrade
p4026
I6928
sVhoop
p4027
I2994
sVhoot
p4028
I2995
sVhook
p4029
I2996
sVunlik
p4030
I4904
sVnaughti
p4031
I4905
sVmassiv
p4032
I2997
sVhood
p4033
I2198
sVwherev
p4034
I467
sVacquaint
p4035
I960
sVsometim
p4036
I961
sVsatch
p4037
I7421
sVstarfleet
p4038
I6212
sVdwell
p4039
I4907
sVhollywood
p4040
I4908
sVgym
p4041
I4909
sVsomewhat
p4042
I6929
sVhelen
p4043
I4910
sVgambler
p4044
I4911
sVsymptom
p4045
I6931
sVpreacher
p4046
I4399
sVsilli
p4047
I6932
sVprinceton
p4048
I3000
sVbody'
p4049
I964
sVmatter
p4050
I2236
sVsolomon
p4051
I6933
sVanxieti
p4052
I6934
sVgirl'
p4053
I3001
sVmini
p4054
I4912
sVmink
p4055
I4913
sVabov
p4056
I7724
sVtelli
p4057
I965
sVmodern
p4058
I6242
sVmind
p4059
I4914
sVmine
p4060
I4915
sVginger
p4061
I966
sVseed
p4062
I4916
sVseen
p4063
I4917
sVseem
p4064
I4918
sVmint
p4065
I4919
sVminu
p4066
I4920
sValibi
p4067
I3002
sVchest
p4068
I2260
sVchess
p4069
I6935
sVsleeper
p4070
I967
sVmemo
p4071
I1104
sVcrippl
p4072
I3003
sVmarin
p4073
I6271
sVmario
p4074
I968
sVregular
p4075
I4921
sVprematur
p4076
I2281
sVmaria
p4077
I969
sVtradit
p4078
I3004
sVdon
p4079
I4922
sVdoo
p4080
I4923
sVdoc
p4081
I4924
sValarm
p4082
I4925
sVm
p4083
I4926
sVdog
p4084
I4927
sVdoe
p4085
I4928
sVscotch
p4086
I970
sVdot
p4087
I4929
sVkristen
p4088
I971
sVwearin'
p4089
I6936
sVashor
p4090
I6937
sVbeavi
p4091
I3005
sVhunger
p4092
I6291
sVrheya
p4093
I972
sVvisitor
p4094
I3006
sVprobe
p4095
I973
sVliza
p4096
I6938
sVnevada
p4097
I6939
sVdespit
p4098
I3007
sVnortheast
p4099
I974
sVacquir
p4100
I6940
sVdespis
p4101
I3008
sVpledg
p4102
I6941
sVexplain
p4103
I4930
sVsugar
p4104
I4931
sVgrissom
p4105
I6942
sVmonica
p4106
I4932
sVstop
p4107
I3009
sVcoast
p4108
I6322
sV12
p4109
I5059
sVwatermelon
p4110
I6326
sVmutual
p4111
I5886
sVparachut
p4112
I6943
sVearl
p4113
I975
sVearn
p4114
I976
sVbar
p4115
I6945
sVsacrific
p4116
I6947
sVtravi
p4117
I848
sVdisco
p4118
I4933
sVbag
p4119
I6949
sVbad
p4120
I6950
sVtroop
p4121
I977
sVban
p4122
I6951
sVbam
p4123
I6952
sVenchant
p4124
I978
sVbai
p4125
I6953
sVvampir
p4126
I4934
sVlampert
p4127
I4935
sVpickin'
p4128
I3010
sVjuliet
p4129
I4936
sVpete
p4130
I4937
sVsnuff
p4131
I3011
sV00
p4132
I4938
sVsaid
p4133
I6955
sVthere'd
p4134
I3012
sVduff
p4135
I2361
sVsorta
p4136
I3013
sVscrap
p4137
I3014
sVsail
p4138
I6956
sVthere'l
p4139
I3015
sVinfatu
p4140
I979
sVthere'r
p4141
I3016
sVthere'v
p4142
I3017
sVwarrior
p4143
I4939
sVdumber
p4144
I3018
sVvitamin
p4145
I6957
sVvernon
p4146
I980
sVharvard
p4147
I6958
sVcousin
p4148
I981
sVmotto
p4149
I982
sVweari
p4150
I983
sVagainst
p4151
I4941
sVunh
p4152
I4942
sVenzo
p4153
I6959
sVgwen
p4154
I3019
sVheight
p4155
I6395
sVlick
p4156
I1105
sVquinc
p4157
I984
sVliabil
p4158
I3020
sVsam
p4159
I6074
sVnow'
p4160
I6961
sVthree
p4161
I6962
sVerect
p4162
I4944
sVspecul
p4163
I6400
sVcommission
p4164
I985
sVtrigger
p4165
I986
sVtina
p4166
I987
sVbasic
p4167
I6405
sVbasil
p4168
I988
sVtini
p4169
I989
sVthrew
p4170
I6963
sVdeeper
p4171
I990
sVmushroom
p4172
I6964
sVsuppress
p4173
I4945
sVchum
p4174
I4946
sVargument
p4175
I4061
sVforens
p4176
I4403
sVugli
p4177
I6417
sVtank
p4178
I3022
sVaffirm
p4179
I6421
sVservic
p4180
I993
sVgasolin
p4181
I4947
sVsay
p4182
I6077
sVlizard
p4183
I3023
sVneat
p4184
I3024
sVsli
p4185
I6966
sVoccas
p4186
I4948
sVanchor
p4187
I3025
sVseven
p4188
I994
sVcane
p4189
I995
sVmexico
p4190
I6967
sVis
p4191
I2434
sVir
p4192
I3027
sVit
p4193
I2436
sVii
p4194
I3028
sVjess
p4195
I3029
sVclemenza
p4196
I4950
sVhalloran
p4197
I996
sVid
p4198
I3032
sVsever
p4199
I997
sVif
p4200
I3033
sVgrown
p4201
I6969
sVbelli
p4202
I4951
sVreceiv
p4203
I6971
sVmake
p4204
I4952
sVbella
p4205
I4953
sVelli
p4206
I998
sVkip
p4207
I6472
sVkit
p4208
I4954
sVdelight
p4209
I4955
sVgarlic
p4210
I4956
sVkin
p4211
I4957
sVkim
p4212
I4958
sVunicorn
p4213
I999
sVhe'll
p4214
I2474
sVi'
p4215
I3034
sVkid
p4216
I4959
sVbutter
p4217
I4960
sVsmokey
p4218
I6974
sVroommat
p4219
I4723
sVinherit
p4220
I1000
sVrome
p4221
I3035
sV800
p4222
I1001
sVleft
p4223
I6975
sVyeh
p4224
I1002
sVprotocol
p4225
I4962
sVjust
p4226
I6976
sVyea
p4227
I1003
sVnowaday
p4228
I4963
sVunfair
p4229
I6977
sVpsych
p4230
I3036
sVhuman
p4231
I4964
sVkinki
p4232
I1004
sVyep
p4233
I1005
sVyer
p4234
I1006
sVyet
p4235
I1007
sVlanguag
p4236
I4965
sVmetropoli
p4237
I1008
sVlegion
p4238
I4966
sVroyal
p4239
I1009
sVsensat
p4240
I3037
sVcompany'
p4241
I5402
sVwretch
p4242
I5070
sVsave
p4243
I1012
sVapplic
p4244
I4967
sVrosato
p4245
I1013
sVcoron
p4246
I3038
sVcouer
p4247
I3039
sVvanessa
p4248
I6978
sVvaniti
p4249
I6979
sVinterior
p4250
I6980
sVd'amour
p4251
I3040
sVdiscreet
p4252
I1014
sVjus'
p4253
I6981
sVbackground
p4254
I6982
sVelabor
p4255
I6983
sVdreamt
p4256
I4969
sVathlet
p4257
I6984
sVshoulder
p4258
I4970
sVnevermind
p4259
I3041
sVnude
p4260
I1015
sVmanual
p4261
I6985
sVdigniti
p4262
I4971
sVunnecessari
p4263
I4972
sVdean
p4264
I1016
sVdeal
p4265
I1017
sVdisord
p4266
I3042
sVdeaf
p4267
I1018
sVsomehow
p4268
I6531
sVdead
p4269
I1019
sVrevel
p4270
I6986
sVintern
p4271
I4973
sVdear
p4272
I1020
sVinterf
p4273
I4974
sVnormal
p4274
I3044
sVtracker
p4275
I3045
sVkobayashi
p4276
I4406
sVtraci
p4277
I7081
sVbookkeep
p4278
I4408
sVbold
p4279
I6987
sVinsecur
p4280
I1021
sVburn
p4281
I3046
sVburi
p4282
I3047
sVblackmail
p4283
I6988
sVburk
p4284
I3048
sVburt
p4285
I2572
sVfiremen
p4286
I3049
sVunreason
p4287
I1022
sVkeeper
p4288
I3051
sVsuper
p4289
I6990
sVfaeri
p4290
I4976
sVconceal
p4291
I4978
sVdoucet
p4292
I7208
sVsimul
p4293
I6992
sVafternoon
p4294
I1023
sVcommit
p4295
I2581
sV'im
p4296
I6993
sVmarshal
p4297
I4980
sVtelephon
p4298
I3052
sVdown
p4299
I1024
sVdowd
p4300
I1026
sVinsult
p4301
I6433
sVmicrowav
p4302
I1027
sVimit
p4303
I6994
sVeditor
p4304
I1028
sVstalk
p4305
I7687
sVjealousi
p4306
I1029
sVanalysi
p4307
I1030
sVbert
p4308
I6995
sVform
p4309
I3054
sVforc
p4310
I3055
sVbatman
p4311
I1031
sVforg
p4312
I3056
sVsurveil
p4313
I3057
sVford
p4314
I3058
sVwhat'
p4315
I4981
sVdiaper
p4316
I4982
sVmackelway
p4317
I4409
sVanalyst
p4318
I1032
sVfort
p4319
I3059
sVpragu
p4320
I6997
sVflyin'
p4321
I1033
sVwhiskey
p4322
I1034
sVunrel
p4323
I3061
sVtemper
p4324
I3062
sVfeatur
p4325
I4983
sVclassic
p4326
I3064
sVpetit
p4327
I1035
sVgraff
p4328
I1036
sVsale
p4329
I6089
sVgland
p4330
I4984
sVglanc
p4331
I4985
sVship
p4332
I3065
sVshit
p4333
I3066
sVvista
p4334
I6999
sVhappenin'
p4335
I1037
sVholli
p4336
I1038
sVexcel
p4337
I7000
sVmatur
p4338
I3067
sVgarland
p4339
I4986
sVhandicap
p4340
I1039
sVfelt
p4341
I3068
sVdiet
p4342
I3069
sVfell
p4343
I3070
sVaward
p4344
I4410
sVstoke
p4345
I7002
sVweekend
p4346
I1041
sVbillion
p4347
I3071
sVfemal
p4348
I4988
sVswayzak
p4349
I7171
sVpotato
p4350
I4989
sVjacket
p4351
I1042
sVgorilla
p4352
I4990
sVignor
p4353
I1043
sVteeth
p4354
I4991
sVdaili
p4355
I7003
sVfletch
p4356
I1044
sVskip
p4357
I3072
sVinvent
p4358
I3073
sVlaura
p4359
I3074
sVmile
p4360
I7004
sVskim
p4361
I3075
sVskin
p4362
I3076
sVlauri
p4363
I3077
sVmilo
p4364
I7005
sVmill
p4365
I7006
sVwomen'
p4366
I5737
sVmilk
p4367
I7008
sVdelmar
p4368
I7009
sVdepend
p4369
I4992
sVkiller'
p4370
I7082
sVfather
p4371
I1045
sViraqi
p4372
I1046
sVeditori
p4373
I3078
sVchequ
p4374
I6655
sVdaryl
p4375
I3079
sVappleton
p4376
I1735
sVme
p4377
I4993
sVstring
p4378
I3080
sVminist
p4379
I7011
sVlynch
p4380
I1047
sVma
p4381
I4994
sVwore
p4382
I6436
sVdil
p4383
I7012
sVdim
p4384
I7013
sVdid
p4385
I7014
sVdie
p4386
I2719
sVdig
p4387
I7015
sVarmitag
p4388
I2091
sVmagnet
p4389
I3081
sVitem
p4390
I4996
sVdiz
p4391
I7016
sVdip
p4392
I7017
sVround
p4393
I1048
sVit'll
p4394
I4997
sVshave
p4395
I2732
sVelse'
p4396
I2734
sVcamelot
p4397
I4998
sVasham
p4398
I1050
sVworn
p4399
I6440
sVpeddl
p4400
I7018
sVsordid
p4401
I6687
sVbuncha
p4402
I7019
sVfavour
p4403
I7020
sVrephras
p4404
I1051
sVseventh
p4405
I6057
sVpalmer
p4406
I7743
sVdwarf
p4407
I1052
sVtibet
p4408
I3082
sVbloke
p4409
I7021
sVdealin'
p4410
I1053
sVclerk
p4411
I7023
sVmakeup
p4412
I5001
sVfrench
p4413
I7024
sVchilton
p4414
I1054
sVslow
p4415
I6093
sVdeceit
p4416
I2759
sVcoincid
p4417
I1055
sVwait
p4418
I7025
sVbox
p4419
I1056
sVboy
p4420
I1057
sVinsan
p4421
I1058
sVinvit
p4422
I5003
sVcarmen
p4423
I5408
sVmerrick
p4424
I793
sVbow
p4425
I1059
sVbon
p4426
I1060
sVboo
p4427
I1061
sVextrem
p4428
I1062
sVbob
p4429
I1063
sVquarrel
p4430
I5006
sVhere'
p4431
I3085
sVelect
p4432
I5007
sVmodul
p4433
I3086
sVleav
p4434
I7850
sVtransplant
p4435
I1064
sVfranci
p4436
I7028
sVwealth
p4437
I5008
sVsake
p4438
I2013
sVsaddl
p4439
I7029
sVunivers
p4440
I5010
sVvisit
p4441
I1065
sVeverybodi
p4442
I7030
sVahhh
p4443
I1066
sVmakin'
p4444
I1067
sVaspirin
p4445
I5012
sVbennett
p4446
I7031
sVrorschach
p4447
I3087
sVooo
p4448
I3088
sVooh
p4449
I3089
sVdowntown
p4450
I7032
sVoop
p4451
I3090
sVexamin
p4452
I7033
sVeffort
p4453
I3091
sVooz
p4454
I3092
sVpageant
p4455
I3093
sVtokyo
p4456
I7034
sVflu
p4457
I7035
sVuniqu
p4458
I2822
sVfli
p4459
I7037
sVwallet
p4460
I3094
sVsour
p4461
I7039
sVnearest
p4462
I1068
sVexorc
p4463
I5013
sVfavourit
p4464
I7041
sVgenesi
p4465
I1069
sVguy'
p4466
I3097
sVreynold
p4467
I1070
sVwinston
p4468
I5015
sVfuck
p4469
I1071
sVagent
p4470
I7043
sVdrawer
p4471
I7044
sVcrazi
p4472
I3098
sVcouncil
p4473
I6774
sVagenc
p4474
I7045
sVclair
p4475
I7046
sVpurs
p4476
I2838
sVvariou
p4477
I3100
sVdistinctli
p4478
I3101
sVpenthous
p4479
I7047
sVpine
p4480
I3102
sVtill
p4481
I3103
sVsunday
p4482
I3104
sVsword
p4483
I3105
sVswore
p4484
I3106
sVsworn
p4485
I3107
sVpint
p4486
I3108
sVmap
p4487
I5016
sVmar
p4488
I5017
sVintrud
p4489
I7048
sVmay
p4490
I5018
sVmax
p4491
I5019
sVintrus
p4492
I7049
sVmembership
p4493
I1072
sVmankind
p4494
I3243
sVmai
p4495
I5022
sVmah
p4496
I6798
sVmam
p4497
I5024
sVgrow
p4498
I3109
sVman
p4499
I5025
sVneck
p4500
I5026
sVjohnson
p4501
I5027
sVrepuls
p4502
I1073
sVtale
p4503
I5028
sVswitch
p4504
I7052
sVjail
p4505
I3111
sVdeposit
p4506
I5029
sVafrican
p4507
I7053
sVbasket
p4508
I1075
sVtall
p4509
I5030
sVtalk
p4510
I6817
sVsaxophon
p4511
I3112
sVcute
p4512
I3113
sVshield
p4513
I5031
sVklute
p4514
I1076
sVgraduat
p4515
I7054
sVshake
p4516
I5033
sVirena
p4517
I7055
sVequip
p4518
I1077
sVentitl
p4519
I3114
sVreinforc
p4520
I3115
sVgroup
p4521
I1078
sVmonitor
p4522
I1079
sVpolici
p4523
I1080
sVattorney'
p4524
I5034
sVmaid
p4525
I7057
sVmail
p4526
I7058
sVmain
p4527
I7059
sVmorbid
p4528
I2442
sVtonic
p4529
I3116
sVbontec
p4530
I2909
sVautomobil
p4531
I1081
sVshatter
p4532
I1331
sVsooner
p4533
I3119
sVtucker
p4534
I1082
sVlunch
p4535
I1083
sVdisappoint
p4536
I6447
sVbullshit
p4537
I3120
sVteller
p4538
I1084
sVpossess
p4539
I7061
sVjason'
p4540
I3121
sVoliv
p4541
I7062
sVpregnanc
p4542
I7181
sVpeasant
p4543
I3122
sVcareless
p4544
I1085
sVmassachusett
p4545
I1086
sVbolshevik
p4546
I7063
sVrock
p4547
I5036
sVhijack
p4548
I5037
sVcontinu
p4549
I1087
sVunlock
p4550
I6873
sVgirl
p4551
I2936
sVgirlfriend'
p4552
I7747
sVagit
p4553
I3123
sVcanada
p4554
I5038
sVannounc
p4555
I5747
sVjackson
p4556
I5039
sVstitch
p4557
I1088
sVpriest
p4558
I4077
sVpamela
p4559
I1089
sVjake'
p4560
I3124
sVsensor
p4561
I5042
sVchines
p4562
I3125
sVromanc
p4563
I1090
sVdiseas
p4564
I5043
sVmonster
p4565
I2949
sVort
p4566
I5044
sVheadlin
p4567
I5045
sVzombi
p4568
I1091
sVromant
p4569
I1092
sVcough
p4570
I5046
sVkeith
p4571
I5047
sVswell
p4572
I6509
sVlivin'
p4573
I7068
sVunderwear
p4574
I3127
sVbadli
p4575
I5410
sVwaiter
p4576
I1094
sVfrequenc
p4577
I1095
sVthing
p4578
I5048
sVministri
p4579
I7069
sVloretta
p4580
I7070
sVprincipl
p4581
I1096
sVthink
p4582
I6914
sVfrequent
p4583
I1097
sVfirst
p4584
I1098
sVbob'
p4585
I1099
sVlone
p4586
I1744
sVrachel
p4587
I1100
sVcheesi
p4588
I5049
sVhousekeep
p4589
I1101
sVacquisit
p4590
I5050
sVfast
p4591
I7071
sVoppos
p4592
I3129
sVfiji
p4593
I3130
sVslept
p4594
I7072
sVfierc
p4595
I1102
sVambul
p4596
I3131
sVaverag
p4597
I6455
sVescort
p4598
I2998
sVpenelop
p4599
I5051
sVproposit
p4600
I5052
sVbobo
p4601
I1103
sVmoscow
p4602
I5053
sVundoubtedli
p4603
I7073
sVbroadcast
p4604
I5054
sVordel
p4605
I6456
sVbutt
p4606
I5055
sVkillin'
p4607
I3150
sV11
p4608
I5056
sV10
p4609
I5057
sV13
p4610
I5058
sVorgi
p4611
I3132
sV15
p4612
I5060
sV14
p4613
I5061
sV17
p4614
I5062
sV16
p4615
I5063
sV19
p4616
I5064
sV18
p4617
I5065
sVgotta
p4618
I3133
sVremors
p4619
I6046
sVwere
p4620
I3134
sVtractor
p4621
I3135
sVsean
p4622
I1129
sVcoconut
p4623
I3136
sVconspiraci
p4624
I3137
sVsulu
p4625
I3021
sVqueen'
p4626
I1106
sVtalia
p4627
I6965
sVmarijuana
p4628
I3138
sVdash
p4629
I7074
sVlarri
p4630
I5066
sVcomedian
p4631
I5067
sVportrait
p4632
I4792
sVnazi
p4633
I1107
sVkevin
p4634
I1108
sVsquat
p4635
I1109
sVcastor
p4636
I5068
sVsquar
p4637
I1110
sVadvic
p4638
I7075
sVallison
p4639
I5069
sVsquad
p4640
I1111
sVadvis
p4641
I7076
sVbailey
p4642
I267
sVchannel
p4643
I7078
sV200
p4644
I1112
sVpain
p4645
I3139
sVnorman
p4646
I7079
sVtrace
p4647
I7080
sVverona
p4648
I3140
sVtrack
p4649
I2686
sVfriedman
p4650
I5071
sVpaid
p4651
I3141
sVplagu
p4652
I1432
sVassault
p4653
I6991
sVnolan
p4654
I5072
sVchampagn
p4655
I3142
sVpair
p4656
I3143
sVbeth
p4657
I1114
sVcuban
p4658
I3144
sVpathet
p4659
I5073
sVnapkin
p4660
I3063
sVlenni
p4661
I1116
sVvoodoo
p4662
I1117
sVshop
p4663
I5074
sVshot
p4664
I5075
sVshow
p4665
I7010
sVtherapist
p4666
I7083
sVshoe
p4667
I5076
sVcorner
p4668
I5077
sVlabel
p4669
I1131
sVenthusiast
p4670
I1118
sVdice
p4671
I5078
sVfenc
p4672
I5079
sVtreasuri
p4673
I1119
sVdick
p4674
I5080
sVplumb
p4675
I5081
sVmornin'
p4676
I1120
sVblack
p4677
I3147
sVmuffin
p4678
I6460
sVpenguin
p4679
I5753
sVworryin'
p4680
I5083
sVbiff
p4681
I5564
sVnearli
p4682
I5084
sVhungarian
p4683
I3148
sVget
p4684
I1122
sVstomp
p4685
I1123
sVpredict
p4686
I7042
sVsecondari
p4687
I5085
sVgee
p4688
I1124
sVyield
p4689
I7087
sVstupid
p4690
I7088
sVnostril
p4691
I1125
sVlimousin
p4692
I3149
sVlondon
p4693
I5412
sVnicol
p4694
I7721
sVsear
p4695
I1126
sVmenac
p4696
I1127
sVseat
p4697
I1128
sVkyle
p4698
I7462
sVhonesti
p4699
I3151
sVseal
p4700
I1130
sVcalendar
p4701
I3152
sVwonder
p4702
I7077
sVinfinit
p4703
I5086
sVchewi
p4704
I3153
sVtennesse
p4705
I4423
sVenough
p4706
I1132
sVacross
p4707
I1133
sVaugust
p4708
I1134
sVparent
p4709
I7089
sVarlyn
p4710
I3155
sVju
p4711
I3156
sVugart
p4712
I5088
sVjo
p4713
I3157
sVje
p4714
I3158
sVtub
p4715
I3159
sVtimmi
p4716
I1135
sVmarlon
p4717
I1684
sVtuck
p4718
I5089
sVtour
p4719
I1136
sVelijah
p4720
I4650
sVimprov
p4721
I1137
sVtreadston
p4722
I3179
sVamong
p4723
I1138
sVacceler
p4724
I7091
sVcancer
p4725
I3161
sVgrasshopp
p4726
I5090
sVspank
p4727
I1139
sVcancel
p4728
I3163
sVmare
p4729
I7093
sVultim
p4730
I1140
sVmarg
p4731
I7094
sVsuicid
p4732
I3164
sVja
p4733
I3160
sVmart
p4734
I7097
sVworkshop
p4735
I5092
sVarti
p4736
I3165
sVbarri
p4737
I3166
sVcertifi
p4738
I3205
sVmarx
p4739
I7098
sVgraveyard
p4740
I3167
sVsquash
p4741
I1141
sVwake
p4742
I1142
sVparrish
p4743
I5093
sVrepres
p4744
I6742
sVthose
p4745
I3168
sVsound
p4746
I1143
sVimperi
p4747
I3223
sVhmmmm
p4748
I1144
sVmargin
p4749
I3170
sVadvantag
p4750
I1145
sVmarcel
p4751
I5094
sVdestin
p4752
I3171
sVstrain
p4753
I1146
sVrunnin'
p4754
I7099
sVsudden
p4755
I1147
sVoutrag
p4756
I1148
sVprotein
p4757
I1149
sVeveryday
p4758
I7100
sVpat
p4759
I7101
sVharsh
p4760
I7102
sVdoctor
p4761
I3257
sVpay
p4762
I7104
sVaudienc
p4763
I7090
sVsame
p4764
I3172
sVspeech
p4765
I5095
sVo'brien
p4766
I1150
sVcontain
p4767
I6825
sVpal
p4768
I7106
sVpam
p4769
I7107
sVpan
p4770
I7108
sVexhaust
p4771
I7109
sVjeffrey
p4772
I5096
sVoil
p4773
I5097
sVassist
p4774
I1151
sVcompanion
p4775
I1183
sVcapabl
p4776
I3173
sVdisguis
p4777
I3174
sVcommodu
p4778
I5098
sVpostpon
p4779
I3175
sVdrain
p4780
I3176
sVconor
p4781
I3177
sVsam'
p4782
I3178
sVroughli
p4783
I5099
sVoutdoor
p4784
I1152
sVdickson
p4785
I6468
sVexecut
p4786
I5100
sVmoney
p4787
I5101
sVaspect
p4788
I7111
sVflavor
p4789
I1153
sVparad
p4790
I7112
sVraini
p4791
I5759
sVpile
p4792
I5102
sV4
p4793
I3181
sVpill
p4794
I5103
sVgrip
p4795
I5104
sVjake
p4796
I5105
sVzulu
p4797
I1154
sVsecreci
p4798
I7114
sVwife'
p4799
I3306
sVmoi
p4800
I7116
sVtemperatur
p4801
I7117
sVgrid
p4802
I5107
sVcustodi
p4803
I3162
sVmom
p4804
I7119
sVmob
p4805
I7120
sVrailroad
p4806
I7121
sVluthor
p4807
I5108
sVgrin
p4808
I5109
sVrobberi
p4809
I3182
sVchamber
p4810
I3183
sVrepubl
p4811
I3184
sVnose
p4812
I3185
sVhallelujah
p4813
I5111
sVmasri
p4814
I1156
sVfulfil
p4815
I7123
sVafflict
p4816
I1157
sVwitchcraft
p4817
I3186
sVcornwal
p4818
I1158
sVtitan
p4819
I5113
sVjoan
p4820
I3187
sVgross
p4821
I3188
sVlotta
p4822
I1159
sVconfirm
p4823
I5114
sVdoggi
p4824
I7124
sVouta
p4825
I1160
sVlunat
p4826
I3189
sVinject
p4827
I3343
sVknife
p4828
I1161
sVclaudia
p4829
I7758
sVrekal
p4830
I1162
sVbroker
p4831
I3190
sVbroken
p4832
I3192
sVotho
p4833
I3193
sVopium
p4834
I3194
sVkillain
p4835
I3195
sVroar
p4836
I7125
sVisland
p4837
I3196
sVmantan
p4838
I3197
sVmixer
p4839
I5117
sVshuffleboard
p4840
I1163
sVroam
p4841
I7126
sVallianc
p4842
I3199
sVroad
p4843
I7127
sVcoupon
p4844
I1164
sVmari
p4845
I7095
sVempress
p4846
I7128
sVquietli
p4847
I7129
sVeinstein
p4848
I3200
sVuptown
p4849
I7130
sVmark
p4850
I7096
sVlando
p4851
I3201
sVhutton
p4852
I6114
sVtwombley
p4853
I3202
sVgravit
p4854
I7131
sVshelli
p4855
I5119
sVd'artagnan
p4856
I5120
sVdaytim
p4857
I7132
sVsunris
p4858
I3203
sVspice
p4859
I1165
sVstrawberri
p4860
I3204
sVpossibl
p4861
I5121
sVwasn't
p4862
I3206
sVreflex
p4863
I4083
sVunusu
p4864
I7133
sVcactu
p4865
I3207
sVdeer
p4866
I5122
sVcasualti
p4867
I1166
sVfellow
p4868
I7134
sVdeem
p4869
I5124
sVfile
p4870
I5125
sVcultur
p4871
I5126
sVgirlfriend
p4872
I3208
sVdeed
p4873
I5127
sVproport
p4874
I5128
sVfilm
p4875
I5129
sVfill
p4876
I5130
sVagain
p4877
I1167
sVmaggi
p4878
I6370
sVgoddam
p4879
I1168
sVpersonnel
p4880
I5132
sVbinocular
p4881
I3209
sVfield
p4882
I3210
sVastronaut
p4883
I7136
sVstartin'
p4884
I3211
sVbrandi
p4885
I3212
sVshelter
p4886
I3213
sVsequenc
p4887
I1169
sVintim
p4888
I345
sVhavana
p4889
I1170
sVvideotap
p4890
I5134
sVunload
p4891
I7138
sVdescript
p4892
I2422
sVsewer
p4893
I5135
sVu
p4894
I1171
sVcastl
p4895
I7139
sValright
p4896
I5136
sVescap
p4897
I5137
sVoral
p4898
I5138
sVmotel
p4899
I5416
sVdriver'
p4900
I5139
sVrepresent
p4901
I3214
sVtonsil
p4902
I5417
sVliar
p4903
I3215
sVforget
p4904
I7140
sVvile
p4905
I5140
sVsittin'
p4906
I1173
sVforbidden
p4907
I5141
sVdollar
p4908
I5142
sVemili
p4909
I7418
sVsunk
p4910
I5143
sVatlant
p4911
I7141
sVsemest
p4912
I5144
sVchildren
p4913
I7142
sVedg
p4914
I5766
sVmother'
p4915
I3216
sVgodfath
p4916
I3217
sVfals
p4917
I3218
sVkastl
p4918
I1174
sVscout
p4919
I3219
sVfall
p4920
I3220
sVpuffi
p4921
I1175
sVchekov
p4922
I1176
sVhooker
p4923
I4432
sVramel
p4924
I1177
sValien
p4925
I1761
sValma
p4926
I1179
sVdonovan
p4927
I1180
sVcorneliu
p4928
I3221
sVneighborhood
p4929
I7143
sVchrist'
p4930
I3222
sVburgel
p4931
I7144
sVstrung
p4932
I1181
sVzero
p4933
I1182
sVlawyer
p4934
I3224
sVfurther
p4935
I7146
sVribbon
p4936
I7147
sVexcit
p4937
I3225
sVdial
p4938
I3518
sVstood
p4939
I3226
sVmicrophon
p4940
I7149
sVstoog
p4941
I3227
sVskeptic
p4942
I7150
sVstool
p4943
I3228
sVpublic
p4944
I5145
sVmovement
p4945
I7152
sVgrunemann
p4946
I3229
sVc'mon
p4947
I1184
sVchristi
p4948
I3534
sVvariat
p4949
I5146
sVsophist
p4950
I3230
sVjonah
p4951
I3191
sVranger
p4952
I7153
sVbeacon
p4953
I3231
sVvalv
p4954
I3232
sVvalu
p4955
I3233
sVembezzl
p4956
I3234
sV900
p4957
I5147
sVmiseri
p4958
I1186
sValvi
p4959
I6730
sVcollater
p4960
I1187
sVstella
p4961
I3236
sVairport
p4962
I3237
sVnarrow
p4963
I3238
sVkringelein
p4964
I5148
sVdeclin
p4965
I5149
sVprimit
p4966
I3551
sVtransit
p4967
I3239
sVafrica
p4968
I1188
sVsadist
p4969
I3240
sVinappropri
p4970
I5150
sVrican
p4971
I5151
sVestablish
p4972
I3242
sVmemor
p4973
I7156
sVeye
p4974
I5152
sVrafe
p4975
I5153
sVliber
p4976
I5154
sVlady'
p4977
I1189
sVtackl
p4978
I1190
sVtwo
p4979
I5155
sVsplash
p4980
I5156
sVraft
p4981
I5157
sVdiamond
p4982
I7159
sVdesir
p4983
I1191
sVleonard
p4984
I5158
sVivi
p4985
I4084
sVain't
p4986
I7160
sVexpedit
p4987
I7161
sVparticular
p4988
I7162
sVmagnific
p4989
I5159
sVgold
p4990
I4180
sVnineteen
p4991
I7163
sVtown
p4992
I3244
sVdictat
p4993
I5160
sVnone
p4994
I3245
sVdrivin'
p4995
I7454
sVhour
p4996
I1192
sVhous
p4997
I7532
sVder
p4998
I3246
sVremain
p4999
I1193
sVdel
p5000
I3247
sVden
p5001
I3248
sVabandon
p5002
I5162
sVdea
p5003
I3249
sVdeb
p5004
I3250
sVsniper
p5005
I7755
sVdee
p5006
I3251
sVshari
p5007
I3595
sVstubborn
p5008
I1195
sVshark
p5009
I7165
sVshare
p5010
I3597
sVsphere
p5011
I5163
sVminimum
p5012
I1196
sVchimera
p5013
I7166
sVexplor
p5014
I1197
sVcomin'
p5015
I3591
sVsharp
p5016
I7167
sVrobinson
p5017
I1198
sV!
p5018
I5164
sVsiren
p5019
I7168
sVbat
p5020
I6944
sVawkward
p5021
I5165
sVsecur
p5022
I3253
sVcomfort
p5023
I1199
sVneedi
p5024
I1200
sVstir
p5025
I1201
sVplayin'
p5026
I5166
sVnumber'
p5027
I1203
sVsefton
p5028
I7170
sVambassador
p5029
I6720
sVblood
p5030
I3254
sVbloom
p5031
I3624
sVthat'd
p5032
I5168
sVcoat
p5033
I3256
sVpaw
p5034
I7103
sVspoon
p5035
I5770
sVdragon
p5036
I1204
sVbradi
p5037
I1206
sVtijuana
p5038
I2471
sVinfant
p5039
I7172
sVrotat
p5040
I1207
sVrand
p5041
I5423
sVradar
p5042
I5169
sVdough
p5043
I3258
sVsuffer
p5044
I5170
sV24
p5045
I5171
sV25
p5046
I5172
sV26
p5047
I5173
sV27
p5048
I5174
sV20
p5049
I5175
sV21
p5050
I5176
sV22
p5051
I5177
sV23
p5052
I5178
sV28
p5053
I5179
sVlate
p5054
I3259
sVedmund
p5055
I3260
sVpad
p5056
I7105
sVpeni
p5057
I3261
sVlookout
p5058
I7173
sVindepend
p5059
I6474
sVwalli
p5060
I3262
sVgoon
p5061
I7175
sVpollut
p5062
I5181
sVuhm
p5063
I3671
sVuhh
p5064
I3263
sVmoustach
p5065
I4087
sVgoos
p5066
I7176
sVcompound
p5067
I1210
sVdetach
p5068
I3264
sVcomplain
p5069
I5182
sVgoofi
p5070
I3265
sVpregnant
p5071
I7178
sVwallac
p5072
I7179
sVelectrocut
p5073
I7180
sVmysteri
p5074
I1211
sVeleanor
p5075
I5183
sVtoken
p5076
I3266
sVharm
p5077
I5184
sVmental
p5078
I6327
sVfish
p5079
I5185
sVhard
p5080
I5186
sVidea
p5081
I3267
sVfractur
p5082
I3268
sVprecog
p5083
I7183
sVkatrina
p5084
I1212
sVconnect
p5085
I7184
sVfist
p5086
I5187
sVenergi
p5087
I5188
sVorient
p5088
I5189
sVharp
p5089
I5190
sVflower
p5090
I7185
sVadmiss
p5091
I3269
sVsuprem
p5092
I5191
sVtrooper
p5093
I5192
sVpigeon
p5094
I3270
sVprinc
p5095
I5193
sVjimmy'
p5096
I5194
sVquinci
p5097
I7186
sVthey'll
p5098
I1215
sVprint
p5099
I5195
sVextraordinari
p5100
I1216
sVsuspici
p5101
I7188
sVcockroach
p5102
I1217
sVpleasant
p5103
I3271
sVsenor
p5104
I5196
sVbulli
p5105
I7189
sVgolli
p5106
I3272
sVperman
p5107
I7190
sVtaho
p5108
I1220
sVintimid
p5109
I3273
sVdoctor'
p5110
I5199
sVexchang
p5111
I1221
sVpop
p5112
I5583
sVsmaller
p5113
I5776
sVdone
p5114
I5200
sVstabl
p5115
I1222
sVwager
p5116
I3274
sVfamily'
p5117
I7191
sVrazor
p5118
I1223
sVleast
p5119
I5201
sVpaint
p5120
I3276
sVleash
p5121
I5202
sVstatement
p5122
I7192
sVmama
p5123
I3277
sVtwenti
p5124
I3278
sVpark
p5125
I5204
sVpari
p5126
I5205
sVdentist
p5127
I5206
sVpart
p5128
I5207
sVrogu
p5129
I1225
sVdon'
p5130
I5208
sVexposur
p5131
I1226
sVhearst
p5132
I2475
sVcontrari
p5133
I7194
sVgotten
p5134
I7195
sVyouth
p5135
I7196
sVm'hm
p5136
I1227
sVoutta
p5137
I3765
sVreunion
p5138
I1770
sVwilfr
p5139
I7198
sVsandro
p5140
I7696
sVmeltdown
p5141
I7199
sVmountain
p5142
I7200
sVbuilt
p5143
I7201
sVcouch
p5144
I1230
sVcaesar
p5145
I3282
sVbuild
p5146
I7202
sVshelbi
p5147
I7203
sVkendal
p5148
I1231
sVmose
p5149
I5209
sVdistribut
p5150
I5210
sVpreviou
p5151
I3786
sVchart
p5152
I1232
sVronni
p5153
I3283
sVmost
p5154
I5211
sVcharm
p5155
I1233
sVcharl
p5156
I1234
sVmoss
p5157
I5212
sVcharg
p5158
I1235
sVcompar
p5159
I1774
sVmooki
p5160
I7204
sVdancin'
p5161
I7205
sVweigh
p5162
I3284
sVsector
p5163
I5213
sVcommerc
p5164
I7206
sVsummer
p5165
I6120
sVfink
p5166
I7207
sVparticularli
p5167
I7209
sVfinn
p5168
I7210
sVfine
p5169
I7211
sVfind
p5170
I7212
sVgilli
p5171
I3806
sVgiant
p5172
I3810
sVmerger
p5173
I1237
sVruin
p5174
I5216
sVwoodli
p5175
I5217
sVfiend
p5176
I5218
sV8
p5177
I7768
sVruiz
p5178
I5220
sVluke
p5179
I3285
sVexpress
p5180
I1238
sVepidem
p5181
I7214
sVcheaper
p5182
I3286
sVbatter
p5183
I3833
sVbreast
p5184
I1239
sVtheft
p5185
I5222
sVsalut
p5186
I3287
sVsilk
p5187
I5223
sVuncomfort
p5188
I3288
sVcommon
p5189
I5224
sVhike
p5190
I7215
sVcommod
p5191
I5225
sVvinc
p5192
I7216
sVvine
p5193
I7217
sVlion
p5194
I5226
sVtender
p5195
I3289
sVreserv
p5196
I1240
sVexpert
p5197
I1241
sVsometh
p5198
I7218
sVmalkovich
p5199
I3290
sVdebat
p5200
I1242
sVsubscript
p5201
I1243
sVexperi
p5202
I1244
sValtern
p5203
I7219
sVbourn
p5204
I1245
sVappreci
p5205
I3291
sVdicki
p5206
I1246
sVmailbox
p5207
I1247
sVbarrack
p5208
I5228
sVaircraft
p5209
I7220
sVdevil'
p5210
I7221
sVike
p5211
I3292
sVpurpl
p5212
I3293
sVpopul
p5213
I5229
sVo'neil
p5214
I7222
sVannual
p5215
I7223
sValon
p5216
I3294
sVgrudg
p5217
I7224
sVforeign
p5218
I7826
sValot
p5219
I3295
sVgypsi
p5220
I1248
sVsimpli
p5221
I5230
sVelliot
p5222
I5231
sVpoint
p5223
I1249
sVpm
p5224
I6875
sVrae
p5225
I5232
sVsuppli
p5226
I3296
sVthroughout
p5227
I3297
sVcathedr
p5228
I1250
sVpocketbook
p5229
I5233
sVmikey
p5230
I7225
sVsecret
p5231
I3298
sVamnesia
p5232
I5234
sVcompuls
p5233
I5235
sVlaughin'
p5234
I7113
sVaddison
p5235
I3299
sVgay
p5236
I5236
sVgap
p5237
I7874
sVkathi
p5238
I3300
sVgal
p5239
I5237
sVunderstand
p5240
I3301
sVwhitney
p5241
I3302
sVgag
p5242
I5238
sVconvers
p5243
I815
sVfur
p5244
I3303
sVmetro
p5245
I7759
sVraoul
p5246
I5239
sVbill
p5247
I3911
sVmike'
p5248
I7228
sVfun
p5249
I3304
sVanonym
p5250
I1251
sVeveryon
p5251
I5240
sVprejudic
p5252
I5241
sVhusband'
p5253
I5242
sVitself
p5254
I7229
sVvirtu
p5255
I5243
sVdishonor
p5256
I5244
sVbutcher
p5257
I5245
sVitali
p5258
I7230
sVhow'
p5259
I3305
sVcorridor
p5260
I1253
sVruth
p5261
I7231
sVmemphi
p5262
I5246
sVmop
p5263
I7115
sVitch
p5264
I3307
sVleopard
p5265
I7232
sVyesterday
p5266
I7233
sVmoment
p5267
I3309
sVstripe
p5268
I1254
sVsignor
p5269
I1255
sVrecreat
p5270
I6483
sVtask
p5271
I1256
sVwerewolf
p5272
I7234
sVentri
p5273
I7235
sVchemistri
p5274
I3310
sVspent
p5275
I3311
sVwithdraw
p5276
I1257
sVswiss
p5277
I5247
sVtast
p5278
I1258
sVspend
p5279
I3313
sVhowl
p5280
I3314
sVmon
p5281
I7118
sVexplan
p5282
I3315
sVopenli
p5283
I5248
sVdarl
p5284
I4097
sVd'ya
p5285
I2480
sVshape
p5286
I1262
sVlebowski
p5287
I3316
sVwage
p5288
I5249
sVcut
p5289
I1263
sVcup
p5290
I1264
sVdanger
p5291
I6765
sVpersuad
p5292
I3318
sVegypt
p5293
I1784
sVcue
p5294
I1266
sVcub
p5295
I1267
sVsnap
p5296
I3979
sVcun
p5297
I1268
sVcum
p5298
I1269
sVeaster
p5299
I1270
sVbin
p5300
I7236
sVbio
p5301
I7237
sVsquawk
p5302
I5250
sVinsol
p5303
I7238
sVbig
p5304
I7239
sVbid
p5305
I7240
sVjudgement
p5306
I5251
sVcalloway
p5307
I260
sVbit
p5308
I7242
sVknock
p5309
I1272
sVsemi
p5310
I5252
sVglove
p5311
I3320
sVprincip
p5312
I3994
sVfoolish
p5313
I1273
sVdownstair
p5314
I5254
sVoften
p5315
I7243
sVdriscol
p5316
I6829
sVdeputi
p5317
I7765
sVback
p5318
I3322
sVimpeach
p5319
I3323
sVkopalski
p5320
I5255
sVmartial
p5321
I5256
sVstrongest
p5322
I7244
sVmirror
p5323
I5257
sVscale
p5324
I7245
sVpet
p5325
I3325
sVper
p5326
I3326
sVsubstitut
p5327
I5258
sVmathemat
p5328
I7246
sVlarg
p5329
I5259
sVjewelri
p5330
I5260
sVscalp
p5331
I7247
sVlark
p5332
I5261
sVpee
p5333
I3328
sVcarpent
p5334
I3329
sVpeg
p5335
I3330
sVpea
p5336
I3331
sVeither
p5337
I5110
sVpatient
p5338
I5262
sV300
p5339
I132
sVfed
p5340
I7248
sVpatienc
p5341
I5263
sVmetaphor
p5342
I6767
sVimpot
p5343
I7249
sVimpos
p5344
I7250
sVmorri
p5345
I7251
sVdrama
p5346
I7253
sVgoodi
p5347
I142
sVpredat
p5348
I145
sVboy'
p5349
I5264
sVnsa
p5350
I5265
sVjimmi
p5351
I5266
sVgrammi
p5352
I5267
sVsteven
p5353
I5268
sVlesson
p5354
I5269
sVjockey
p5355
I3333
sVcabl
p5356
I5112
sVdoll
p5357
I3334
sVerrand
p5358
I7254
sVhandbook
p5359
I7255
sVinclud
p5360
I4058
sVkirsti
p5361
I7256
sVforward
p5362
I3335
sVlotteri
p5363
I1789
sVboyd
p5364
I5270
sVlydia
p5365
I5271
sVtranslat
p5366
I7257
sVfrida
p5367
I821
sVmurphi
p5368
I1277
sVgroovi
p5369
I3336
sVjumbo
p5370
I5272
sVcurv
p5371
I1279
sVflop
p5372
I3521
sVconstant
p5373
I1280
sVcurs
p5374
I1281
sVmetal
p5375
I7472
sVcure
p5376
I193
sVcurb
p5377
I1282
sVcurl
p5378
I1283
sVcafe
p5379
I1284
sVprevail
p5380
I3337
sVmayfield
p5381
I2483
sVmothershead
p5382
I1285
sVkirk
p5383
I5273
sVellen
p5384
I1287
sVlena
p5385
I7259
sVcellar
p5386
I1288
sVutterli
p5387
I1289
sVlend
p5388
I7260
sVimpress
p5389
I7261
sVpapa
p5390
I7262
sVcater
p5391
I1290
sVlent
p5392
I7263
sVfisher
p5393
I3338
sVdesert
p5394
I7264
sVdeserv
p5395
I7265
sV2000
p5396
I7266
sVtreati
p5397
I3523
sVnoon
p5398
I6128
sVjason
p5399
I7267
sVrabbit
p5400
I7767
sVtoto
p5401
I1532
sVcynthia
p5402
I5275
sVpendergast
p5403
I3339
sVputtin'
p5404
I3340
sVliterari
p5405
I1291
sVjoe'
p5406
I7268
sVprivat
p5407
I7269
sVdenham
p5408
I5276
sVsensit
p5409
I3341
sVpeanut
p5410
I3342
sVelsewher
p5411
I1292
sVbecam
p5412
I4148
sVfatal
p5413
I7272
sVpassiv
p5414
I3344
sVqueen
p5415
I7475
sVdisclos
p5416
I1293
sVdessert
p5417
I1294
sVrhyme
p5418
I5277
sVmous
p5419
I7273
sVvolum
p5420
I3345
sVuntouch
p5421
I1295
sVsurgeon
p5422
I3346
sVsalad
p5423
I6770
sVknight
p5424
I3347
sVjoel
p5425
I7274
sVshock
p5426
I7275
sVgeograph
p5427
I7276
sVheadquart
p5428
I3348
sVjoey
p5429
I7277
sVother'
p5430
I7278
sVfortun
p5431
I3349
sVcrow
p5432
I3350
sVcrop
p5433
I4174
sVcarla
p5434
I6220
sVnephew
p5435
I6488
sVcarlo
p5436
I1296
sVmaud
p5437
I6646
sVresembl
p5438
I295
sVprofan
p5439
I3351
sVaccess
p5440
I1297
sVfurtw
p5441
I1298
sVpayday
p5442
I5278
sVimpuls
p5443
I3352
sVpeggi
p5444
I3353
sVperimet
p5445
I1300
sVgratitud
p5446
I5115
sVlovejoy
p5447
I1301
sVbodi
p5448
I4198
sVbachelor
p5449
I3354
sVintercept
p5450
I3355
sVcarl'
p5451
I1302
sVsink
p5452
I7281
sVsing
p5453
I3589
sVsafer
p5454
I1303
sVsinc
p5455
I7282
sVremark
p5456
I3356
sV38
p5457
I5279
sVtalent
p5458
I1304
sVgivin'
p5459
I3357
sV32
p5460
I5280
sV31
p5461
I5281
sV30
p5462
I5282
sValaska
p5463
I7283
sV35
p5464
I5283
sVresurrect
p5465
I3358
sVprob'li
p5466
I5284
sVearli
p5467
I6616
sVclimb
p5468
I327
sVhonor
p5469
I1306
sVlimp
p5470
I7284
sVfoundat
p5471
I5285
sVgordon
p5472
I5286
sVlimo
p5473
I7286
sVlimb
p5474
I4231
sVscandal
p5475
I7287
sVgateway
p5476
I5287
sVlime
p5477
I7288
sVwardrob
p5478
I5288
sVcha
p5479
I1307
sVfoolin'
p5480
I1308
sVtar
p5481
I7775
sVchi
p5482
I1309
sVasteroid
p5483
I5289
sVbutler
p5484
I342
sVname'
p5485
I4246
sVtrait
p5486
I5290
sVgladiat
p5487
I7289
sVtrail
p5488
I5291
sVtrain
p5489
I357
sVspitz
p5490
I4646
sVharvest
p5491
I3359
sVpresident'
p5492
I7290
sVfan
p5493
I7650
sVaccount
p5494
I5293
sValik
p5495
I5294
sVf
p5496
I5295
sVtunnel
p5497
I7291
sVgabriel
p5498
I7292
sValic
p5499
I5296
sVtag
p5500
I7777
sVobvious
p5501
I5297
sVsmear
p5502
I5116
sVfetch
p5503
I1311
sValiv
p5504
I5298
sVemploye
p5505
I7293
sVtab
p5506
I7778
sVluggag
p5507
I5299
sVdoneghi
p5508
I2294
sVserial
p5509
I7779
sVcontempt
p5510
I3360
sVeverywher
p5511
I5300
sVsurfac
p5512
I7296
sVlama
p5513
I5301
sVlame
p5514
I5302
sVlamp
p5515
I5303
sVforest
p5516
I394
sVdemocraci
p5517
I5304
sVaft
p5518
I3362
sVstock
p5519
I7297
sVfran
p5520
I3364
sVpayrol
p5521
I4301
sVbluff
p5522
I5305
sVphilosophi
p5523
I3365
sVphysic
p5524
I5306
sVdrape
p5525
I7301
sVbind
p5526
I5307
sVcorrespond
p5527
I7302
sVlinen
p5528
I7303
sVchief
p5529
I7304
sValtitud
p5530
I2953
sVdinner'
p5531
I7305
sVmainfram
p5532
I3366
sVimperson
p5533
I427
sVgalaxi
p5534
I1313
sVreport
p5535
I5451
sVcuttin'
p5536
I7306
sVgrendel
p5537
I1314
sVaustrian
p5538
I7307
sVbunch
p5539
I3369
sVle
p5540
I3370
sVrizzo
p5541
I1315
sVzavitz
p5542
I3372
sVlo
p5543
I3373
sVll
p5544
I3374
sVmichael'
p5545
I5309
sVli
p5546
I3375
sVlt
p5547
I3376
sVmarsh
p5548
I3377
sVdad
p5549
I7310
sVjunction
p5550
I7311
sVgreater
p5551
I5311
sVdam
p5552
I7312
sVdan
p5553
I7313
sVspell
p5554
I5312
sVdat
p5555
I7314
sVmention
p5556
I7315
sVcourtroom
p5557
I5313
sVday
p5558
I7316
sVthrill
p5559
I5314
sVhafta
p5560
I6777
sVfebruari
p5561
I5315
sVdrugstor
p5562
I1316
sVya'll
p5563
I464
sVmight'v
p5564
I6142
sVlie
p5565
I6684
sVintellig
p5566
I5317
sVstrip
p5567
I5118
sVsalesman
p5568
I5318
sVmatt
p5569
I5319
sVrep
p5570
I3379
sVcheeseburg
p5571
I3380
sVdefenc
p5572
I3381
sVrepress
p5573
I5320
sVmate
p5574
I5321
sVstuf
p5575
I5322
sVstud
p5576
I5323
sVunderstudi
p5577
I476
sVstun
p5578
I5325
sVdefens
p5579
I4391
sVred
p5580
I3383
sVclarifi
p5581
I1318
sVhostag
p5582
I6315
sVjessica
p5583
I5327
sVinsid
p5584
I1319
sVfrank
p5585
I3384
sVinvad
p5586
I482
sVfourteen
p5587
I1320
sVque
p5588
I1321
sVinvas
p5589
I5328
sVhow'r
p5590
I2144
sVafterward
p5591
I5329
sVronald
p5592
I833
sVsteak
p5593
I6491
sVyard
p5594
I1322
sVmidg
p5595
I7324
sVyarn
p5596
I1324
sVchicken
p5597
I7806
sVpresid
p5598
I1325
sVretain
p5599
I3386
sVretail
p5600
I3387
sVsouth
p5601
I4420
sVfinest
p5602
I3388
sVfranki
p5603
I7326
sVsack
p5604
I1326
sVphiladelphia
p5605
I6145
sVwhoop
p5606
I1327
sVpuppet
p5607
I7328
sVsacr
p5608
I1328
sVfacil
p5609
I3389
sVbijou
p5610
I1329
sVlove'
p5611
I7329
sVancient
p5612
I5331
sVmonkey
p5613
I3390
sVlaps
p5614
I7330
sVvulgar
p5615
I3391
sVmessag
p5616
I5332
sVmarylin
p5617
I6778
sVsadli
p5618
I7331
sVbaby'
p5619
I1330
sVchaser
p5620
I4440
sVnelson
p5621
I6157
sVhilari
p5622
I5333
sVcabin
p5623
I5334
sVfrank'
p5624
I1902
sVnegro
p5625
I7334
sVnobodi
p5626
I1332
sVnun
p5627
I5335
sVbodyguard
p5628
I1333
sVslack
p5629
I3393
sVstructur
p5630
I3394
sVcharact
p5631
I5336
sVlover
p5632
I7335
sVlovey
p5633
I7336
sVshakespear
p5634
I1334
sVtide
p5635
I3395
sVimmigr
p5636
I5337
sVhave
p5637
I1335
sVthroat
p5638
I1336
sVtidi
p5639
I3396
sVmid
p5640
I5338
sVmig
p5641
I5339
sVmix
p5642
I5340
sVmiz
p5643
I5341
sVindic
p5644
I6443
sVkoessler
p5645
I1337
sVgraviti
p5646
I3397
sVexpertis
p5647
I7481
sVsedat
p5648
I5342
sVunless
p5649
I4486
sVwhere'd
p5650
I5343
sVsalli
p5651
I5344
sVmortal
p5652
I500
sVfirefli
p5653
I3400
sVwhere'r
p5654
I5345
sVeight
p5655
I3401
sVwhere'v
p5656
I5346
sVhandbag
p5657
I3402
sVpayment
p5658
I570
sVskinni
p5659
I5347
sVgather
p5660
I7339
sVrequest
p5661
I5396
sVabsurd
p5662
I3403
sVoccasion
p5663
I1338
sVhardcor
p5664
I1339
sVcharley
p5665
I3404
sVhamlet
p5666
I1340
sVtraitor
p5667
I1341
sVclearanc
p5668
I1342
sVempir
p5669
I1343
sVtexa
p5670
I7341
sVstaff
p5671
I5349
sVbetsi
p5672
I1344
sVbicycl
p5673
I7342
sVmadman
p5674
I7343
sVhyster
p5675
I3405
sVsatan
p5676
I5350
sVcongratul
p5677
I6149
sVsparkl
p5678
I1347
sVcommunist
p5679
I1348
sVinferior
p5680
I5351
sVstarck
p5681
I1349
sVbeat
p5682
I4534
sVdisagre
p5683
I1350
sVrush
p5684
I219
sVbear
p5685
I7345
sVbeam
p5686
I7346
sVbean
p5687
I7347
sVincreas
p5688
I3406
sVlecter
p5689
I5352
sVorgan
p5690
I3407
sVintegr
p5691
I5353
sVgibson
p5692
I5354
sVkrypton
p5693
I3408
sVmadam
p5694
I3409
sVdillon
p5695
I3410
sVaccord
p5696
I2496
sVapolog
p5697
I7348
sVmalfunct
p5698
I1353
sVracket
p5699
I1354
sVinterview
p5700
I4412
sVreform
p5701
I1355
sVpattern
p5702
I5355
sVtakin'
p5703
I5356
sVralph
p5704
I5357
sVrowan
p5705
I7350
sVprogress
p5706
I7351
sVjanet
p5707
I7352
sVsorrow
p5708
I1357
sVselena
p5709
I7353
sVlegit
p5710
I3411
sVinstant
p5711
I3412
sVbuster
p5712
I3413
sVjoke
p5713
I1358
sVequal
p5714
I657
sVinstanc
p5715
I3414
sVequat
p5716
I1359
sVfreeli
p5717
I3415
sVswallow
p5718
I5358
sVhighland
p5719
I7355
sVbroom
p5720
I6782
sVcomment
p5721
I3416
sVvent
p5722
I7357
sVyuppi
p5723
I3417
sVcommend
p5724
I3418
sVlaugh
p5725
I4608
sVmafia
p5726
I7358
sVfright
p5727
I4117
sVcatherin
p5728
I5359
sVdarrel
p5729
I4615
sVlibbet
p5730
I680
sVelectr
p5731
I5360
sVcurtain
p5732
I5361
sVmuddi
p5733
I3419
sVit'd
p5734
I1362
sVaubrey
p5735
I3420
sVprotect
p5736
I3537
sVdeep
p5737
I5123
sVbull
p5738
I697
sVbulb
p5739
I5362
sVcaddi
p5740
I1365
sVnapoleon
p5741
I3421
sVhomer
p5742
I7359
sVbye
p5743
I7360
sVplain
p5744
I7361
sVdefin
p5745
I3422
sVscatter
p5746
I380
sVhowev
p5747
I7362
sVaw
p5748
I2163
sVviru
p5749
I3423
sVsquid
p5750
I1367
sVsister'
p5751
I1368
sVay
p5752
I2164
sVsubstanti
p5753
I3424
sVfiddl
p5754
I1369
sVpartner
p5755
I1370
sVinspector
p5756
I7363
sVlaplant
p5757
I5363
sVlawrenc
p5758
I7155
sVsquir
p5759
I724
sVhound
p5760
I7135
sVjapanes
p5761
I1371
sVtransvestit
p5762
I5364
sVmauric
p5763
I1372
sVhudsuck
p5764
I1373
sVtwelfth
p5765
I7364
sVprais
p5766
I1374
sVselfish
p5767
I5131
sVfucker
p5768
I7365
sVjudgment
p5769
I7366
sVairlock
p5770
I4669
sVretard
p5771
I3426
sVcenter
p5772
I3427
sVneural
p5773
I1375
sVnevertheless
p5774
I1376
sVweapon
p5775
I3428
sVseth
p5776
I7367
sVthought
p5777
I6176
sVchoos
p5778
I5365
sVstarboard
p5779
I1377
sVsoviet
p5780
I5367
sVlatest
p5781
I4682
sVunarm
p5782
I5368
sVfingerprint
p5783
I7369
sVclinic
p5784
I7370
sVfeminin
p5785
I7371
sVdakota
p5786
I3430
sVtough
p5787
I6499
sVhideou
p5788
I7373
sVflashlight
p5789
I1378
sVspear
p5790
I6500
sVthanksgiv
p5791
I3431
sVflee
p5792
I5805
sVlake
p5793
I7374
sVbench
p5794
I4701
sVadd
p5795
I5369
sVcitizen
p5796
I3432
sVohhh
p5797
I2514
sVravel
p5798
I3433
sVmatch
p5799
I5370
sVraven
p5800
I3434
sVroyalti
p5801
I7375
sVrealiz
p5802
I7376
sVrealis
p5803
I6376
sVinsert
p5804
I3436
sVlike
p5805
I1380
sVsuccess
p5806
I1381
sVsofa
p5807
I7377
sVatho
p5808
I5371
sVjournalist
p5809
I7378
sVmustach
p5810
I3437
sVchick
p5811
I1382
sVconrad
p5812
I5372
sVsoft
p5813
I7379
sVheel
p5814
I7380
sVitalian
p5815
I5373
sVstuffi
p5816
I7381
sVhail
p5817
I1383
sVhair
p5818
I798
sVconvey
p5819
I7382
sVproper
p5820
I5374
sVest
p5821
I3438
sVa'
p5822
I5375
sVhippi
p5823
I7086
sVforbid
p5824
I7763
sVtrap
p5825
I7787
sVpepper
p5826
I5376
sVhose
p5827
I4751
sVslight
p5828
I4755
sVnoisi
p5829
I7384
sVlugosi
p5830
I5377
sVuptight
p5831
I1385
sVdegener
p5832
I6502
sValthough
p5833
I5378
sVvengeanc
p5834
I3440
sVpanel
p5835
I5459
sVabout
p5836
I5379
sVactual
p5837
I5380
sVjustin
p5838
I1386
sVjustic
p5839
I1387
sValbanian
p5840
I7387
sVflake
p5841
I3442
sVcertainti
p5842
I5381
sVdesper
p5843
I7390
sVconway
p5844
I7391
sVschuyler
p5845
I5382
sVchronic
p5846
I7392
sVguard
p5847
I7393
sVoughta
p5848
I3846
sVlettuc
p5849
I1390
sVninotchka
p5850
I3444
sVleverag
p5851
I1391
sVpictur
p5852
I1392
sVbiggest
p5853
I5383
sVmaze
p5854
I7395
sVglobe
p5855
I6787
sVbubber
p5856
I3445
sVbuy
p5857
I3446
sVrodger
p5858
I1393
sVunexpect
p5859
I5384
sVcoke
p5860
I1394
sVbut
p5861
I3447
sVcaitlin
p5862
I7397
sVchildren'
p5863
I7398
sVbun
p5864
I3448
sVbum
p5865
I3449
sVbug
p5866
I3450
sVbud
p5867
I3451
sVlynn
p5868
I7399
sVwise
p5869
I3452
sVwish
p5870
I3454
sVj
p5871
I7400
sVflip
p5872
I1396
sVglori
p5873
I7401
sVpin
p5874
I7402
sVwhisper
p5875
I1397
sVdomino
p5876
I871
sVdomini
p5877
I1398
sVpie
p5878
I7405
sVpig
p5879
I7406
sVcircul
p5880
I1399
sVdawson
p5881
I1400
sVpit
p5882
I7407
sVprobabl
p5883
I3455
sV48
p5884
I5385
sV44
p5885
I5386
sV45
p5886
I5387
sVoak
p5887
I5388
sVdetail
p5888
I1402
sV40
p5889
I5389
sVpatsi
p5890
I7408
sVdresser
p5891
I1403
sVhumperdinck
p5892
I1677
sVdeath'
p5893
I7409
sVshootin'
p5894
I7410
sVbasketbal
p5895
I3458
sVgoin
p5896
I5390
sVbaker
p5897
I3459
sVfrontier
p5898
I5812
sVarmor
p5899
I839
sVmonstrou
p5900
I3545
sVpupil
p5901
I3461
sVyell
p5902
I7411
sVmccaffrey
p5903
I7084
sVhatr
p5904
I3462
sVhitch
p5905
I924
sVhath
p5906
I3463
sVsleev
p5907
I6432
sVsleep
p5908
I7412
sVhate
p5909
I3464
sVyonder
p5910
I5392
sVconcret
p5911
I7413
sVunder
p5912
I5393
sVpride
p5913
I3465
sVmerchant
p5914
I7414
sVlure
p5915
I7415
sVeveri
p5916
I3466
sVrisk
p5917
I6275
sVrise
p5918
I7416
sVtenni
p5919
I1404
sVcalib
p5920
I841
sVjack
p5921
I945
sVkick
p5922
I6178
sVschool
p5923
I1405
sVparrot
p5924
I7419
sVobsess
p5925
I4782
sVenjoy
p5926
I3467
sVfinder'
p5927
I5395
sVnaiv
p5928
I1406
sVdirect
p5929
I1407
sVnail
p5930
I1408
sVstreet
p5931
I3468
sVmanur
p5932
I5397
sVblue
p5933
I1409
sVbluf
p5934
I1410
sVhide
p5935
I1411
sVchrist
p5936
I7423
sVruben
p5937
I2540
sVbeaten
p5938
I3469
sVpoison
p5939
I5398
sVemma
p5940
I7424
sVconduct
p5941
I6826
sVliberti
p5942
I1412
sVzack
p5943
I5399
sVlodg
p5944
I7425
sVscobi
p5945
I1413
sVyanke
p5946
I3471
sVstudio
p5947
I692
sVpath
p5948
I3472
sVauction
p5949
I3473
sVanymor
p5950
I7426
sVprecis
p5951
I5400
sVportabl
p5952
I1414
sVtremend
p5953
I1415
sVstray
p5954
I5401
sVstraw
p5955
I1010
sVstink
p5956
I7428
sVjulia
p5957
I5403
sVstrap
p5958
I5404
sVgarag
p5959
I7495
sVmelani
p5960
I5405
sVanyhow
p5961
I7791
sVdescrib
p5962
I4977
sVwould
p5963
I1416
sVwormhol
p5964
I3474
sVprescript
p5965
I1417
sVasset
p5966
I7429
sVspike
p5967
I1418
sVdistinct
p5968
I7157
sVgriev
p5969
I5406
sVcock
p5970
I7154
sVmush
p5971
I7430
sVgrief
p5972
I5407
sVphone
p5973
I7431
sVconnecticut
p5974
I7432
sVphoni
p5975
I7433
sVmust
p5976
I7434
sVshoot
p5977
I3475
sVdodg
p5978
I3476
sVhenri
p5979
I7435
sVmm
p5980
I3477
sVtelescop
p5981
I1419
sVmi
p5982
I4999
sVmu
p5983
I3478
sVintroduc
p5984
I231
sVms
p5985
I3479
sVmr
p5986
I3480
sVmy
p5987
I3481
sVfortress
p5988
I7436
sVshook
p5989
I3482
sVoverrid
p5990
I1421
sVloosen
p5991
I3483
sVflorida
p5992
I6793
sVdolphin
p5993
I1422
sVmayhem
p5994
I5409
sVoverheard
p5995
I1423
sVgordo
p5996
I7437
sVattract
p5997
I1424
sVend
p5998
I5023
sVbunk
p5999
I7438
sVceremoni
p6000
I1425
sVtoxic
p6001
I1426
sVgate
p6002
I7439
sVancestor
p6003
I3484
sVcollaps
p6004
I3485
sVpoker
p6005
I7440
sVelizabeth
p6006
I1427
sVmess
p6007
I3486
sVlump
p6008
I1428
sVbefor
p6009
I1429
sVparallel
p6010
I1430
sVsplendid
p6011
I1431
sVpatent
p6012
I2515
sVdanni
p6013
I7442
sVenviron
p6014
I3487
sVreloc
p6015
I3488
sVenter
p6016
I3489
sVexclus
p6017
I1113
sVvapor
p6018
I1115
sVdignan
p6019
I7443
sVcomposit
p6020
I5411
sVcrumbl
p6021
I1433
sVover
p6022
I7444
sVorang
p6023
I1434
sVbecaus
p6024
I7445
sVvito
p6025
I4522
sVoven
p6026
I7446
sVdigest
p6027
I7447
sVvictor'
p6028
I3490
sVcomprehend
p6029
I3491
sVtramp
p6030
I1435
sVfade
p6031
I3492
sV400
p6032
I1436
sVhowdi
p6033
I1437
sViowa
p6034
I1438
sVtourist
p6035
I5413
sVplaster
p6036
I3493
sVrental
p6037
I1439
sVchoic
p6038
I5106
sValex
p6039
I1440
sVvictori
p6040
I3494
sVchuck
p6041
I3495
sVdetroit
p6042
I1441
sVunnatur
p6043
I3496
sVeach
p6044
I5414
sVwheel
p6045
I538
sVsaturday
p6046
I1442
sVfuss
p6047
I539
sVdepress
p6048
I5415
sVvada
p6049
I5133
sVdinosaur
p6050
I2171
sVgoe
p6051
I3498
sVgod
p6052
I3499
sVpsychic
p6053
I1172
sVdewitt
p6054
I3500
sVlaid
p6055
I1443
sVadjust
p6056
I6166
sVmillennium
p6057
I3501
sVnite
p6058
I1444
sVday'
p6059
I1445
sVhana
p6060
I540
sVarizona
p6061
I7449
sVd'you
p6062
I3503
sVworthwhil
p6063
I5418
sVhang
p6064
I541
sVherman
p6065
I7338
sVprecaut
p6066
I3505
sVfree
p6067
I7450
sVfred
p6068
I7451
sVevil
p6069
I5956
sVmadmartigan
p6070
I5419
sVfret
p6071
I7453
sVpuzzl
p6072
I5161
sVnorwegian
p6073
I2523
sVhorseshit
p6074
I7455
sVritual
p6075
I5420
sVprobat
p6076
I1446
sVfilter
p6077
I1447
sVwhere
p6078
I6103
sVheck
p6079
I1448
sVhopeless
p6080
I5421
sVsoda
p6081
I1449
sVonto
p6082
I5422
sVfantasi
p6083
I1450
sVrang
p6084
I5424
sVaccent
p6085
I7795
sVrank
p6086
I5425
sVrestrict
p6087
I5426
sValreadi
p6088
I3506
sVsober
p6089
I3507
sVfantast
p6090
I1451
sVprimari
p6091
I1452
sVenid
p6092
I3508
sVsourc
p6093
I5502
sVtoy
p6094
I5427
sVtheir
p6095
I5820
sVtor
p6096
I1219
sVtop
p6097
I5428
sVtow
p6098
I5429
sVfiction
p6099
I1453
sVmercuri
p6100
I7456
sVton
p6101
I1224
sVtoo
p6102
I5430
sVtom
p6103
I5431
sVtod
p6104
I5432
sVtoe
p6105
I5433
sVurban
p6106
I5434
sVmurder
p6107
I5435
sVconsol
p6108
I7457
sVtoon
p6109
I3509
sVtool
p6110
I3510
sVtook
p6111
I3511
sVhearin'
p6112
I5436
sVwestern
p6113
I3512
sVconserv
p6114
I5437
sVburger
p6115
I7145
sVflame
p6116
I5438
sVfrankli
p6117
I1454
sVsparrow
p6118
I7754
sVcountess
p6119
I7458
sVrag
p6120
I7459
sVdonkey
p6121
I3513
sVscrewi
p6122
I1455
sVran
p6123
I7460
sVram
p6124
I7461
sVhypothet
p6125
I7389
sVraw
p6126
I7463
sVrat
p6127
I7464
sVmagrud
p6128
I1456
sVrap
p6129
I7465
sVaisl
p6130
I7499
sVbeckett
p6131
I3515
sVseminar
p6132
I1457
sVray
p6133
I7466
sVspade
p6134
I3516
sVharper
p6135
I3517
sVsnow
p6136
I1261
sVthorough
p6137
I1458
sVbrandon
p6138
I1459
sVmaxi
p6139
I1460
sVderek
p6140
I1461
sVhatch
p6141
I1462
sVthoma
p6142
I1271
sVthoroughli
p6143
I1463
sVrider
p6144
I7467
sVdian
p6145
I7148
sVinsur
p6146
I5439
sVplenti
p6147
I5440
sVthough
p6148
I5441
sVabb
p6149
I5840
sVtalkin'
p6150
I3519
sVcoil
p6151
I3520
sVcoin
p6152
I6585
sVeveryth
p6153
I3550
sVglow
p6154
I7470
sVcathol
p6155
I1465
sVflow
p6156
I3522
sVfreeway
p6157
I7473
sVdeclar
p6158
I1286
sVyank
p6159
I5442
sVbait
p6160
I1466
sVpope
p6161
I7474
sVabl
p6162
I7151
sVrandom
p6163
I3524
sVradiu
p6164
I5443
sVsanctuari
p6165
I5444
sVradio
p6166
I5445
sVqueer
p6167
I7476
sVradic
p6168
I2724
sVearth
p6169
I7477
sVbail
p6170
I1468
sVbain
p6171
I1469
sVabsolut
p6172
I1470
sVspite
p6173
I1471
sVminnesota
p6174
I1473
sVkessler
p6175
I3525
sVsympathet
p6176
I5446
sVdisgust
p6177
I5447
sVstephani
p6178
I1474
sVtropic
p6179
I1475
sVcaswel
p6180
I5448
sVgeez
p6181
I3526
sVwaltz
p6182
I3527
sVtammi
p6183
I7478
sVgees
p6184
I3528
sVwatch
p6185
I5449
sVfluid
p6186
I5450
sVgeek
p6187
I3529
sVmademoisel
p6188
I7479
sVapplejack
p6189
I1476
sVreconstruct
p6190
I7480
sVtwice
p6191
I3530
sVhabit
p6192
I5452
sVnut
p6193
I3531
sVparol
p6194
I1478
sVnup
p6195
I3532
sVresist
p6196
I3533
sVcorrupt
p6197
I5453
sVgame'
p6198
I5454
sVdatabas
p6199
I7482
sVdiscoveri
p6200
I1479
sVmud
p6201
I1480
sVmug
p6202
I1345
sVoutstand
p6203
I7483
sVfinger
p6204
I1481
sVmum
p6205
I1482
sVapproach
p6206
I5455
sVmuh
p6207
I1483
sVweak
p6208
I5456
sVprecrim
p6209
I1484
sVboss
p6210
I3535
sVtoothbrush
p6211
I7484
sVwear
p6212
I1360
sVnews
p6213
I1485
sVmule
p6214
I1185
sVnewt
p6215
I1486
sVgoddess
p6216
I1363
sVell
p6217
I5471
sVmeredith
p6218
I5457
sVfault
p6219
I1366
sVmyer
p6220
I1487
sVplanet
p6221
I1278
sVjelli
p6222
I7485
sVsullivan
p6223
I7486
sVmurman
p6224
I1379
sVkaren
p6225
I7487
sVsmuggler
p6226
I1488
sVtrust
p6227
I5458
sVhitler
p6228
I1384
sVnake
p6229
I3538
sVbingo
p6230
I7488
sVbathroom
p6231
I7489
sVbeef
p6232
I3539
sVnonsens
p6233
I7490
sVroper
p6234
I3540
sVshout
p6235
I549
sVbeen
p6236
I3541
sVbeep
p6237
I3542
sVbeer
p6238
I3543
sVringer
p6239
I1812
sVquickli
p6240
I5461
sVsearch
p6241
I3235
sVvulcan
p6242
I1489
sVels
p6243
I2776
sVcatch
p6244
I7492
sVcracker
p6245
I7493
sVn
p6246
I1490
sVstrangest
p6247
I7494
sVdelli
p6248
I5462
sVanya
p6249
I1491
sVkentucki
p6250
I5463
sVveronica
p6251
I1492
sVpyramid
p6252
I5464
sVnike
p6253
I1495
sVsuggest
p6254
I5465
sVdad'
p6255
I1496
sVniki
p6256
I1497
sVwound
p6257
I3546
sVheart'
p6258
I7496
sVforehead
p6259
I1498
sVcomplex
p6260
I3547
sV'cept
p6261
I7497
sVcomplet
p6262
I3548
sVwelsh
p6263
I7498
sVsocial
p6264
I6171
sVportal
p6265
I5466
sVdylan
p6266
I5467
sVocean
p6267
I1499
sVboxer
p6268
I4482
sVshortli
p6269
I1500
sVgreatest
p6270
I3549
sVmother
p6271
I1464
sVjean
p6272
I1501
sVspencer
p6273
I7500
sVbugger
p6274
I5469
sVbrenner
p6275
I7501
sVantidot
p6276
I5470
sVtorah
p6277
I7502
sVenlighten
p6278
I1502
sVexpos
p6279
I1503
sVelm
p6280
I5472
sVinterfer
p6281
I1504
sVkeyser
p6282
I2182
sVcherri
p6283
I1506
sVgave
p6284
I1507
sVdonat
p6285
I7503
sVroach
p6286
I5473
sVburnt
p6287
I1508
sVrumor
p6288
I1505
sVapart
p6289
I3552
sVgift
p6290
I3553
sVcontradict
p6291
I1509
sVhunt
p6292
I1510
sV50
p6293
I1511
sValamo
p6294
I5476
sVhunk
p6295
I1512
sVlipnik
p6296
I2348
sVhunh
p6297
I5474
sVhung
p6298
I5475
sVdonald
p6299
I7506
sVintellect
p6300
I7507
sVich
p6301
I3554
sVcooper
p6302
I3555
sVice
p6303
I3556
sVcooch
p6304
I7508
sVselect
p6305
I6177
sVunstabl
p6306
I7505
sVcord
p6307
I3557
sVcore
p6308
I3558
sVcora
p6309
I3559
sVcorn
p6310
I3560
sVdiscount
p6311
I5478
sVcorp
p6312
I3561
sVshuck
p6313
I1513
sVmeyer
p6314
I3562
sVchapter
p6315
I1556
sValexand
p6316
I1514
sVcowboy
p6317
I5479
sVchoke
p6318
I1515
sVsurround
p6319
I3563
sVcontamin
p6320
I5520
sVfestiv
p6321
I3564
sVdinner
p6322
I1516
sVproduc
p6323
I3565
sVduke
p6324
I1517
sVbate
p6325
I1567
sVaha
p6326
I1518
sVfroze
p6327
I3566
sVcivil
p6328
I5480
sVregist
p6329
I7158
sVahh
p6330
I1519
sVbath
p6331
I1520
sV'bout
p6332
I3567
sVcafeteria
p6333
I3568
sVstorag
p6334
I5481
sVgit
p6335
I5482
sVpsychot
p6336
I3569
sVfrustrat
p6337
I5483
sVnunez
p6338
I5484
sVtransform
p6339
I5485
sVsunlight
p6340
I1521
sVgig
p6341
I5486
sVstuck
p6342
I1522
sVreli
p6343
I3570
sVfought
p6344
I1700
sVgin
p6345
I1236
sVhead
p6346
I3571
sVmedium
p6347
I3572
sVamateur
p6348
I1523
sValtogeth
p6349
I3573
sVheal
p6350
I3574
sV6
p6351
I1524
sVplumber
p6352
I6815
sVheat
p6353
I3575
sVhear
p6354
I3576
sVheap
p6355
I3577
sVcounsel
p6356
I3578
sVbargain
p6357
I3579
sVfundament
p6358
I5490
sVlatch
p6359
I5578
sVtrim
p6360
I7515
sVkaufman
p6361
I1608
sVwhereabout
p6362
I7516
sVcocain
p6363
I5491
sVtrip
p6364
I5595
sVassembl
p6365
I5492
sVni
p6366
I3580
sVlandon
p6367
I5600
sVno
p6368
I3581
sVtit
p6369
I7518
sVna
p6370
I3582
sVwhen
p6371
I1526
sVtil
p6372
I5605
sVtim
p6373
I7520
sVandy'
p6374
I5730
sVwhew
p6375
I1527
sVtie
p6376
I7522
sVimplant
p6377
I1528
sVhundr
p6378
I6180
sVrid
p6379
I7730
sVphoenix
p6380
I7523
sVtoad
p6381
I5494
sVmary'
p6382
I1529
sVhormon
p6383
I5495
sVconsid
p6384
I1530
sVyounger
p6385
I7524
sVfaster
p6386
I1531
sVbullet
p6387
I3584
sVintimaci
p6388
I5496
sVyacht
p6389
I5497
sVvietnam
p6390
I1645
sVserious
p6391
I7527
sVbackward
p6392
I3585
sVcoach
p6393
I5498
sVron
p6394
I1533
sVrob
p6395
I1534
sVcelebr
p6396
I1535
sVrod
p6397
I1536
sVouch
p6398
I3586
sVroy
p6399
I1537
sVsignific
p6400
I3587
sVstumbl
p6401
I7529
sVmarion
p6402
I1538
sVcolleen
p6403
I3588
sVrot
p6404
I1539
sVrow
p6405
I1540
sVmanchest
p6406
I5500
sVwatchin'
p6407
I5832
sVenvironment
p6408
I5501
sVpersecut
p6409
I1676
sVprop
p6410
I7739
sVlotsa
p6411
I6182
sVcoop
p6412
I1678
sVconvict
p6413
I7509
sVcook
p6414
I5503
sVcool
p6415
I5504
sVlevel
p6416
I1542
sVvalentin
p6417
I5505
sVhawaii
p6418
I5506
sVyale
p6419
I7534
sVquick
p6420
I7535
sVlever
p6421
I1543
sVpork
p6422
I1544
sVslower
p6423
I7536
sVporn
p6424
I1545
sVnanobot
p6425
I1546
sVbake
p6426
I3590
sVport
p6427
I1547
sVrepli
p6428
I7537
sVnothing'
p6429
I7164
sVkilomet
p6430
I1548
sVhairi
p6431
I3592
sVentertain
p6432
I1549
sVwitch
p6433
I1550
sVtwentieth
p6434
I5719
sVjorg
p6435
I5507
sVtwist
p6436
I2935
sVsheriff
p6437
I858
sVboast
p6438
I1551
sVproud
p6439
I1587
sVthirti
p6440
I3593
sVhealthi
p6441
I5509
sVolsen
p6442
I7510
sVweird
p6443
I3594
sVdisapprov
p6444
I6186
sVguilti
p6445
I1740
sVexplod
p6446
I1194
sVupstair
p6447
I6821
sVvisibl
p6448
I1552
sVpeep
p6449
I562
sVyourself
p6450
I6588
sVandi
p6451
I1553
sVmemori
p6452
I7540
sVpercept
p6453
I5511
sVprey
p6454
I1554
sVprep
p6455
I1749
sVtoday
p6456
I1555
sVplug
p6457
I6751
sVcapit
p6458
I5513
sVriot
p6459
I3596
sValtar
p6460
I7542
sVcasey
p6461
I1557
sVdrown
p6462
I7543
sVprototyp
p6463
I7544
sVventur
p6464
I3598
sVdotti
p6465
I7545
sVreligi
p6466
I7546
sVjudi
p6467
I5514
sVsuffoc
p6468
I7547
sVferri
p6469
I7548
sVjuda
p6470
I5515
sVjudg
p6471
I5516
sVjude
p6472
I5517
sVmacfarlan
p6473
I5518
sVcompart
p6474
I3252
sVpurpos
p6475
I7550
sVlaughter
p6476
I3599
sVslightest
p6477
I3600
sVstreak
p6478
I7551
sVstream
p6479
I7552
sVexplos
p6480
I7553
sVstroke
p6481
I3601
sVunfortun
p6482
I7511
sVswedish
p6483
I3602
sVsidney
p6484
I1559
sV1
p6485
I5521
sVplaintiff
p6486
I5836
sVvital
p6487
I1560
sVanyon
p6488
I5522
sVfourth
p6489
I1561
sVstenograph
p6490
I3603
sVballroom
p6491
I3604
sVfascist
p6492
I5523
sVclone
p6493
I7556
sVmadelein
p6494
I7557
sVlevi
p6495
I7558
sV4th
p6496
I5816
sV'fraid
p6497
I7560
sVeighti
p6498
I1563
sVeighth
p6499
I1564
sVrepeat
p6500
I472
sVclassroom
p6501
I7561
sVpractic
p6502
I1565
sVliquid
p6503
I5524
sVinform
p6504
I1566
sVpreced
p6505
I1813
sVcombin
p6506
I6191
sVrefund
p6507
I3606
sVrye
p6508
I7169
sVanticip
p6509
I7562
sVmidnight
p6510
I7563
sVmicroscop
p6511
I5525
sVmainli
p6512
I5841
sVworship
p6513
I3607
sVcanari
p6514
I3608
sVswann
p6515
I7565
sVpassag
p6516
I3609
sVcomic
p6517
I6475
sVhe'd
p6518
I7567
sVplatform
p6519
I1568
sVfarmer
p6520
I1569
sVcutter
p6521
I3610
sVunderneath
p6522
I5526
sVconquer
p6523
I5527
sVahm
p6524
I5743
sVwagon
p6525
I5528
sVterm
p6526
I5529
sVname
p6527
I5530
sVrealist
p6528
I3611
sVopera
p6529
I3612
sVclutch
p6530
I5531
sVneedl
p6531
I1202
sVmustn't
p6532
I5532
sVindividu
p6533
I1570
sVtorch
p6534
I1571
sVbegun
p6535
I3613
sVdispos
p6536
I3614
sVhacker
p6537
I7569
sVprofit
p6538
I3615
sVinfrar
p6539
I1883
sVprofil
p6540
I3616
sVshouldn't
p6541
I5534
sVkent
p6542
I5894
sVuncl
p6543
I3617
sVfactori
p6544
I7570
sVglimps
p6545
I5535
sVhull
p6546
I7571
sVliddi
p6547
I1896
sVflyer
p6548
I5536
sVtheori
p6549
I3618
sVsal'
p6550
I6082
sVyup
p6551
I1572
sVmore'n
p6552
I1573
sVsyndic
p6553
I7573
sVrefus
p6554
I3619
sVmotion
p6555
I7574
sVturn
p6556
I1574
sVturk
p6557
I1575
sVswine
p6558
I5538
sVswing
p6559
I5539
sVturf
p6560
I1576
sVturd
p6561
I1577
sVimposs
p6562
I3620
sVammo
p6563
I5541
sV1000
p6564
I3621
sVorigin
p6565
I5936
sVsanchez
p6566
I3622
sVsuspend
p6567
I7575
sVbeverag
p6568
I3623
sVgeorgi
p6569
I7576
sValbania
p6570
I2577
sVsuspens
p6571
I7577
sVbackyard
p6572
I2186
sVgiven
p6573
I5542
sVian
p6574
I1931
sVteenag
p6575
I1578
sVvirgin
p6576
I5487
sVassoci
p6577
I3255
sVconklin
p6578
I5838
sVanderson
p6579
I7513
sVcircu
p6580
I3625
sVbolt
p6581
I6989
sVvirgil
p6582
I5488
sVcircl
p6583
I5955
sVwhite
p6584
I7579
sVhug
p6585
I3626
sVcope
p6586
I5547
sVhum
p6587
I3627
sVcopi
p6588
I5548
sVhuh
p6589
I3628
sValan
p6590
I5549
sVeagl
p6591
I1949
sVhut
p6592
I3629
sVenclos
p6593
I7581
sVsalvator
p6594
I1579
sVshirley
p6595
I5550
sVgrunt
p6596
I1580
sVholder
p6597
I3630
sVserv
p6598
I5551
sVwide
p6599
I7582
sVnathan
p6600
I5552
sVr
p6601
I3631
sVbalanc
p6602
I5553
sVsera
p6603
I5554
sVposit
p6604
I1581
sVwoodsboro
p6605
I1974
sVoath
p6606
I5555
sVseri
p6607
I5556
sVand
p6608
I3632
sVrene
p6609
I5557
sVpro
p6610
I3633
sVpri
p6611
I3634
sVani
p6612
I3635
sVreno
p6613
I5558
sVant
p6614
I3636
sVanu
p6615
I3637
sVrent
p6616
I5559
sVsuperman
p6617
I1582
sVcorbett
p6618
I5560
sVtechniqu
p6619
I1583
sVmoreov
p6620
I7584
sVpaulin
p6621
I3638
sVphillipp
p6622
I5310
sVxxxxxx
p6623
I3639
sVmandrak
p6624
I5562
sVblunt
p6625
I5563
sVsurf
p6626
I1584
sVsurg
p6627
I1585
sVan'
p6628
I3640
sVmultipli
p6629
I7585
sVsherman
p6630
I3641
sVfreshman
p6631
I6012
sVlibrarian
p6632
I3642
sVclitori
p6633
I2012
sVshooter
p6634
I2015
sVcolson
p6635
I5566
sVobedi
p6636
I5567
sVsenior
p6637
I6022
sVmanzetti
p6638
I1589
sVhungri
p6639
I5568
sVtron
p6640
I1590
sVcheat
p6641
I7592
sVcheap
p6642
I1591
sVtrespass
p6643
I5569
sVtroy
p6644
I2027
sVpermiss
p6645
I3643
sVhack
p6646
I7587
sVmister
p6647
I5571
sVhustler
p6648
I5572
sVgulf
p6649
I1592
sVmiami
p6650
I5870
sVgull
p6651
I1593
sVstate
p6652
I6833
sVcrime
p6653
I3644
sVwood
p6654
I7588
sVanalyz
p6655
I5573
sVlighten
p6656
I7589
sVnell
p6657
I3645
sVnobl
p6658
I7590
sVtailor
p6659
I3646
sVssh
p6660
I7591
sVlighter
p6661
I6049
sVjoyc
p6662
I1228
sVdye
p6663
I7593
sVmagua
p6664
I7815
sVreveal
p6665
I2058
sVdramat
p6666
I5574
sVjoker
p6667
I1595
sVjunki
p6668
I7594
sVdraft
p6669
I6067
sVthrough
p6670
I1208
sVy'all
p6671
I1596
sVbeethoven
p6672
I5575
sVpicnic
p6673
I3648
sVconscienc
p6674
I5576
sVdickhead
p6675
I3649
sVstanley
p6676
I6078
sVdetect
p6677
I3650
sVreview
p6678
I7595
sVwayn
p6679
I6096
sVhiss
p6680
I5577
sVbedtim
p6681
I3651
sVwhatever'
p6682
I7596
sVlynett
p6683
I7597
sVguitar
p6684
I1597
sVcycl
p6685
I3652
sVcomm
p6686
I7598
sVcomo
p6687
I7599
sVcoma
p6688
I7600
sVcomb
p6689
I7601
sVcome
p6690
I7602
sVreaction
p6691
I7603
sVberri
p6692
I5579
sVregion
p6693
I6116
sVruptur
p6694
I5580
sVquiet
p6695
I1598
sVcontract
p6696
I1599
sVentir
p6697
I479
sVcatwoman
p6698
I2119
sVcolor
p6699
I3653
sVpow
p6700
I5581
sVpot
p6701
I5582
sVinspir
p6702
I1600
sVperiod
p6703
I1601
sVinsist
p6704
I2123
sVduti
p6705
I3879
sVpoo
p6706
I5585
sVpole
p6707
I3654
sVcolon
p6708
I3655
sVarroway
p6709
I5586
sVpolo
p6710
I3656
sVmcmurphi
p6711
I3657
sVpod
p6712
I2132
sVpoll
p6713
I3658
sVcoloni
p6714
I5587
sVrunaway
p6715
I6132
sVturkey
p6716
I1602
sVcoupl
p6717
I3660
sVhoward
p6718
I7604
sVhardli
p6719
I3661
sVvenkman
p6720
I3662
sVbarrett
p6721
I7605
sV500
p6722
I5588
sVandrew
p6723
I1603
sVtiger
p6724
I5589
sVimpati
p6725
I1604
sVspirit
p6726
I1605
sVrobber
p6727
I3663
sVpilot
p6728
I1606
sVcase
p6729
I1607
sVshaft
p6730
I3664
sVmyself
p6731
I5590
sVslipperi
p6732
I5591
sVamend
p6733
I6165
sVmount
p6734
I5592
sVcash
p6735
I1609
sVarnold
p6736
I3665
sVlife'
p6737
I3666
sVcast
p6738
I1610
sVterranc
p6739
I1611
sVsculli
p6740
I5180
sVanytim
p6741
I3667
sVperson'
p6742
I5594
sVgood
p6743
I7174
sVhelmet
p6744
I3668
sVauthor
p6745
I1613
sValphabet
p6746
I3669
sVfender
p6747
I1614
sVbowl
p6748
I6193
sVadmit
p6749
I4804
sVcheck
p6750
I7517
sVplissken
p6751
I5253
sVit'
p6752
I6200
sVeventu
p6753
I3670
sVweek
p6754
I1615
sVgrail
p6755
I7818
sVnest
p6756
I5596
sVconfidenti
p6757
I2200
sVdriver
p6758
I7606
sVweed
p6759
I1616
sVdirector
p6760
I1617
sVcampbel
p6761
I6208
sVpuke
p6762
I7512
sVfootprint
p6763
I5597
sVweep
p6764
I1618
sVcartoon
p6765
I5598
sVskywir
p6766
I3672
sVmoder
p6767
I3673
sVreliev
p6768
I1619
sVpennsylvania
p6769
I5601
sVranch
p6770
I5602
sVjustifi
p6771
I2213
sVhustl
p6772
I1620
sVwithout
p6773
I1621
sVrelief
p6774
I1622
sVmodel
p6775
I3674
sVreward
p6776
I5603
sVshitless
p6777
I272
sVviolenc
p6778
I7608
sVtip
p6779
I7519
sVninth
p6780
I1623
sVviolent
p6781
I7609
sVkill
p6782
I7610
sVkilo
p6783
I7611
sVpolish
p6784
I1624
sVbaldwin
p6785
I3676
sVhalfway
p6786
I5604
sVblow
p6787
I7612
sVkimberli
p6788
I3677
sVadventur
p6789
I7177
sVrosi
p6790
I5606
sVhint
p6791
I7613
sVrose
p6792
I2240
sVcasablanca
p6793
I726
sVexcept
p6794
I3678
sVvulner
p6795
I1625
sVdisrupt
p6796
I5608
sVross
p6797
I5609
sVkingdom
p6798
I3679
sVriker
p6799
I5610
sVvirginia
p6800
I3680
sVdoyl
p6801
I2557
sVappetit
p6802
I3583
sVdivorc
p6803
I5612
sVtowel
p6804
I1626
sVlet'
p6805
I1627
sVpatrick
p6806
I1628
sVbracelet
p6807
I5614
sVwoman'
p6808
I3681
sVsnort
p6809
I5615
sVkennedi
p6810
I5616
sVtower
p6811
I1629
sVdeduct
p6812
I7615
sVintact
p6813
I7616
sVfanat
p6814
I5617
sVfreez
p6815
I1630
sVslice
p6816
I7617
sVmood
p6817
I2289
sVdunbar
p6818
I1631
sVeasili
p6819
I7182
sVo'
p6820
I3682
sVhighest
p6821
I905
sVdudley
p6822
I5618
sVlegal
p6823
I3683
sVmoon
p6824
I2293
sVmoos
p6825
I1632
sVmoor
p6826
I1633
sVwade'
p6827
I3684
sVunbeliev
p6828
I5619
sVcomplic
p6829
I7619
sVporter
p6830
I1634
sVriddick
p6831
I3685
sVimmun
p6832
I3686
sVpoem
p6833
I6836
sVgarbag
p6834
I1635
sVinspect
p6835
I7620
sVslaughter
p6836
I2311
sVpooch
p6837
I1636
sVconcuss
p6838
I3688
sV_
p6839
I5620
sV'the
p6840
I5621
sVon
p6841
I3689
sVjeez
p6842
I5622
sVok
p6843
I3690
sVoh
p6844
I3691
sVjeep
p6845
I5623
sVof
p6846
I3692
sVcraft
p6847
I7491
sVshrimp
p6848
I5624
sVoz
p6849
I3693
sVox
p6850
I3694
sVow
p6851
I6319
sVlantern
p6852
I6201
sVor
p6853
I594
sVop
p6854
I3695
sVamber
p6855
I3696
sVroutin
p6856
I1637
sVmaureen
p6857
I1638
sVgari
p6858
I5626
sVspinal
p6859
I7623
sVchoir
p6860
I7448
sVthere
p6861
I1639
sVvallen
p6862
I7624
sVstrict
p6863
I3697
sVinterfac
p6864
I5628
sVbesid
p6865
I1841
sVstrictli
p6866
I3699
sVvalley
p6867
I7625
sVhare
p6868
I7626
sVtreat
p6869
I6838
sVregard
p6870
I5629
sVamongst
p6871
I5630
sVcabinet
p6872
I7627
sVterrifi
p6873
I6203
sVdolor
p6874
I4070
sVillus
p6875
I3701
sVlonger
p6876
I7525
sVesther
p6877
I6444
sVpreys
p6878
I7526
sVgrasp
p6879
I1640
sVgrass
p6880
I1641
sVtoilet
p6881
I6373
sVtaylor
p6882
I3702
sVtasti
p6883
I1642
sVcinema
p6884
I7628
sVfrighten
p6885
I7629
sVstrongli
p6886
I3703
sVmallori
p6887
I1643
sVbritain
p6888
I7630
sVportland
p6889
I1213
sVheather
p6890
I5632
sVidiot
p6891
I3704
sVpaddl
p6892
I1644
sVcompel
p6893
I5633
sVrubber
p6894
I7631
sVreconsid
p6895
I3705
sVcompet
p6896
I5634
sVtrash
p6897
I7633
sVchampionship
p6898
I7634
sVsymbol
p6899
I7635
sVcorki
p6900
I6841
sVbriefli
p6901
I5635
sVbrass
p6902
I5636
sVwife
p6903
I1646
sVinvest
p6904
I3706
sVpotenti
p6905
I5637
sVtreason
p6906
I1647
sVdegrad
p6907
I5638
sVchildish
p6908
I7636
sVall
p6909
I5639
sVsicilian
p6910
I5640
sVlace
p6911
I7637
sVson'
p6912
I7638
sVrecip
p6913
I2299
sVspontan
p6914
I7639
sVale
p6915
I5641
sVpta
p6916
I5642
sVspacecraft
p6917
I5643
sVdisc
p6918
I5644
sVabil
p6919
I5645
sVdish
p6920
I5646
sVfollow
p6921
I3707
sVsettlement
p6922
I3708
sVabid
p6923
I2426
sVhmmm
p6924
I5648
sVdairi
p6925
I1648
sVsnif
p6926
I7528
sVmayfair
p6927
I2432
sVinfirmari
p6928
I7641
sVthursday
p6929
I5649
sVaaron
p6930
I7642
sVperri
p6931
I1214
sVhumili
p6932
I7643
sVpresent
p6933
I5853
sVneglig
p6934
I3709
sVfax
p6935
I7644
sVwoman
p6936
I3710
sVegyptian
p6937
I1649
sVfar
p6938
I7646
sVfat
p6939
I7647
sVeveryone'
p6940
I3809
sVsloan
p6941
I7648
sVhypocrit
p6942
I6458
sVworst
p6943
I3712
sVfailur
p6944
I1650
sVticket
p6945
I6465
sVfag
p6946
I7651
sVlist
p6947
I1651
sVlisa
p6948
I1652
sVbecker
p6949
I2468
sVflick
p6950
I1653
sVten
p6951
I3713
sVdifficulti
p6952
I7187
sVtea
p6953
I3714
sVted
p6954
I3715
sVtee
p6955
I3716
sVtex
p6956
I3717
sVsophomor
p6957
I5651
sVrate
p6958
I6479
sVpressur
p6959
I7653
sVdesign
p6960
I3718
sVnba
p6961
I7654
sVbelief
p6962
I4161
sVsue
p6963
I1655
sVsub
p6964
I1656
sVsun
p6965
I1657
sVsum
p6966
I1658
sVbrief
p6967
I1659
sVoverload
p6968
I5653
sVcrush
p6969
I5654
sVlovebird
p6970
I1660
sVversion
p6971
I1661
sVtickl
p6972
I5655
sVmusta
p6973
I1662
sVsup
p6974
I1663
sVdeepli
p6975
I3719
sVanniversari
p6976
I7656
sVthemselv
p6977
I1664
sVrehears
p6978
I1665
sVtheresa
p6979
I1666
sVberkeley
p6980
I5656
sVwhen'
p6981
I2506
sVshoulda
p6982
I7657
sVmmm
p6983
I1218
sVcourthous
p6984
I1668
sVlednov
p6985
I7658
sVmyra
p6986
I5657
sVdemil
p6987
I7659
sVtaupin
p6988
I3720
sVvoyag
p6989
I1669
sVsuddenli
p6990
I7660
sVdieter
p6991
I6844
sViranoff
p6992
I1670
sVtuttl
p6993
I7661
sVproceed
p6994
I5658
sVfaint
p6995
I5659
sVcertainli
p6996
I3721
sVcoverag
p6997
I3722
sVminor
p6998
I5660
sVflat
p6999
I1672
sVisrael
p7000
I1673
sVmad
p7001
I6795
sVstutter
p7002
I7662
sVflag
p7003
I1674
sVfloyd
p7004
I3723
sVstick
p7005
I7663
sVknown
p7006
I5661
sVwho'll
p7007
I1675
sVglad
p7008
I2566
sVvaluabl
p7009
I6546
sVpolicemen
p7010
I3724
sVshit'
p7011
I7664
sVwrestler
p7012
I5662
sVv
p7013
I5663
sVmotiv
p7014
I1848
sVorlean
p7015
I7665
sVjeopard
p7016
I5664
sVintercours
p7017
I3725
sVthorwald
p7018
I1541
sVponi
p7019
I5665
sVpond
p7020
I5666
sVcours
p7021
I5667
sVcourt
p7022
I5668
sVgoal
p7023
I5669
sVdivid
p7024
I5670
sVrather
p7025
I1679
sVanxiou
p7026
I5671
sVdivin
p7027
I5672
sVdivis
p7028
I2590
sVdelaney
p7029
I1680
sVscienc
p7030
I874
sVgoat
p7031
I5673
sVsandwich
p7032
I7666
sVokay
p7033
I1681
sVw
p7034
I2202
sVreflect
p7035
I7667
sVlangley
p7036
I4155
sVnumb
p7037
I3726
sVshort
p7038
I1682
sVsusan
p7039
I1683
sVbarbi
p7040
I3727
sVstash
p7041
I5674
sVcaus
p7042
I3728
sVshore
p7043
I1685
sVshade
p7044
I5675
sVbegan
p7045
I6845
sVambros
p7046
I5676
sVcopper
p7047
I5198
sVmission
p7048
I3730
sVlogan
p7049
I3731
sVscientist
p7050
I7670
sVcrabtre
p7051
I7672
sVvaughan
p7052
I5677
sVstyle
p7053
I5678
sVpray
p7054
I5679
sVmattress
p7055
I1686
sVresort
p7056
I5680
sVstephen
p7057
I5681
sVspeaker
p7058
I877
sVbout
p7059
I1687
sVmight
p7060
I3732
sValter
p7061
I3733
sVwouldn
p7062
I5682
sVreturn
p7063
I7674
sVhunter
p7064
I1688
sVwoulda
p7065
I5683
sVsomebodi
p7066
I1689
sVbigger
p7067
I3734
sVpoliceman
p7068
I7531
sVrefresh
p7069
I7676
sVceas
p7070
I7677
sVfriendship
p7071
I2672
sV'night
p7072
I7568
sVweight
p7073
I1690
sVbrother
p7074
I7533
sVduchess
p7075
I5684
sVexpect
p7076
I5685
sVanyplac
p7077
I5686
sValcohol
p7078
I1691
sVjoin
p7079
I5687
sVreverend
p7080
I5688
sVhealth
p7081
I3735
sVhill
p7082
I1692
sVshipment
p7083
I5689
sVbenjamin
p7084
I3736
sVgorgeou
p7085
I6644
sVwisconsin
p7086
I3737
sVadvanc
p7087
I4164
sVfriday
p7088
I1693
sVdiffer
p7089
I6210
sVeffect
p7090
I6850
sVteach
p7091
I3738
sVsidewalk
p7092
I6549
sVguest
p7093
I4169
sVthrown
p7094
I6653
sVthread
p7095
I6656
sVperhap
p7096
I2942
sVcircuit
p7097
I6658
sVfallen
p7098
I1696
sVfeed
p7099
I2712
sVsympathi
p7100
I5691
sVdine
p7101
I5692
sVignit
p7102
I7226
sVnotifi
p7103
I5693
sVfeel
p7104
I2713
sVfamou
p7105
I6666
sVfeet
p7106
I5694
sVsailor
p7107
I5695
sVconstruct
p7108
I3275
sVblank
p7109
I3739
sVfanci
p7110
I6674
sVmoan
p7111
I3740
sVharmsway
p7112
I7681
sVscript
p7113
I7682
sVtougher
p7114
I1697
sV180
p7115
I7683
sVstori
p7116
I1698
sVjacquelin
p7117
I1699
sVstorm
p7118
I2737
sVstore
p7119
I1701
sVnecklac
p7120
I1702
sVoption
p7121
I7684
sVpump
p7122
I3145
sVhotel
p7123
I5698
sVllewelyn
p7124
I5699
sVscoobi
p7125
I1703
sVuncut
p7126
I3741
sVking
p7127
I1704
sVkind
p7128
I1705
sVwhenev
p7129
I3742
sVremot
p7130
I6701
sVremov
p7131
I198
sVdant
p7132
I7685
sVknive
p7133
I1706
sVriski
p7134
I5701
sVstall
p7135
I7686
sVcuff
p7136
I2754
sVdanc
p7137
I6709
sVdana
p7138
I7688
sVcleaner
p7139
I7689
sVatmospher
p7140
I3744
sVigor
p7141
I3745
sVmarbl
p7142
I5703
sVgale
p7143
I7690
sVexpir
p7144
I6715
sVnothin'
p7145
I5704
sVdedic
p7146
I4567
sVpritchett
p7147
I3746
sVwilson
p7148
I1707
sVsherri
p7149
I7691
sVviolat
p7150
I3748
sVchairman
p7151
I3749
sVlyin'
p7152
I1708
sVbuff
p7153
I7692
sVgill
p7154
I1709
sVreckon
p7155
I3750
sVreach
p7156
I7693
sVreact
p7157
I7694
sV75
p7158
I5705
sVsandra
p7159
I7695
sVgruner
p7160
I5706
sVdisbar
p7161
I5707
sVamaz
p7162
I1710
sVwichita
p7163
I7697
sVdestruct
p7164
I1711
sVnight'
p7165
I5708
sVsaloon
p7166
I5709
sVnobil
p7167
I3751
sVridicul
p7168
I3752
sVfond
p7169
I7698
sVpenalti
p7170
I3753
sVbetray
p7171
I7699
sVsure
p7172
I1586
sVhip
p7173
I7700
sVhit
p7174
I7701
sVfinanc
p7175
I3754
sVb
p7176
I3280
sVhid
p7177
I7702
sVfastest
p7178
I5711
sVhim
p7179
I6784
sVgrandma'
p7180
I1712
sVvincenn
p7181
I3755
sVeugen
p7182
I5712
sVcarlotta
p7183
I3756
sVstatist
p7184
I3757
sVguinea
p7185
I4193
sVvincent
p7186
I3758
sVbilly'
p7187
I6794
sVwrote
p7188
I1713
sVcertif
p7189
I7705
sVars
p7190
I6797
sVart
p7191
I6799
sVcasper
p7192
I5865
sVdump
p7193
I7707
sVcity'
p7194
I1714
sVgetaway
p7195
I287
sVdumb
p7196
I6809
sVare
p7197
I7709
sVbarg
p7198
I7710
sVbarf
p7199
I7711
sVbark
p7200
I7712
sVarm
p7201
I7713
sVbarn
p7202
I7714
sVinconveni
p7203
I5714
sVberserk
p7204
I3759
sVsolo
p7205
I1716
sVkorea
p7206
I3760
sVbibl
p7207
I1717
sVerni
p7208
I3761
sVinduc
p7209
I1718
sVsole
p7210
I1719
sVaspir
p7211
I1720
sVoutfit
p7212
I5716
sVsucceed
p7213
I3762
sVsolv
p7214
I1721
sVcondo
p7215
I3763
sVwater
p7216
I7538
sVc
p7217
I7715
sVoversea
p7218
I1722
sVbandit
p7219
I1723
sVroman
p7220
I5717
sVcontext
p7221
I5718
sVmotorcycl
p7222
I6848
sVbond
p7223
I6140
sVcynic
p7224
I2913
sVdistress
p7225
I1724
sVchaperon
p7226
I5720
sVsweet
p7227
I1725
sVsweep
p7228
I1726
sVpsychiatr
p7229
I3764
sVweasel
p7230
I7717
sVrave
p7231
I5721
sVmistak
p7232
I1727
sVsimpler
p7233
I3441
sVduh
p7234
I6862
sVbertrand
p7235
I5722
sVthere'
p7236
I3766
sVdue
p7237
I3767
sVdug
p7238
I3768
sVwhom
p7239
I7719
sVpa
p7240
I3769
sVpg
p7241
I3770
sVbrick
p7242
I6871
sVwhoa
p7243
I7722
sVwoke
p7244
I3771
sVstrategi
p7245
I3772
sVflight
p7246
I1728
sVdemand
p7247
I1729
sVgeorgia
p7248
I5724
sVshove
p7249
I5508
sVfrozen
p7250
I1730
sVhomework
p7251
I2178
sVbehavior
p7252
I4837
sVwho'
p7253
I7725
sVwhere'
p7254
I7726
sVdemon
p7255
I1731
sVrip
p7256
I7727
sVrio
p7257
I1275
sVmovin'
p7258
I7728
sVrig
p7259
I7729
sVcarbon
p7260
I4334
sVrib
p7261
I7731
sVshirt
p7262
I1733
sVnoooo
p7263
I1734
sV9
p7264
I1736
sVfranklin
p7265
I588
sVrestraint
p7266
I1738
sVwherea
p7267
I7734
sVflown
p7268
I5725
sVnuthin'
p7269
I3774
sVwould'v
p7270
I1739
sVlower
p7271
I3775
sVpeople'
p7272
I5726
sVdiscourag
p7273
I3776
sVdaughter'
p7274
I1741
sVcheek
p7275
I5727
sVcheer
p7276
I5728
sVchees
p7277
I5729
sVlowel
p7278
I3777
sVanybodi
p7279
I3778
sVpropos
p7280
I1074
sVreliant
p7281
I7735
sVpreposter
p7282
I7539
sVreiben
p7283
I6216
sVstimul
p7284
I3779
sVtheoret
p7285
I7736
sVcontractor
p7286
I5731
sVcomplaint
p7287
I5732
sVlincoln
p7288
I885
sVmoodi
p7289
I5733
sVawaken
p7290
I5734
sVconfront
p7291
I1742
sVearthquak
p7292
I7737
sVcollect
p7293
I3043
sVarthur
p7294
I3780
sVpipelin
p7295
I5735
sVunderstood
p7296
I3782
sVlitter
p7297
I7738
sVconsciou
p7298
I5736
sVsurpris
p7299
I3783
sVmckenna
p7300
I3784
sVdebrief
p7301
I3785
sVseller
p7302
I5219
sVprom
p7303
I7740
sVnorvil
p7304
I5215
sVanni
p7305
I7741
sVprob
p7306
I3605
sVanna
p7307
I7742
sVfuckin'
p7308
I3787
sVmartin
p7309
I6857
sVweir
p7310
I5738
sVjumpi
p7311
I3788
sVtinker
p7312
I3789
sVsqueez
p7313
I5739
sVmeantim
p7314
I7744
sVschumann
p7315
I5740
sVplaza
p7316
I3095
sVmilitia
p7317
I5741
sVmasterpiec
p7318
I3790
sVwanna
p7319
I5742
sVdwight
p7320
I7745
sVmiracl
p7321
I5744
sVconquest
p7322
I7746
sVmomma
p7323
I5745
sVmommi
p7324
I5746
sVartifici
p7325
I1743
sVquestion
p7326
I3128
sVlong
p7327
I1745
sVsonni
p7328
I3792
sVchauncey
p7329
I5748
sVprettier
p7330
I5749
sVloung
p7331
I5512
sVvienna
p7332
I3793
sV'kay
p7333
I1746
sVcloth
p7334
I5750
sVcrank
p7335
I7748
sVdelta
p7336
I5751
sVupright
p7337
I7749
sVcrane
p7338
I7750
sVjunior
p7339
I3146
sVjohn'
p7340
I1747
sV'you
p7341
I5754
sVpatriot
p7342
I5755
sVconsist
p7343
I5756
sVcaller
p7344
I7751
sVhasn't
p7345
I1748
sVhomo
p7346
I891
sVz
p7347
I7752
sVenlarg
p7348
I7092
sVfreak
p7349
I5757
sVralli
p7350
I1751
sVcleveland
p7351
I2921
sVkathryn
p7352
I3169
sVhuron
p7353
I1752
sVgraham
p7354
I5758
sVrainbow
p7355
I1753
sVlemon
p7356
I3794
sVconductor
p7357
I7541
sVpeach
p7358
I1754
sVnick
p7359
I1755
sVparlor
p7360
I3180
sVmock
p7361
I5760
sVnice
p7362
I1756
sVmustard
p7363
I5761
sVmissil
p7364
I5762
sVinsect
p7365
I5763
sVhappier
p7366
I1757
sVvice
p7367
I5764
sVnasa
p7368
I3795
sVnash
p7369
I7137
sVbuffalo
p7370
I1758
sVpervert
p7371
I3796
sVpervers
p7372
I3797
sVkross
p7373
I1759
sVganz
p7374
I1760
sVlean
p7375
I7847
sVedi
p7376
I5767
sVsteve
p7377
I3798
sVgang
p7378
I1762
sVdrinkin'
p7379
I3799
sVsimon
p7380
I5768
sVdeal'
p7381
I7753
sVcruiser
p7382
I1763
sVshanghai
p7383
I3800
sVbreach
p7384
I1764
sVbialystock
p7385
I1765
sVgino
p7386
I3801
sVarteri
p7387
I5769
sVgina
p7388
I3802
sVduffi
p7389
I7756
sVelectron
p7390
I3803
sVbowler
p7391
I6565
sVspook
p7392
I5771
sVrelev
p7393
I5772
sVdisgrac
p7394
I1766
sVmisplac
p7395
I5773
sVdealt
p7396
I7757
sVsandman
p7397
I5611
sVpleas
p7398
I5774
sVsomeday
p7399
I5775
sVcap
p7400
I4521
sVyou'd
p7401
I1767
sVbattl
p7402
I7549
sVfold
p7403
I1769
sVhelicopt
p7404
I3804
sVyou'r
p7405
I4697
sVyou'v
p7406
I3281
sVummm
p7407
I1771
sVacid
p7408
I1772
sVfolk
p7409
I1773
sVballist
p7410
I3805
sVleavin'
p7411
I1775
sVaccomplic
p7412
I5778
sVletti
p7413
I1776
sVvibrat
p7414
I3807
sVchose
p7415
I1777
sVprosecut
p7416
I5779
sVsexi
p7417
I3808
sVambit
p7418
I7213
sVyoungest
p7419
I1778
sVcozi
p7420
I3811
sVmiser
p7421
I5780
sVsurvivor
p7422
I1779
sVlarger
p7423
I1780
sVcalvin
p7424
I5781
sVwaitin'
p7425
I7760
sVharrington
p7426
I3308
sVtypic
p7427
I7761
sVpajama
p7428
I1781
sVsheila
p7429
I1782
sVhardi
p7430
I1783
sVshovel
p7431
I7762
sVkurtz
p7432
I3317
sVduct
p7433
I3319
sVappli
p7434
I7764
sVapproxim
p7435
I3813
sVmotor
p7436
I1178
sVduck
p7437
I3321
sVredi
p7438
I3814
sVape
p7439
I1786
sVuse
p7440
I3815
sVfee
p7441
I3816
sVfrom
p7442
I1787
sVsympath
p7443
I7252
sVfrog
p7444
I1788
sVgerm
p7445
I3817
sVfew
p7446
I3818
sVfer
p7447
I3819
sVsort
p7448
I3820
sVclever
p7449
I1790
sVporch
p7450
I7766
sVmusician
p7451
I3822
sVheir
p7452
I3823
sVsore
p7453
I3824
sVcrusad
p7454
I3825
sVwomen
p7455
I5005
sVannoy
p7456
I7770
sVheard
p7457
I4530
sVcairo
p7458
I6580
sVcritic
p7459
I1558
sVunhappi
p7460
I7772
sVproof
p7461
I7773
sVpatrol
p7462
I5782
sVpatron
p7463
I5783
sVtax
p7464
I7776
sVvillain
p7465
I3826
sVcarrot
p7466
I3827
sVthirsti
p7467
I1792
sVtan
p7468
I7294
sVrape
p7469
I4630
sVcounterfeit
p7470
I5786
sVsir
p7471
I3363
sVsip
p7472
I5787
sVsit
p7473
I5788
sVtamper
p7474
I5789
sVsix
p7475
I3367
sVcardin
p7476
I6569
sVbrian
p7477
I5791
sVswear
p7478
I5875
sVsie
p7479
I5792
sVsid
p7480
I5793
sVinstead
p7481
I5794
sVmccoy
p7482
I5795
sVpanic
p7483
I7780
sVsin
p7484
I5796
sVchri
p7485
I7317
sVtension
p7486
I3828
sVlesion
p7487
I3829
sVattend
p7488
I3812
sVhazard
p7489
I3830
sV3
p7490
I6603
sVwrist
p7491
I1793
sVsomethin'
p7492
I3831
sVattent
p7493
I1794
sVmine'
p7494
I6561
sVvillag
p7495
I3392
sVhonestli
p7496
I5797
sVlight
p7497
I5798
sVfergu
p7498
I3398
sVmartini
p7499
I7340
sVwrinkl
p7500
I7781
sVelia
p7501
I7782
sValex'
p7502
I1011
sVelit
p7503
I7783
sVdearest
p7504
I7784
sVjoanna
p7505
I3835
sVliabl
p7506
I2227
sVglen
p7507
I1795
sVsuperior
p7508
I1796
sVreilli
p7509
I7354
sVsunni
p7510
I304
sVnobody'
p7511
I2924
sVtyler
p7512
I3836
sVrestrain
p7513
I5799
sVworld'
p7514
I5800
sVredhead
p7515
I5801
sVholiday
p7516
I1797
sVcrash
p7517
I7785
sVsnoopi
p7518
I5802
sVnashvil
p7519
I3837
sVflew
p7520
I5803
sVemerald
p7521
I3838
sVflea
p7522
I5804
sVrepublican
p7523
I1798
sVinvestor
p7524
I3839
sVfled
p7525
I5806
sVbilli
p7526
I3435
sVlecktor
p7527
I5807
sVedit
p7528
I1799
sVtran
p7529
I7786
sVfeast
p7530
I5808
sVpolit
p7531
I2972
sVship'
p7532
I3840
sVtray
p7533
I7788
sVoui
p7534
I1800
sVbarnett
p7535
I5809
sVskank
p7536
I5810
sVour
p7537
I1801
sV80
p7538
I5811
sV87
p7539
I3457
sVout
p7540
I1802
sVsemen
p7541
I7789
sVtabloid
p7542
I3841
sVcocktail
p7543
I7555
sVsentiment
p7544
I1803
sVincompet
p7545
I3460
sVcategori
p7546
I7790
sVsegretti
p7547
I5813
sVdisappear
p7548
I6446
sVwhat'll
p7549
I5814
sVyork
p7550
I7427
sVphilip
p7551
I5815
sVmolli
p7552
I3843
sVtenant
p7553
I1804
sVtanker
p7554
I305
sVg
p7555
I1806
sVbirthday
p7556
I7559
sVadrian
p7557
I7792
sVfootag
p7558
I7793
sVsew
p7559
I2228
sVrenni
p7560
I7794
sVecho
p7561
I5817
sVprioriti
p7562
I1807
sVdoesn't
p7563
I3504
sVunknown
p7564
I1808
sVtrembl
p7565
I5818
sVcapac
p7566
I5819
sVoverwhelm
p7567
I2230
sVmorlock
p7568
I5821
sVdrool
p7569
I7796
sVpancak
p7570
I7797
sVboil
p7571
I5822
sVmisunderstood
p7572
I1809
sVshell
p7573
I5823
sVrusti
p7574
I5895
sVshelf
p7575
I5824
sVjuli
p7576
I5825
sVshallow
p7577
I7468
sVsolar
p7578
I7514
sVacademi
p7579
I3844
sVholland
p7580
I1810
sVricher
p7581
I7798
sVemmett
p7582
I3845
sVtommi
p7583
I7800
sVclip
p7584
I1811
sVsplatter
p7585
I3544
sVcrucifi
p7586
I5826
sVtaranski
p7587
I796
sVafraid
p7588
I7801
sVrout
p7589
I3848
sVanglo
p7590
I5828
sVcontact
p7591
I4478
sVgrampa
p7592
I5308
sVwhich
p7593
I5829
sVdivert
p7594
I7504
sVmartha
p7595
I1814
sVdivers
p7596
I7802
sVwha
p7597
I1815
sVcombat
p7598
I3849
sVwho
p7599
I1816
sVwhi
p7600
I1817
sVextermin
p7601
I5830
sVclass
p7602
I5831
sVfang
p7603
I5227
sVdens
p7604
I7803
sVdent
p7605
I7804
sVpipe
p7606
I1818
sVdeni
p7607
I7805
sVdetermin
p7608
I1819
sVschulz
p7609
I4949
sVgain
p7610
I903
sVniec
p7611
I3850
sVbrenda
p7612
I1820
sVone'
p7613
I1299
sVdorothi
p7614
I3851
sVstove
p7615
I5833
sVhm
p7616
I26
sVmust'v
p7617
I3852
sVutter
p7618
I1821
sVfear
p7619
I1822
sVwinch
p7620
I904
sVnearer
p7621
I1823
sVear
p7622
I4841
sVlocat
p7623
I1824
sVpiano
p7624
I5834
sVmargo
p7625
I6872
sVlocal
p7626
I1825
sVhaircut
p7627
I2585
sVcontribut
p7628
I5835
sVcuba
p7629
I1826
sVburglari
p7630
I1827
sVdope
p7631
I7807
sVsuez
p7632
I7808
sVghetto
p7633
I7809
sVwallpap
p7634
I1828
sVnope
p7635
I2238
sVripley
p7636
I5837
sVrita
p7637
I6229
sVview
p7638
I7122
sVexpel
p7639
I3854
sVcredibl
p7640
I3855
sVknowledg
p7641
I5839
sVdistract
p7642
I3856
sVviolet
p7643
I7810
sVcloser
p7644
I7811
sVentranc
p7645
I7812
sVcole
p7646
I2587
sVpanti
p7647
I7813
sVcloset
p7648
I7814
sVmom'
p7649
I7564
sVfavor
p7650
I1829
sVcrude
p7651
I1830
sVchemic
p7652
I3647
sVtorpedo
p7653
I3857
sVspeed
p7654
I2658
sVbought
p7655
I1831
sVexam
p7656
I5842
sVamen
p7657
I5843
sVjoy
p7658
I1832
sVfocus
p7659
I5499
sVjob
p7660
I1833
sVhobb
p7661
I3858
sVjoe
p7662
I1834
sVspoil
p7663
I7816
sVjog
p7664
I1835
sVarni
p7665
I1876
sVjon
p7666
I1836
sVaddit
p7667
I2451
sVrenault
p7668
I5844
sVnorbert
p7669
I3860
sVlifeboat
p7670
I1837
sVapril
p7671
I1839
sVgrain
p7672
I7817
sVcommitte
p7673
I3861
sVswana
p7674
I7566
sVbronx
p7675
I3862
sVwall
p7676
I5845
sVarriv
p7677
I5846
sVwalk
p7678
I5847
sVwalt
p7679
I5848
sVrespect
p7680
I3863
sVamigo
p7681
I3864
sVdecent
p7682
I1840
sVdaphn
p7683
I3865
sVcompos
p7684
I3866
sVtutor
p7685
I3867
sVauggi
p7686
I3698
sVmotherfuck
p7687
I1842
sVdecenc
p7688
I1843
sVmike
p7689
I5850
sVnickel
p7690
I5851
sVtreasur
p7691
I7819
sVpresenc
p7692
I5852
sVtap
p7693
I7774
sVhmm
p7694
I3868
sVpainter
p7695
I3869
sVgardin
p7696
I3711
sVinfluenc
p7697
I2848
sVwilt
p7698
I7820
sVvanilla
p7699
I7821
sVvicki
p7700
I1844
sVwill
p7701
I7822
sVfingertip
p7702
I1845
sVwild
p7703
I7823
sVrichi
p7704
I7824
sVplead
p7705
I5777
sVobserv
p7706
I1846
sVlayer
p7707
I3870
sVmutant
p7708
I5854
sVrooster
p7709
I1847
sVduan
p7710
I3871
sVsnuck
p7711
I3872
sVthug
p7712
I1849
sVartoo
p7713
I7825
sVwhore
p7714
I7827
sVwealthi
p7715
I618
sVcross
p7716
I3873
sVfightin'
p7717
I3874
sVmember
p7718
I3875
sVlargest
p7719
I1850
sVinch
p7720
I5855
sVphylli
p7721
I7675
sVdifficult
p7722
I1851
sVslave
p7723
I1852
sVlobbi
p7724
I5856
sVromeo
p7725
I1853
sVbeast
p7726
I3877
sVshermin
p7727
I3878
sVstudent
p7728
I5857
sVsuzi
p7729
I1854
sVpedal
p7730
I5858
sVwhale
p7731
I5859
sVcollar
p7732
I5860
sVgutter
p7733
I5861
sVenglish
p7734
I7828
sVhamilton
p7735
I5862
sVbreaker
p7736
I7829
sVrocket
p7737
I7830
sVcamel
p7738
I1855
sVpercent
p7739
I7865
sVobtain
p7740
I5863
sVcould'v
p7741
I5864
sVtch
p7742
I1856
sVheavili
p7743
I1857
sVsimultan
p7744
I5866
sVchickenshit
p7745
I792
sVrapid
p7746
I3880
sVpanther
p7747
I3881
sVbell
p7748
I312
sVsmith
p7749
I5867
sVdiscuss
p7750
I6579
sVclyde
p7751
I7833
sVnicki
p7752
I3882
sVski
p7753
I7834
sVsammi
p7754
I5868
sVrememb
p7755
I1859
sVmyth
p7756
I3883
sVwho'r
p7757
I7733
sVwho'v
p7758
I3884
sVleon
p7759
I2243
sVknot
p7760
I7837
sVpress
p7761
I1860
sVknox
p7762
I7838
sVhollow
p7763
I5869
sVwho'd
p7764
I3885
sVincred
p7765
I1861
sVsafest
p7766
I1862
sVimbecil
p7767
I3886
sVloser
p7768
I3887
sVlawson
p7769
I3888
sVdancer
p7770
I7839
sVwhy'r
p7771
I5871
sValabama
p7772
I5468
sVexceed
p7773
I1863
sVnigga
p7774
I7840
sVscottish
p7775
I6237
sV114
p7776
I7841
sVgrowth
p7777
I3889
sVholler
p7778
I7842
sVwhy'd
p7779
I5872
sVstar
p7780
I909
sV'caus
p7781
I5873
sVleaf
p7782
I7843
sVjuno
p7783
I7872
sVlead
p7784
I7844
sVgettin'
p7785
I7845
sVleak
p7786
I7846
sVminer
p7787
I3890
sVleas
p7788
I7848
sVleap
p7789
I7849
sVjeremi
p7790
I1864
sVsettl
p7791
I7851
sVsmyth
p7792
I1865
sVleader
p7793
I7852
sVinvestig
p7794
I5874
sVobey
p7795
I3891
sVsuperstit
p7796
I7854
sVslut
p7797
I7855
sVwesley
p7798
I7856
sVripper
p7799
I1866
sVpasta
p7800
I1867
sVslug
p7801
I7857
sVafter
p7802
I4417
sVthrone
p7803
I7858
sVpike
p7804
I3821
sVrare
p7805
I1868
sVcolumn
p7806
I7771
sVbiscuit
p7807
I7859
sVcarrier
p7808
I1869
sVhawkin
p7809
I3892
sVsweat
p7810
I5876
sVstab
p7811
I912
sVemperor
p7812
I3893
sVdisabl
p7813
I3832
sVowl
p7814
I3894
sVmaranzano
p7815
I3834
sVown
p7816
I3895
sVowe
p7817
I3896
sVclifton
p7818
I1870
sVautomat
p7819
I3897
sVstan
p7820
I913
sVweather
p7821
I1871
sVchamp
p7822
I3898
sVbrush
p7823
I7860
sVbuick
p7824
I1872
sVrenard
p7825
I7861
sVnuke
p7826
I1873
sVvan
p7827
I5877
sVval
p7828
I5878
sVtransfer
p7829
I1874
sVcinderella
p7830
I5879
sVappl
p7831
I3900
sVed
p7832
I2600
sVnourish
p7833
I3847
sVyeah
p7834
I627
sVliquor
p7835
I3901
sVmade
p7836
I5880
sVhitter
p7837
I5881
sVwhether
p7838
I3853
sVinjur
p7839
I3902
sVtroubl
p7840
I3903
sVkiddin'
p7841
I5882
sVrecord
p7842
I3904
sVbelow
p7843
I5883
sVbelov
p7844
I5884
sVcake
p7845
I1875
sVfaggot
p7846
I3859
sVcaptain'
p7847
I1877
sVmeaningless
p7848
I7862
sVmaroon
p7849
I1878
sVjenni
p7850
I5885
sVet
p7851
I2603
sVbuffi
p7852
I7863
sVhelluva
p7853
I6887
sVsquirrel
p7854
I791
sVdiplomat
p7855
I3876
sVboot
p7856
I7831
sVother
p7857
I3905
sVboom
p7858
I7867
sVsick
p7859
I797
sVboob
p7860
I7869
sVarami
p7861
I7870
sVjunk
p7862
I7871
sVwheeler
p7863
I5888
sVmanray
p7864
I1879
sVjune
p7865
I7873
sVmargaret
p7866
I5889
sVkinda
p7867
I1880
sVhumbl
p7868
I3899
sVcliff
p7869
I699
sVextort
p7870
I5890
sVexperienc
p7871
I5891
sVscientif
p7872
I1881
sVreliabl
p7873
I3906
sVjewel
p7874
I3907
sVemerg
p7875
I7875
sVauxiliari
p7876
I1882
sVoklahoma
p7877
I5533
s.