(dp0
S'm560'
p1
I0
sS'm168'
p2
I-1
sS'm169'
p3
I0
sS'm437'
p4
I0
sS'm160'
p5
I0
sS'm489'
p6
I-1
sS'm161'
p7
I0
sS'm488'
p8
I0
sS'm281'
p9
I1
sS'm280'
p10
I1
sS'm368'
p11
I-1
sS'm282'
p12
I0
sS'm285'
p13
I1
sS'm284'
p14
I0
sS'm287'
p15
I1
sS'm286'
p16
I-1
sS'm362'
p17
I1
sS'm288'
p18
I0
sS'm360'
p19
I0
sS'm361'
p20
I0
sS'm366'
p21
I0
sS'm367'
p22
I0
sS'm364'
p23
I0
sS'm365'
p24
I-1
sS'm218'
p25
I-1
sS'm219'
p26
I0
sS'm216'
p27
I1
sS'm217'
p28
I1
sS'm214'
p29
I0
sS'm215'
p30
I0
sS'm212'
p31
I0
sS'm213'
p32
I-1
sS'm210'
p33
I0
sS'm211'
p34
I0
sS'm39'
p35
I0
sS'm38'
p36
I0
sS'm37'
p37
I0
sS'm36'
p38
I-1
sS'm35'
p39
I1
sS'm34'
p40
I-1
sS'm33'
p41
I0
sS'm32'
p42
I0
sS'm31'
p43
I0
sS'm30'
p44
I-1
sS'm443'
p45
I-1
sS'm442'
p46
I-1
sS'm441'
p47
I-1
sS'm440'
p48
I0
sS'm447'
p49
I0
sS'm446'
p50
I0
sS'm445'
p51
I-1
sS'm444'
p52
I1
sS'm449'
p53
I0
sS'm448'
p54
I1
sS'm55'
p55
I-1
sS'm54'
p56
I0
sS'm57'
p57
I1
sS'm542'
p58
I1
sS'm543'
p59
I1
sS'm540'
p60
I1
sS'm56'
p61
I1
sS'm546'
p62
I-1
sS'm547'
p63
I0
sS'm544'
p64
I1
sS'm545'
p65
I0
sS'm51'
p66
I1
sS'm548'
p67
I0
sS'm549'
p68
I0
sS'm50'
p69
I1
sS'm53'
p70
I0
sS'm52'
p71
I-1
sS'm146'
p72
I0
sS'm147'
p73
I0
sS'm144'
p74
I-1
sS'm145'
p75
I0
sS'm142'
p76
I0
sS'm143'
p77
I-1
sS'm140'
p78
I1
sS'm141'
p79
I0
sS'm148'
p80
I1
sS'm149'
p81
I1
sS'm59'
p82
I-1
sS'm58'
p83
I1
sS'm5'
p84
I0
sS'm4'
p85
I-1
sS'm7'
p86
I1
sS'm6'
p87
I-1
sS'm1'
p88
I0
sS'm0'
p89
I1
sS'm3'
p90
I-1
sS'm2'
p91
I0
sS'm9'
p92
I0
sS'm8'
p93
I0
sS'm423'
p94
I-1
sS'm88'
p95
I-1
sS'm89'
p96
I1
sS'm86'
p97
I-1
sS'm87'
p98
I1
sS'm84'
p99
I1
sS'm85'
p100
I-1
sS'm82'
p101
I0
sS'm83'
p102
I-1
sS'm80'
p103
I1
sS'm81'
p104
I0
sS'm429'
p105
I0
sS'm428'
p106
I1
sS'm438'
p107
I-1
sS'm439'
p108
I-1
sS'm432'
p109
I-1
sS'm433'
p110
I0
sS'm430'
p111
I-1
sS'm431'
p112
I-1
sS'm436'
p113
I1
sS'm283'
p114
I1
sS'm434'
p115
I0
sS'm435'
p116
I0
sS'm369'
p117
I0
sS'm245'
p118
I0
sS'm289'
p119
I-1
sS'm247'
p120
I-1
sS'm246'
p121
I0
sS'm241'
p122
I0
sS'm240'
p123
I1
sS'm243'
p124
I1
sS'm329'
p125
I1
sS'm326'
p126
I-1
sS'm327'
p127
I0
sS'm324'
p128
I1
sS'm325'
p129
I1
sS'm249'
p130
I1
sS'm323'
p131
I1
sS'm320'
p132
I0
sS'm321'
p133
I-1
sS'm506'
p134
I1
sS'm507'
p135
I1
sS'm504'
p136
I1
sS'm505'
p137
I1
sS'm502'
p138
I-1
sS'm503'
p139
I-1
sS'm500'
p140
I1
sS'm501'
p141
I0
sS'm115'
p142
I0
sS'm114'
p143
I0
sS'm117'
p144
I1
sS'm372'
p145
I1
sS'm111'
p146
I1
sS'm110'
p147
I0
sS'm508'
p148
I1
sS'm112'
p149
I0
sS'm60'
p150
I-1
sS'm61'
p151
I1
sS'm62'
p152
I1
sS'm63'
p153
I1
sS'm64'
p154
I1
sS'm65'
p155
I-1
sS'm66'
p156
I1
sS'm67'
p157
I1
sS'm68'
p158
I-1
sS'm472'
p159
I1
sS'm378'
p160
I0
sS'm188'
p161
I0
sS'm189'
p162
I-1
sS'm182'
p163
I0
sS'm183'
p164
I1
sS'm180'
p165
I0
sS'm181'
p166
I0
sS'm186'
p167
I1
sS'm187'
p168
I-1
sS'm184'
p169
I1
sS'm608'
p170
I1
sS'm612'
p171
I1
sS'm613'
p172
I1
sS'm610'
p173
I0
sS'm611'
p174
I0
sS'm616'
p175
I0
sS'm614'
p176
I1
sS'm615'
p177
I-1
sS'm422'
p178
I-1
sS'm244'
p179
I0
sS'm568'
p180
I0
sS'm569'
p181
I0
sS'm91'
p182
I0
sS'm90'
p183
I1
sS'm250'
p184
I-1
sS'm251'
p185
I0
sS'm328'
p186
I1
sS'm256'
p187
I-1
sS'm242'
p188
I1
sS'm257'
p189
I-1
sS'm254'
p190
I-1
sS'm255'
p191
I0
sS'm322'
p192
I0
sS'm248'
p193
I0
sS'm559'
p194
I1
sS'm491'
p195
I1
sS'm278'
p196
I1
sS'm279'
p197
I0
sS'm274'
p198
I-1
sS'm275'
p199
I0
sS'm276'
p200
I1
sS'm277'
p201
I-1
sS'm270'
p202
I0
sS'm271'
p203
I-1
sS'm272'
p204
I1
sS'm273'
p205
I0
sS'm119'
p206
I0
sS'm118'
p207
I1
sS'm551'
p208
I0
sS'm499'
p209
I-1
sS'm209'
p210
I1
sS'm208'
p211
I0
sS'm201'
p212
I0
sS'm200'
p213
I1
sS'm203'
p214
I0
sS'm202'
p215
I-1
sS'm205'
p216
I-1
sS'm204'
p217
I0
sS'm207'
p218
I0
sS'm206'
p219
I1
sS'm116'
p220
I0
sS'm388'
p221
I0
sS'm389'
p222
I0
sS'm113'
p223
I-1
sS'm380'
p224
I1
sS'm381'
p225
I1
sS'm382'
p226
I0
sS'm383'
p227
I1
sS'm384'
p228
I1
sS'm385'
p229
I0
sS'm386'
p230
I1
sS'm387'
p231
I0
sS'm28'
p232
I-1
sS'm29'
p233
I1
sS'm24'
p234
I1
sS'm25'
p235
I0
sS'm26'
p236
I1
sS'm27'
p237
I0
sS'm20'
p238
I-1
sS'm21'
p239
I-1
sS'm22'
p240
I-1
sS'm23'
p241
I0
sS'm375'
p242
I1
sS'm374'
p243
I0
sS'm377'
p244
I-1
sS'm376'
p245
I0
sS'm371'
p246
I-1
sS'm370'
p247
I0
sS'm373'
p248
I-1
sS'm479'
p249
I1
sS'm476'
p250
I0
sS'm477'
p251
I-1
sS'm474'
p252
I-1
sS'm475'
p253
I0
sS'm379'
p254
I1
sS'm473'
p255
I1
sS'm470'
p256
I0
sS'm471'
p257
I1
sS'm124'
p258
I-1
sS'm125'
p259
I-1
sS'm126'
p260
I-1
sS'm127'
p261
I1
sS'm120'
p262
I0
sS'm121'
p263
I-1
sS'm122'
p264
I-1
sS'm123'
p265
I-1
sS'm128'
p266
I1
sS'm129'
p267
I0
sS'm494'
p268
I-1
sS'm495'
p269
I0
sS'm496'
p270
I0
sS'm497'
p271
I1
sS'm490'
p272
I0
sS'm558'
p273
I0
sS'm492'
p274
I-1
sS'm493'
p275
I1
sS'm555'
p276
I0
sS'm554'
p277
I0
sS'm557'
p278
I0
sS'm556'
p279
I0
sS'm498'
p280
I0
sS'm550'
p281
I1
sS'm553'
p282
I0
sS'm552'
p283
I0
sS'm151'
p284
I1
sS'm150'
p285
I-1
sS'm153'
p286
I-1
sS'm152'
p287
I0
sS'm155'
p288
I1
sS'm154'
p289
I0
sS'm157'
p290
I0
sS'm156'
p291
I-1
sS'm159'
p292
I1
sS'm158'
p293
I0
sS'm290'
p294
I1
sS'm69'
p295
I0
sS'm185'
p296
I0
sS'm348'
p297
I-1
sS'm349'
p298
I1
sS'm344'
p299
I0
sS'm345'
p300
I0
sS'm346'
p301
I-1
sS'm347'
p302
I1
sS'm340'
p303
I0
sS'm341'
p304
I0
sS'm342'
p305
I0
sS'm343'
p306
I-1
sS'm339'
p307
I-1
sS'm338'
p308
I-1
sS'm232'
p309
I0
sS'm233'
p310
I0
sS'm234'
p311
I1
sS'm235'
p312
I-1
sS'm236'
p313
I1
sS'm237'
p314
I1
sS'm331'
p315
I1
sS'm330'
p316
I-1
sS'm333'
p317
I-1
sS'm332'
p318
I-1
sS'm335'
p319
I0
sS'm334'
p320
I0
sS'm337'
p321
I0
sS'm336'
p322
I1
sS'm511'
p323
I1
sS'm510'
p324
I0
sS'm513'
p325
I0
sS'm512'
p326
I0
sS'm515'
p327
I0
sS'm514'
p328
I0
sS'm517'
p329
I1
sS'm516'
p330
I1
sS'm519'
p331
I1
sS'm518'
p332
I0
sS'm162'
p333
I1
sS'm163'
p334
I-1
sS'm164'
p335
I0
sS'm165'
p336
I0
sS'm166'
p337
I-1
sS'm167'
p338
I1
sS'm363'
p339
I0
sS'm195'
p340
I1
sS'm194'
p341
I0
sS'm197'
p342
I-1
sS'm196'
p343
I1
sS'm191'
p344
I0
sS'm190'
p345
I-1
sS'm193'
p346
I1
sS'm192'
p347
I-1
sS'm291'
p348
I1
sS'm199'
p349
I-1
sS'm198'
p350
I-1
sS'm425'
p351
I1
sS'm424'
p352
I0
sS'm427'
p353
I1
sS'm426'
p354
I-1
sS'm421'
p355
I1
sS'm420'
p356
I0
sS'm588'
p357
I0
sS'm589'
p358
I0
sS'm586'
p359
I-1
sS'm587'
p360
I-1
sS'm584'
p361
I1
sS'm585'
p362
I1
sS'm582'
p363
I-1
sS'm583'
p364
I-1
sS'm580'
p365
I0
sS'm581'
p366
I1
sS'm564'
p367
I0
sS'm565'
p368
I0
sS'm566'
p369
I0
sS'm567'
p370
I0
sS'm609'
p371
I1
sS'm561'
p372
I0
sS'm562'
p373
I0
sS'm563'
p374
I0
sS'm605'
p375
I0
sS'm604'
p376
I0
sS'm607'
p377
I-1
sS'm606'
p378
I1
sS'm601'
p379
I1
sS'm600'
p380
I0
sS'm603'
p381
I0
sS'm602'
p382
I-1
sS'm299'
p383
I-1
sS'm478'
p384
I1
sS'm269'
p385
I0
sS'm268'
p386
I1
sS'm267'
p387
I1
sS'm266'
p388
I-1
sS'm265'
p389
I1
sS'm264'
p390
I-1
sS'm263'
p391
I1
sS'm262'
p392
I1
sS'm261'
p393
I-1
sS'm260'
p394
I0
sS'm509'
p395
I0
sS'm541'
p396
I1
sS'm418'
p397
I0
sS'm419'
p398
I0
sS'm414'
p399
I1
sS'm415'
p400
I1
sS'm416'
p401
I0
sS'm417'
p402
I0
sS'm410'
p403
I0
sS'm411'
p404
I1
sS'm412'
p405
I0
sS'm413'
p406
I0
sS'm11'
p407
I-1
sS'm10'
p408
I0
sS'm13'
p409
I1
sS'm12'
p410
I0
sS'm15'
p411
I1
sS'm14'
p412
I-1
sS'm17'
p413
I-1
sS'm16'
p414
I1
sS'm19'
p415
I-1
sS'm18'
p416
I0
sS'm391'
p417
I1
sS'm390'
p418
I0
sS'm397'
p419
I0
sS'm396'
p420
I1
sS'm395'
p421
I0
sS'm394'
p422
I1
sS'm300'
p423
I-1
sS'm301'
p424
I1
sS'm302'
p425
I-1
sS'm303'
p426
I-1
sS'm304'
p427
I1
sS'm305'
p428
I-1
sS'm306'
p429
I1
sS'm307'
p430
I1
sS'm308'
p431
I0
sS'm309'
p432
I0
sS'm463'
p433
I-1
sS'm462'
p434
I1
sS'm465'
p435
I-1
sS'm464'
p436
I0
sS'm467'
p437
I-1
sS'm466'
p438
I0
sS'm137'
p439
I1
sS'm136'
p440
I0
sS'm135'
p441
I1
sS'm134'
p442
I-1
sS'm133'
p443
I1
sS'm132'
p444
I1
sS'm131'
p445
I1
sS'm130'
p446
I1
sS'm139'
p447
I-1
sS'm138'
p448
I0
sS'm487'
p449
I0
sS'm486'
p450
I0
sS'm485'
p451
I0
sS'm484'
p452
I1
sS'm483'
p453
I1
sS'm482'
p454
I1
sS'm481'
p455
I0
sS'm480'
p456
I0
sS'm520'
p457
I0
sS'm521'
p458
I1
sS'm522'
p459
I1
sS'm523'
p460
I0
sS'm524'
p461
I0
sS'm525'
p462
I1
sS'm526'
p463
I0
sS'm527'
p464
I0
sS'm72'
p465
I1
sS'm74'
p466
I-1
sS'm296'
p467
I-1
sS'm297'
p468
I0
sS'm294'
p469
I1
sS'm295'
p470
I0
sS'm292'
p471
I0
sS'm293'
p472
I-1
sS'm359'
p473
I1
sS'm358'
p474
I0
sS'm357'
p475
I0
sS'm356'
p476
I0
sS'm355'
p477
I-1
sS'm354'
p478
I0
sS'm353'
p479
I1
sS'm352'
p480
I0
sS'm351'
p481
I-1
sS'm350'
p482
I1
sS'm223'
p483
I0
sS'm222'
p484
I1
sS'm221'
p485
I-1
sS'm220'
p486
I-1
sS'm227'
p487
I1
sS'm226'
p488
I0
sS'm225'
p489
I0
sS'm224'
p490
I1
sS'm229'
p491
I-1
sS'm228'
p492
I0
sS'm179'
p493
I-1
sS'm178'
p494
I1
sS'm173'
p495
I1
sS'm172'
p496
I1
sS'm171'
p497
I0
sS'm170'
p498
I-1
sS'm177'
p499
I0
sS'm176'
p500
I0
sS'm175'
p501
I-1
sS'm174'
p502
I0
sS'm48'
p503
I-1
sS'm49'
p504
I0
sS'm42'
p505
I-1
sS'm43'
p506
I-1
sS'm40'
p507
I-1
sS'm41'
p508
I0
sS'm46'
p509
I0
sS'm47'
p510
I-1
sS'm44'
p511
I0
sS'm45'
p512
I0
sS'm450'
p513
I0
sS'm451'
p514
I1
sS'm452'
p515
I-1
sS'm398'
p516
I-1
sS'm454'
p517
I1
sS'm455'
p518
I0
sS'm456'
p519
I0
sS'm457'
p520
I0
sS'm458'
p521
I1
sS'm459'
p522
I0
sS'm593'
p523
I-1
sS'm592'
p524
I0
sS'm595'
p525
I0
sS'm594'
p526
I-1
sS'm597'
p527
I0
sS'm596'
p528
I0
sS'm577'
p529
I0
sS'm393'
p530
I1
sS'm575'
p531
I0
sS'm574'
p532
I1
sS'm573'
p533
I0
sS'm572'
p534
I0
sS'm571'
p535
I-1
sS'm570'
p536
I0
sS'm579'
p537
I1
sS'm578'
p538
I0
sS'm599'
p539
I1
sS'm598'
p540
I0
sS'm453'
p541
I1
sS'm591'
p542
I0
sS'm590'
p543
I-1
sS'm392'
p544
I0
sS'm99'
p545
I-1
sS'm98'
p546
I-1
sS'm258'
p547
I-1
sS'm259'
p548
I-1
sS'm252'
p549
I1
sS'm253'
p550
I1
sS'm93'
p551
I1
sS'm92'
p552
I0
sS'm95'
p553
I1
sS'm94'
p554
I0
sS'm97'
p555
I1
sS'm96'
p556
I0
sS'm469'
p557
I1
sS'm468'
p558
I-1
sS'm409'
p559
I-1
sS'm408'
p560
I0
sS'm407'
p561
I0
sS'm406'
p562
I0
sS'm405'
p563
I0
sS'm404'
p564
I0
sS'm403'
p565
I0
sS'm402'
p566
I1
sS'm401'
p567
I1
sS'm400'
p568
I1
sS'm461'
p569
I1
sS'm460'
p570
I0
sS'm576'
p571
I1
sS'm313'
p572
I0
sS'm312'
p573
I1
sS'm311'
p574
I1
sS'm310'
p575
I1
sS'm317'
p576
I1
sS'm316'
p577
I1
sS'm315'
p578
I-1
sS'm314'
p579
I1
sS'm319'
p580
I0
sS'm318'
p581
I-1
sS'm102'
p582
I1
sS'm103'
p583
I1
sS'm100'
p584
I0
sS'm101'
p585
I0
sS'm106'
p586
I-1
sS'm107'
p587
I1
sS'm104'
p588
I0
sS'm105'
p589
I1
sS'm108'
p590
I1
sS'm109'
p591
I1
sS'm539'
p592
I-1
sS'm538'
p593
I0
sS'm533'
p594
I1
sS'm532'
p595
I0
sS'm531'
p596
I-1
sS'm530'
p597
I1
sS'm537'
p598
I1
sS'm536'
p599
I-1
sS'm535'
p600
I0
sS'm534'
p601
I0
sS'm73'
p602
I0
sS'm230'
p603
I0
sS'm71'
p604
I0
sS'm70'
p605
I0
sS'm77'
p606
I0
sS'm76'
p607
I1
sS'm75'
p608
I-1
sS'm231'
p609
I0
sS'm79'
p610
I0
sS'm78'
p611
I1
sS'm238'
p612
I1
sS'm239'
p613
I0
sS'm528'
p614
I-1
sS'm399'
p615
I0
sS'm529'
p616
I1
sS'm298'
p617
I-1
s.