(lp0
S'TOTAL PRON'
p1
aS'ANXIETY'
p2
aS'LEISURE'
p3
aS'EXCLUSION'
p4
aS'1ST SINGULAR'
p5
aS'CERTAINTY'
p6
aS'HUMANS'
p7
aS'CONJUNCTIONS'
p8
aS'SADNESS'
p9
aS'INHIBITION'
p10
aS'1ST PLURAL'
p11
aS'RELATIVITY'
p12
aS'HOME'
p13
aS'COGNITIVE PROCESSES'
p14
aS'TENTATIVENESS'
p15
aS'INCLUSION'
p16
aS'QUANTIFIERS'
p17
aS'SEXUAL'
p18
aS'POSITIVE EMOTION'
p19
aS'INSIGHT'
p20
aS'DISCREPANCY'
p21
aS'MOTION'
p22
aS'PRESENT TENSE'
p23
aS'BIOLOGICAL PROCESSES'
p24
aS'NEGATIONS'
p25
aS'ANGER'
p26
aS'HEALTH'
p27
aS'ACHIEVEMENT'
p28
aS'COMMON VERBS'
p29
aS'BODY'
p30
aS'SEEING'
p31
aS'3RD SINGULAR'
p32
aS'FUNCTION WORDS'
p33
aS'FAMILY'
p34
aS'SPACE'
p35
aS'ASSENT'
p36
aS'TIME'
p37
aS'IMPERSONAL PRON'
p38
aS'AUXILIARY VERBS'
p39
aS'INGESTION'
p40
aS'NUMBERS'
p41
aS'MONEY'
p42
aS'NON-FLUENCIES'
p43
aS'SWEAR WORDS'
p44
aS'FEELING'
p45
aS'RELIGION'
p46
aS'FILLERS'
p47
aS'ARTICLES'
p48
aS'TOTAL 2ND'
p49
aS'FUTURE TENSE'
p50
aS'AFFECTIVE PROCESSES'
p51
aS'WORK'
p52
aS'SOCIAL PROCESSES'
p53
aS'PERCEPTUAL PROCESSES'
p54
aS'HEARING'
p55
aS'PREPOSITIONS'
p56
aS'ADVERBS'
p57
aS'3RD PLURAL'
p58
aS'PERSONAL PRON'
p59
aS'DEATH'
p60
aS'FRIENDS'
p61
aS'CAUSATION'
p62
aS'NEGATIVE EMOTION'
p63
aS'PAST TENSE'
p64
a.