(dp0
S'TOTAL PRON'
p1
c__builtin__
set
p2
((lp3
Vshe'll
p4
aVitd
p5
aVwho'll
p6
aVsomebod
p7
aVwhose
p8
aVitll
p9
aVhe'd
p10
aVthem
p11
aVthey'v
p12
aVwhichev
p13
aVya
p14
aVit'
p15
aVthee
p16
aVye
p17
aVthey'd
p18
aVthey
p19
aVwho'd
p20
aVhim
p21
aVwe'll
p22
aVsomewher
p23
aVlet'
p24
aVanyth
p25
aVstuff
p26
aVshe
p27
aVanybod
p28
aVeverybod
p29
aVyall
p30
aVit'll
p31
aVi'll
p32
aVweve
p33
aVwe'r
p34
aVyou'd
p35
aVwe'v
p36
aVyou'r
p37
aVwe'd
p38
aVthoust
p39
aVour
p40
aVwhat
p41
aVsometh
p42
aVthat'
p43
aVthey'll
p44
aVnobod
p45
aVyoull
p46
aVshe'
p47
aVwe
p48
aVthemselv
p49
aVlet
p50
aVi'v
p51
aVthou
p52
aVthing
p53
aVthine
p54
aVwholl
p55
aVi'm
p56
aVourselv
p57
aVy'all
p58
aVtheyv
p59
aVyoud
p60
aVtheyd
p61
aVyouv
p62
aVyour
p63
aVher
p64
aVwhom
p65
aVhed
p66
aVtheir
p67
aVwhod
p68
aVit'd
p69
aVhimself
p70
aVi'd
p71
aVthat
p72
aVmine
p73
aVwhat'
p74
aVhi
p75
aVthat'll
p76
aVherself
p77
aVthose
p78
aVhe
p79
aVme
p80
aVmyself
p81
aVthese
p82
aVus
p83
aVi
p84
aVhe'
p85
aVwhatev
p86
aVmy
p87
aVeveryon
p88
aVive
p89
aVthatll
p90
aVyou'v
p91
aVit
p92
aVitself
p93
aVim
p94
aVid
p95
aVtheyll
p96
aVother
p97
aVanyon
p98
aVwhich
p99
aVyou
p100
aVoneself
p101
aVwho
p102
aVsomeon
p103
aVthat'd
p104
aVshe'd
p105
aVyou'll
p106
aVthi
p107
aVeveryth
p108
aVthatd
p109
atp110
Rp111
sS'ANXIETY'
p112
g2
((lp113
Vshaki
p114
aVdistress
p115
aVfright
p116
aVturmoil
p117
aVoverwhelm
p118
aVemot
p119
aVnervou
p120
aVterrifi
p121
aVneurot
p122
aVindeci
p123
aVasham
p124
aVfrantic
p125
aVhesita
p126
aVhumiliat
p127
aVfear
p128
aVrepress
p129
aVanguish
p130
aVrestless
p131
aVpetrif
p132
aVvulnerab
p133
aVafraid
p134
aVawkward
p135
aVsicken
p136
aVshake
p137
aVavoid
p138
aVunea
p139
aVtrembl
p140
aVcraz
p141
aVmiser
p142
aVshame
p143
aVdoubt
p144
aVtens
p145
aVdwell
p146
aVstartl
p147
aVpanic
p148
aVapprehen
p149
aVtension
p150
aVsuspicio
p151
aVpressur
p152
aVrisk
p153
aVconfu
p154
aVunsur
p155
aVphobi
p156
aVinsecur
p157
aVstress
p158
aVterror
p159
aVdiscomfort
p160
aVinhib
p161
aVrigid
p162
aVuncontrol
p163
aVdistraught
p164
aVembarrass
p165
aVtimid
p166
aVinadequa
p167
aVirrita
p168
aVdisturb
p169
aVuncertain
p170
aVuncomfortabl
p171
aVstrain
p172
aVimpatien
p173
aVstun
p174
aValarm
p175
aVupset
p176
aVuptight
p177
aVdistract
p178
aVstruggl
p179
aVanxi
p180
aVscari
p181
aVworr
p182
aVhorr
p183
aVguilt
p184
aVdread
p185
aVdesperat
p186
aVshook
p187
aVshi
p188
aVaversi
p189
aVobsess
p190
aVscare
p191
aVreluctan
p192
aVirrat
p193
atp194
Rp195
sS'LEISURE'
p196
g2
((lp197
Vshop
p198
aVcoach
p199
aVgolf
p200
aVbirdi
p201
aVtequila
p202
aVactress
p203
aVhorseback
p204
aVchoru
p205
aVradio
p206
aVskat
p207
aVrest
p208
aVchillin
p209
aVrow
p210
aVballet
p211
aVhik
p212
aVfit
p213
aVtv
p214
aVmovi
p215
aVblog
p216
aVbike
p217
aVhockey
p218
aVscrapbook
p219
aVholiday
p220
aVski
p221
aVskier
p222
aVswim
p223
aVcrui
p224
aVshopahol
p225
aVdj
p226
aVgarden
p227
aVsong
p228
aVread
p229
aVworkout
p230
aVjazz
p231
aVfrisbe
p232
aVtenni
p233
aVband
p234
aVgame
p235
aVtriathl
p236
aVblackjack
p237
aVcook
p238
aVticket
p239
aVbath
p240
aVamu
p241
aVathlet
p242
aVapart
p243
aVbar
p244
aVartist
p245
aVopera
p246
aVhotel
p247
aVhunt
p248
aVsoap
p249
aVchoir
p250
aVsang
p251
aVmagazin
p252
aVrock
p253
aVscrabbl
p254
aVsoccer
p255
aVroller
p256
aVart
p257
aVconcert
p258
aVweight
p259
aVfish
p260
aVpoker
p261
aVplaystat
p262
aVsymphon
p263
aVvideo
p264
aVsport
p265
aVcasual
p266
aVbicyc
p267
aVrestau
p268
aVtelevis
p269
aVunwind
p270
aVmotel
p271
aVorchestra
p272
aVsunbath
p273
aVcd
p274
aVkeg
p275
aVvcr
p276
aVregga
p277
aVrun
p278
aVrum
p279
aVdrumm
p280
aVipod
p281
aVteam
p282
aVfootbal
p283
aVminesweep
p284
aVguitar
p285
aVentertain
p286
aVpub
p287
aVcelebrit
p288
aVjog
p289
aVvolleyb
p290
aVsing
p291
aVcome
p292
aVcard
p293
aVstone
p294
aVsolitair
p295
aVdrum
p296
aVeasi
p297
aVnetflix
p298
aVjoke
p299
aVcasino
p300
aVvacat
p301
aVcelebrat
p302
aVdrama
p303
aVhobb
p304
aVintramur
p305
aVblockbust
p306
aVfantasi
p307
aVdrunk
p308
aVdecorat
p309
aVkegger
p310
aVfamili
p311
aVcomic
p312
aVlaidback
p313
aVmuseum
p314
aVbeer
p315
aVtheat
p316
aVchecker
p317
aVpool
p318
aVshow
p319
aVtoy
p320
aVliquor
p321
aVspa
p322
aVmusi
p323
aVhangout
p324
aVrelax
p325
aVclub
p326
aVgym
p327
aVflatscreen
p328
aVpark
p329
aVwhiski
p330
aVtivo
p331
aVkaraok
p332
aVstandup
p333
aVyard
p334
aVnovel
p335
aVsculpt
p336
aVpretend
p337
aVmtv
p338
aVrecord
p339
aVmall
p340
aVshopp
p341
aVmargarita
p342
aVdanc
p343
aVwhiskey
p344
aVvodka
p345
aVgarag
p346
aVrap
p347
aVcinema
p348
aVrunner
p349
aVexerci
p350
aVxbox
p351
aVinn
p352
aVchat
p353
aVbasebal
p354
aVdiari
p355
aVtan
p356
aVfilm
p357
aVyoga
p358
aVrecreat
p359
aVparti
p360
aVtravel
p361
aVactor
p362
aVnap
p363
aVbook
p364
aVchess
p365
aVrugbi
p366
aVhangin
p367
aVbeach
p368
aVpoetri
p369
aVchannel
p370
aVplay
p371
aVball
p372
aVcocktail
p373
aVpitcher
p374
aVaerob
p375
aVdrink
p376
aVcoffe
p377
aVhiphop
p378
aVtechno
p379
aVnintendo
p380
aVsalsa
p381
aVweekend
p382
aVweightlift
p383
aVbasketbal
p384
aVstereo
p385
aVmarathon
p386
aVdvd
p387
aVcamp
p388
aVmeditat
p389
aVdream
p390
aVmartini
p391
aVwine
p392
atp393
Rp394
sS'EXCLUSION'
p395
g2
((lp396
Vversu
p397
aVunless
p398
aVsometim
p399
aVjust
p400
aVwithout
p401
aVrather
p402
aVexclu
p403
aVexcept
p404
aVbut
p405
aVrealli
p406
aVwhether
p407
aVvs
p408
aVeither
p409
aVsometh
p410
aVnot
p411
aVor
p412
aVif
p413
atp414
Rp415
sS'1ST SINGULAR'
p416
g2
((lp417
Vi'll
p418
aVive
p419
aVmyself
p420
aVi'v
p421
ag84
aVmine
p422
aVme
p423
aVi'd
p424
aVim
p425
aVi'm
p426
aVmy
p427
aVid
p428
atp429
Rp430
sS'CERTAINTY'
p431
g2
((lp432
Vunquest
p433
aVall
p434
aVassur
p435
aVdirectli
p436
aVirrefu
p437
aVcertain
p438
aVtruli
p439
aVmust'nt
p440
aVclearli
p441
aVmustnt
p442
aVmust'v
p443
aVtruest
p444
aVaccura
p445
aVtotal
p446
aVperfect
p447
aVabsolut
p448
aVmustv
p449
aVrealiti
p450
aVobviou
p451
aVinevitab
p452
aVprove
p453
aVdistinct
p454
aVtrue
p455
aVdefinit
p456
aVforev
p457
aValway
p458
aVmust
p459
aVblatant
p460
aVpure
p461
aVunambigu
p462
aVfactual
p463
aVever
p464
aVcorrect
p465
aVconfid
p466
aVreal
p467
aVsure
p468
aVeveri
p469
aVtruth
p470
aVevid
p471
aValtogeth
p472
aVnever
p473
aVcommitt
p474
aVfundamentali
p475
aVentir
p476
aVnecessar
p477
aVwholli
p478
aVextrem
p479
aVappar
p480
aVundoubt
p481
aVlaw
p482
aVexact
p483
aVimplicit
p484
aVinfallib
p485
aVguarant
p486
aVessenti
p487
aVinvariab
p488
aVclear
p489
aVpositiv
p490
aVexplicit
p491
aVpreci
p492
aVinde
p493
aVdefin
p494
aVundeniab
p495
aVfrankli
p496
aVfundament
p497
aVeverybod
p498
aVcommit
p499
aVeveryth
p500
aVcomplet
p501
aVmustn't
p502
aVfact
p503
aVproof
p504
atp505
Rp506
sS'HUMANS'
p507
g2
((lp508
Vinfant
p509
aVboy'
p510
aVperson'
p511
aVparticip
p512
aVindividu
p513
aVchild
p514
aVnewborn
p515
aVwoman
p516
aVhuman
p517
aVpartner
p518
aVgirl
p519
aVchildren
p520
aVmale'
p521
aVsir
p522
aVchick
p523
aVlady'
p524
aVinfant'
p525
aVmember
p526
aVma'am
p527
aVcitizen
p528
aVman
p529
aVcitizen'
p530
aVmen
p531
aVbabe
p532
aVbabi
p533
aVbambino
p534
aVkid'
p535
aVladi
p536
aVsociet
p537
aVadult
p538
aVchild'
p539
aVmam
p540
aVman'
p541
aVpeopl
p542
aVkid
p543
aVboy
p544
aVfemal
p545
aVmen'
p546
aVgentlem
p547
aVperson
p548
aVwomen
p549
aVwoman'
p550
aVmr
p551
aVgirl'
p552
aVgrownup
p553
aVguy
p554
aVmale
p555
aVself
p556
aVchick'
p557
atp558
Rp559
sS'CONJUNCTIONS'
p560
g2
((lp561
Vand
p562
aVbecaus
p563
aVas
p564
aVif
p565
aVtill
p566
aVwhen
p567
aVcuz
p568
aVtil
p569
aVhow
p570
aVuntil
p571
aVthen
p572
aVplu
p573
aVunless
p574
aVthough
p575
aVwherea
p576
aVbut
p577
aValthough
p578
aVnor
p579
aValso
p580
aVwhenev
p581
aVwhether
p582
aVhowev
p583
aVatho
p584
aVtho
p585
aVwhile
p586
aVso
p587
aVotherwis
p588
aVor
p589
atp590
Rp591
sS'SADNESS'
p592
g2
((lp593
Vsob
p594
aVregret
p595
aVunimport
p596
aVflunk
p597
aVoverwhelm
p598
aVwhine
p599
aVsad
p600
aVempt
p601
aVruin
p602
aVfatigu
p603
aVfail
p604
aVdisadvantag
p605
aVhelpless
p606
aVsuffer
p607
aVisolat
p608
aVdisillus
p609
aVtragic
p610
aVdamag
p611
aVdepriv
p612
aVdepress
p613
aVworthless
p614
aVunsuccess
p615
aVhomesick
p616
aVsolemn
p617
aVmiss
p618
aVgrim
p619
aVcrush
p620
aVlone
p621
aVlong
p622
aVdissatisf
p623
aVdevastat
p624
aVweep
p625
aVmiser
p626
aVheartbreak
p627
aVsadli
p628
aVlow
p629
aVreject
p630
aVwoe
p631
aVdisappoint
p632
aVyearn
p633
aVinferior
p634
aVpessimi
p635
aVgriev
p636
aVsadd
p637
aVloss
p638
aVagoniz
p639
aVsorrow
p640
aVheartbrok
p641
aVpiti
p642
aVresign
p643
aVhurt
p644
aVgrief
p645
aVtrage
p646
aVmourn
p647
aVbroke
p648
aVagoni
p649
aVuseless
p650
aVdoom
p651
aVdull
p652
aVgrave
p653
aVwept
p654
aVgloom
p655
aVdishearten
p656
aVpathet
p657
aVlame
p658
aVdiscourag
p659
aVtear
p660
aVach
p661
aValon
p662
aVlost
p663
aVloser
p664
aVlose
p665
aVmelanchol
p666
aVdespair
p667
aVremors
p668
aVhopeless
p669
aVunhapp
p670
aVdefeat
p671
aVabandon
p672
aVinadequa
p673
aVcri
p674
aVneglect
p675
atp676
Rp677
sS'INHIBITION'
p678
g2
((lp679
Vabstain
p680
aVforget
p681
aVblocker
p682
aVwari
p683
aVheld
p684
aVhesita
p685
aVdenia
p686
aVfenc
p687
aVrestrain
p688
aVhar
p689
aVsave
p690
aVobstac
p691
aVhalt
p692
aVsafe
p693
aVstop
p694
aVrequir
p695
aVrestrict
p696
aVstopper
p697
aVstiff
p698
aVwait
p699
aVprohib
p700
aVcontain
p701
aVdisregard
p702
aVrein
p703
aVprevent
p704
aVwithheld
p705
aVyield
p706
aVforgot
p707
aVreserv
p708
aVinterf
p709
aVavoid
p710
aVdefenc
p711
aVrepress
p712
aVhangup
p713
aVsubdu
p714
aVavert
p715
aVbarrier
p716
aVveto
p717
aVenclo
p718
aVban
p719
aVuptight
p720
aVtaboo
p721
aVanal
p722
aVcare
p723
aVprotect
p724
aVkeep
p725
aVprude
p726
aVretain
p727
aVneglect
p728
aVreluctan
p729
aVcontrad
p730
aVforbid
p731
aVdisciplin
p732
aVbound
p733
aVduti
p734
aVguard
p735
aVcompulsiv
p736
aVprudish
p737
aVcurtail
p738
aVsuppress
p739
aVrefrain
p740
aVrigid
p741
aVconserv
p742
aVhold
p743
aVlimit
p744
aVabandon
p745
aVcurb
p746
aVcontrol
p747
aVstubborn
p748
aVrefu
p749
aVbrake
p750
aVtidi
p751
aVdefen
p752
aVresponsib
p753
aVinhib
p754
aVsecur
p755
aVceas
p756
aVdelay
p757
aVtight
p758
aVconfin
p759
aVconflict
p760
aVconstrict
p761
aVbridl
p762
aVkept
p763
aVdiscourag
p764
aVbind
p765
aVwithhold
p766
aVdeni
p767
aVblock
p768
aVignor
p769
aVoppo
p770
aVcaut
p771
aVconstrain
p772
atp773
Rp774
sS'1ST PLURAL'
p775
g2
((lp776
Vwe
p777
aVwe'r
p778
aVlet'
p779
aVwe'v
p780
aVwe'll
p781
aVus
p782
aVweve
p783
aVlet
p784
aVwe'd
p785
aVour
p786
aVourselv
p787
atp788
Rp789
sS'RELATIVITY'
p790
g2
((lp791
Vbreadth
p792
aVedg
p793
aVseparat
p794
aVglobal
p795
aVmonth
p796
aVmile
p797
aVgo
p798
aVfollow
p799
aVoldest
p800
aVmiddl
p801
aVswam
p802
aVyoung
p803
aVsend
p804
aVoclock
p805
aVrhythm
p806
aVunder
p807
aVexit
p808
aVsped
p809
aVsent
p810
aVfar
p811
aVrise
p812
aVverg
p813
aVfall
p814
aVoctob
p815
aVvast
p816
aVwent
p817
aVlevel
p818
aVeve
p819
aVquick
p820
aVupper
p821
aVthin
p822
aVjump
p823
aVsecond
p824
aVstreet
p825
aVpass
p826
aVfurther
p827
aVeven
p828
aVappear
p829
aVclock
p830
aVsection
p831
aVbrief
p832
aVcurrent
p833
aVintersect
p834
aVkilomet
p835
aVnew
p836
aVever
p837
aVinciden
p838
aVmovement
p839
aVtempora
p840
aVfull
p841
aVled
p842
aVgener
p843
aVnever
p844
aVenclo
p845
aVaftermath
p846
aVvertic
p847
aVahead
p848
aVanymor
p849
aVthursday
p850
aVthinli
p851
aVprior
p852
aVginorm
p853
aVchang
p854
aVnarrow
p855
aVdepart
p856
aVwhile
p857
aVupstair
p858
aVbrought
p859
aVtill
p860
aVleav
p861
aVcentur
p862
aVcountr
p863
aVproceed
p864
aVunivers
p865
aVvisit
p866
aVcoverag
p867
aVnext
p868
aVmorn
p869
aVdensit
p870
aVuntil
p871
aVtoday
p872
aVhurri
p873
aVstarter
p874
aVtown
p875
aVautumn
p876
aVroom
p877
aVhour
p878
aVcar
p879
aVride
p880
aVfli
p881
aVera
p882
aVshook
p883
aVnearest
p884
aVslid
p885
aVbent
p886
aVrode
p887
aVhigh
p888
aVbend
p889
aVexplor
p890
aVprece
p891
aVgigant
p892
aVhuge
p893
aVsurfac
p894
aVend
p895
aVwinter
p896
aVsit
p897
aVtravel
p898
aVeveryday
p899
aVdelay
p900
aValway
p901
aVsunday
p902
aVstand
p903
aVmap
p904
aVattend
p905
aVafter
p906
aVbefor
p907
aVdate
p908
aVgrow
p909
aVshort
p910
aVonto
p911
aVenviron
p912
aVsouth
p913
aVenter
p914
aVtall
p915
aVorder
p916
aVover
p917
aVmove
p918
aVsoon
p919
aVmeter
p920
aVtop
p921
aVwhilst
p922
aVshake
p923
aVstill
p924
aVbiannu
p925
aVouter
p926
aVweekl
p927
aVfit
p928
aVdecay
p929
aVlate
p930
aVplatform
p931
aVfade
p932
aVdecad
p933
aVbye
p934
aVthen
p935
aVreturn
p936
aVflew
p937
aVnation
p938
aVbreak
p939
aVfront
p940
aVnow
p941
aVflee
p942
aVfled
p943
aVbigger
p944
aVdiagon
p945
aVstopper
p946
aVsomewher
p947
aVdrop
p948
aVweek'
p949
aVfebruari
p950
aVledg
p951
aVceas
p952
aVjanuari
p953
aVbeneath
p954
aVupdat
p955
aVside
p956
aVmetr
p957
aVweek
p958
aVbiweek
p959
aVreplac
p960
aVenorm
p961
aVcontinu
p962
aVwednesday
p963
aVconnect
p964
aVbegun
p965
aVyear
p966
aVhappen
p967
aVbeyond
p968
aVevent
p969
aVout
p970
aVspace
p971
aVgoe
p972
aVnewli
p973
aVspaci
p974
aVshut
p975
aVinsid
p976
aVadvanc
p977
aVupon
p978
aVfriday
p979
aVimmort
p980
aVsmall
p981
aVusual
p982
aVput
p983
aVafterward
p984
aVafterthought
p985
aVetern
p986
aVdepartur
p987
aVmotion
p988
aVplace
p989
aVoutsid
p990
aVthinn
p991
aVfallen
p992
aVchildhood
p993
aVfrequent
p994
aVfirst
p995
aVorigin
p996
aVcarri
p997
aVonc
p998
aVdistan
p999
aVsystem
p1000
aValreadi
p1001
aVlong
p1002
aVthick
p1003
aVdrove
p1004
aVopen
p1005
aVtomorrow
p1006
aVancient
p1007
aVchristma
p1008
aVwidth
p1009
aVcaught
p1010
aVsometim
p1011
aVciti
p1012
aVfinal
p1013
aVlow
p1014
aVseason
p1015
aVjuli
p1016
aVtook
p1017
aVforward
p1018
aVpast
p1019
aVgrew
p1020
aVwhenev
p1021
aVremot
p1022
aVremov
p1023
aVhorizont
p1024
aVyouth
p1025
aVposit
p1026
aVminut
p1027
aVtoward
p1028
aVdanc
p1029
aVbeginn
p1030
aVran
p1031
aVmodern
p1032
aVanywher
p1033
aVtonight
p1034
aVeverywher
p1035
aVdeliv
p1036
aVmin
p1037
aVmid
p1038
aVbuild
p1039
aVinterior
p1040
aVinfinit
p1041
aVbegin
p1042
aVsubsequen
p1043
aVsegment
p1044
aVdens
p1045
aVlater
p1046
aVflow
p1047
aVdrive
p1048
aVkm
p1049
aVmeanwhil
p1050
aVoccasion
p1051
aVsenior
p1052
aVlatest
p1053
aVcame
p1054
aVbehavio
p1055
aVtaller
p1056
aVbring
p1057
aVcorner
p1058
aVbrink
p1059
aVground
p1060
aVnearer
p1061
aVgiant
p1062
aVslow
p1063
aVstair
p1064
aVterminat
p1065
aVtransact
p1066
aVforev
p1067
aVbusi
p1068
aVuppermost
p1069
aVlocal
p1070
aVwide
p1071
aVstop
p1072
aVceil
p1073
aVterritor
p1074
aVfastest
p1075
aVhik
p1076
aVcommon
p1077
aVnowher
p1078
aVwhere
p1079
aVset
p1080
aVfarthest
p1081
aVstartup
p1082
aVup
p1083
aVclose
p1084
aVoutward
p1085
aVcloser
p1086
aVentranc
p1087
aVaway
p1088
aVstate
p1089
aVbimonth
p1090
aVapproach
p1091
aVacross
p1092
aVaugust
p1093
aVcycl
p1094
aVjog
p1095
aVcome
p1096
aVboth
p1097
aVlast
p1098
aVannual
p1099
aVapril
p1100
aVjourney
p1101
aVamong
p1102
aVpoint
p1103
aVwall
p1104
aVschedul
p1105
aVtuesday
p1106
aVspann
p1107
aVperiod
p1108
aVheight
p1109
aVyearli
p1110
aVrespect
p1111
aVrecur
p1112
aVstretch
p1113
aVwest
p1114
aVdue
p1115
aVperpetu
p1116
aVrunner
p1117
aVbesid
p1118
aVimmedi
p1119
aVtallest
p1120
aVtini
p1121
aVthrew
p1122
aVfollowup
p1123
aVridden
p1124
aVtogeth
p1125
aVcatch
p1126
aVrepetit
p1127
aVformer
p1128
aVpresent
p1129
aVstraight
p1130
aVhistor
p1131
aVair
p1132
aVnear
p1133
aVabrupt
p1134
aVabov
p1135
aVswim
p1136
aVanytim
p1137
aVcentr
p1138
aVwhere'
p1139
aVsite
p1140
aVsudden
p1141
aVexterior
p1142
aVin
p1143
aVencompass
p1144
aVdisappear
p1145
aVgrown
p1146
aVreceiv
p1147
aVbegan
p1148
aVcross
p1149
aVsynch
p1150
aVinch
p1151
aVeventu
p1152
aVday
p1153
aVnightli
p1154
aVfinish
p1155
aVclosest
p1156
aVrecenc
p1157
aVhang
p1158
aVyesterday
p1159
aVdriven
p1160
aVaction
p1161
aVmoment
p1162
aViniti
p1163
aVwherev
p1164
aVclimb
p1165
aVrecent
p1166
aVunderneath
p1167
aVoff
p1168
aVcenter
p1169
aVolder
p1170
aVfirstli
p1171
aVolden
p1172
aVleft
p1173
aVsummer
p1174
aVdail
p1175
aVnewest
p1176
aVroomi
p1177
aVshape
p1178
aVfarther
p1179
aVsimultan
p1180
aVspeed
p1181
aVyet
p1182
aVsky
p1183
aVlittl
p1184
aVhall
p1185
aVeast
p1186
aVearli
p1187
aVcrui
p1188
aVmarch
p1189
aVaround
p1190
aVbig
p1191
aVterm
p1192
aVarriv
p1193
aVroommat
p1194
aVbirth
p1195
aVworld
p1196
aVwalk
p1197
aVapart
p1198
aVincrea
p1199
aVnight
p1200
aVdownward
p1201
aVright
p1202
aVold
p1203
aVspring
p1204
aVinterv
p1205
aVback
p1206
aVborn
p1207
aVempt
p1208
aVgrowth
p1209
aVtransport
p1210
aVinstan
p1211
aVlead
p1212
aVbottom
p1213
aVbroad
p1214
aVnoon
p1215
aVslide
p1216
aVoverlap
p1217
aVlarg
p1218
aVrun
p1219
aVdrift
p1220
aVstepp
p1221
aVstep
p1222
aVmeantim
p1223
aVpost
p1224
aVthrow
p1225
aVstage
p1226
aVon
p1227
aVundersid
p1228
aVsurround
p1229
aVcarrier
p1230
aVroomat
p1231
aVafternoon
p1232
aVact
p1233
aVroad
p1234
aVcapacit
p1235
aVinto
p1236
aVwithin
p1237
aVdown
p1238
aVawhil
p1239
aVspan
p1240
aVarea
p1241
aVfast
p1242
aVstart
p1243
aVinitiat
p1244
aVinner
p1245
aVway
p1246
aVbiggest
p1247
aVconstantli
p1248
aVhead
p1249
aVnorth
p1250
aVsequen
p1251
aVatop
p1252
aVnewer
p1253
aVoverflow
p1254
aVafterlif
p1255
aVpull
p1256
aVrush
p1257
aVintern
p1258
aVbelow
p1259
aVgone
p1260
aVconstant
p1261
aVtiniest
p1262
aVdure
p1263
aVdeep
p1264
aVnovemb
p1265
aVseptemb
p1266
aVat
p1267
aVmover
p1268
aVtrip
p1269
aVfill
p1270
aVagain
p1271
aVfloor
p1272
aVwhen
p1273
aVsaturday
p1274
aVtil
p1275
aVfutur
p1276
aVrepeat
p1277
aVmonday
p1278
aVo'clock
p1279
aVjune
p1280
aVstay
p1281
aVfell
p1282
aVtinier
p1283
aVweekend
p1284
aVlongitud
p1285
aVago
p1286
aVland
p1287
aVfaster
p1288
aVage
p1289
aVdepth
p1290
aVmass
p1291
aVtime
p1292
aVpush
p1293
aVdecemb
p1294
aVbackward
p1295
atp1296
Rp1297
sS'HOME'
p1298
g2
((lp1299
Vchore
p1300
aVgarag
p1301
aVoven
p1302
aVstove
p1303
aVvacuum
p1304
aVbalcon
p1305
aVbath
p1306
aVloveseat
p1307
aVdriveway
p1308
aVfamili
p1309
aVbedroom
p1310
aVfireplac
p1311
aVhome
p1312
aVmattress
p1313
aVbake
p1314
aVmortg
p1315
aVremodel
p1316
aVmicrowav
p1317
aVblender
p1318
aVdishwash
p1319
aVcloset
p1320
aVhomesick
p1321
aVduplex
p1322
aVbroom
p1323
aVtoaster
p1324
aVcouch
p1325
aVresiden
p1326
aVleas
p1327
aVwindow
p1328
aVsweep
p1329
aVtenant
p1330
aVrenovat
p1331
aVcurtain
p1332
aVcarpet
p1333
aVlandlord
p1334
aVhomework
p1335
aVdresser
p1336
aVgate
p1337
aVdoor
p1338
aVden
p1339
aVloft
p1340
aVporch
p1341
aVdomest
p1342
aVmop
p1343
aVrug
p1344
aVkitchen
p1345
aVfuton
p1346
aVneighbor
p1347
aVroommat
p1348
aVstudio
p1349
aVaddress
p1350
aVdorm
p1351
aVbackyard
p1352
aVcondo
p1353
aVmailbox
p1354
aVmaid
p1355
aVfurnitur
p1356
aVapart
p1357
aVroomi
p1358
aVlawn
p1359
aVdrape
p1360
aVyard
p1361
aVroom
p1362
aVhous
p1363
aVsofa
p1364
aVbed
p1365
aVpillow
p1366
aVshower
p1367
aVpet
p1368
aVcondominium
p1369
aVroomat
p1370
aVpatio
p1371
aVclean
p1372
aVfridg
p1373
aVgarden
p1374
aVdoghous
p1375
aVrent
p1376
atp1377
Rp1378
sS'COGNITIVE PROCESSES'
p1379
g2
((lp1380
Vall
p1381
aVforget
p1382
aVfounder
p1383
aVlack
p1384
aVdiscern
p1385
aVdecid
p1386
aVdepend
p1387
aVbecam
p1388
aVsens
p1389
aVprude
p1390
aVsourc
p1391
aVeveri
p1392
aVunlikel
p1393
aVunne
p1394
aVaffect
p1395
aVexact
p1396
aVstiff
p1397
aVreconcil
p1398
aVknowab
p1399
aVwait
p1400
aVadjust
p1401
aVprohib
p1402
aVanal
p1403
aVprevent
p1404
aVimpli
p1405
aVregret
p1406
aVsign
p1407
aVthinker
p1408
aVcomplica
p1409
aVunneccess
p1410
aVmustv
p1411
aVappear
p1412
aVcorrelat
p1413
aVshould'v
p1414
aVsuspect
p1415
aVkindof
p1416
aVobedien
p1417
aVever
p1418
aVhazi
p1419
aVration
p1420
aVled
p1421
aVavert
p1422
aVgener
p1423
aVnever
p1424
aVenclo
p1425
aVclosur
p1426
aVundo
p1427
aValong
p1428
aVbecom
p1429
aVimplicit
p1430
aVinterpret
p1431
aVunderstandab
p1432
aVproduc
p1433
aVinevitab
p1434
aVindetermin
p1435
aVrethink
p1436
aVundeniab
p1437
aVpermit
p1438
aVextrem
p1439
aVchang
p1440
aVmaker
p1441
aVchanc
p1442
aVregardless
p1443
aVunquest
p1444
aVforbid
p1445
aVevaluat
p1446
aVfoundat
p1447
aVdisclo
p1448
aVunsur
p1449
aVtotal
p1450
aVmemor
p1451
aVuse
p1452
aVwould
p1453
aVprove
p1454
aVdistinct
p1455
aVpercept
p1456
aVdoubt
p1457
aVcare
p1458
aVsort
p1459
aVdesir
p1460
aVconfu
p1461
aVrefu
p1462
aVrelat
p1463
aVnotic
p1464
aVconsequen
p1465
aVrigid
p1466
aVexamin
p1467
aVwari
p1468
aVknown
p1469
aVhold
p1470
aVmust
p1471
aVlotsa
p1472
aVword
p1473
aVperceiv
p1474
aVcau
p1475
aVexplanat
p1476
aVlearn
p1477
aVabandon
p1478
aVbrake
p1479
aVpurpos
p1480
aVroot
p1481
aVproof
p1482
aVcontrol
p1483
aVstubborn
p1484
aVwant
p1485
aVaccept
p1486
aVpreci
p1487
aVexplor
p1488
aVobstac
p1489
aVdefen
p1490
aVsecur
p1491
aVrather
p1492
aVdelay
p1493
aVhow
p1494
aVanyon
p1495
aVconfin
p1496
aVpure
p1497
aVanswer
p1498
aVconfid
p1499
aVshouldnt
p1500
aVmay
p1501
aVreflect
p1502
aVattent
p1503
aVlaw
p1504
aVunrelat
p1505
aVessenti
p1506
aVpractic
p1507
aVbind
p1508
aVexplicit
p1509
aVambigu
p1510
aVissu
p1511
aVinform
p1512
aVaccepta
p1513
aVallow
p1514
aVcaut
p1515
aVirrat
p1516
aVpossib
p1517
aVneglect
p1518
aVdeci
p1519
aVblocker
p1520
aVinsight
p1521
aVbecaus
p1522
aVheld
p1523
aVyearn
p1524
aVappar
p1525
aVpretti
p1526
aVmainli
p1527
aVperfect
p1528
aVwrite
p1529
aVsome
p1530
aVobviou
p1531
aValway
p1532
aVblatant
p1533
aVrestrain
p1534
aVfactual
p1535
aVmight
p1536
aVtruest
p1537
aVrecal
p1538
aVhalt
p1539
aVoveral
p1540
aVnecessar
p1541
aVnot
p1542
aVkind_of
p1543
aVinfallib
p1544
aVchoic
p1545
aVstopper
p1546
aVsomewher
p1547
aVname
p1548
aVanyth
p1549
aVuncertain
p1550
aVunawar
p1551
aVdetermina
p1552
aVlotof
p1553
aVtruth
p1554
aVanybod
p1555
aVceas
p1556
aVfound
p1557
aVmustn't
p1558
aVluck
p1559
aVconclu
p1560
aVidea
p1561
aVrealli
p1562
aVexpect
p1563
aVforgot
p1564
aVcouldnt
p1565
aVout
p1566
aVneedn't
p1567
aVconfess
p1568
aVdefenc
p1569
aVrepress
p1570
aVshouldn't
p1571
aVought'nt
p1572
aVcorrect
p1573
aVwholli
p1574
aVbelief
p1575
aVinsid
p1576
aVveto
p1577
aVmanipul
p1578
aVdiffer
p1579
aVcommitt
p1580
aVsomeon
p1581
aVban
p1582
aVreason
p1583
aVbase
p1584
aVbeliev
p1585
aVanyhow
p1586
aVbasi
p1587
aVarbitrar
p1588
aVpuzzl
p1589
aVlaunch
p1590
aVdunno
p1591
aVcould
p1592
aVkeep
p1593
aVperhap
p1594
aVretain
p1595
aVinadequa
p1596
aVcouldv
p1597
aVoppo
p1598
aVorigin
p1599
aVmisl
p1600
aVdirectli
p1601
aVfeel
p1602
aVindepend
p1603
aVaggravat
p1604
aVrestrict
p1605
aVopen
p1606
aVwithheld
p1607
aVguess
p1608
aVafterthought
p1609
aVsometim
p1610
aVstori
p1611
aVstatement
p1612
aVoption
p1613
aVmostli
p1614
aVconserv
p1615
aVunsettl
p1616
aVcompreh
p1617
aVoughtnt
p1618
aVmatter
p1619
aVfrankli
p1620
aVbridl
p1621
aVbet
p1622
aVand
p1623
aVunaccept
p1624
aVmind
p1625
aVani
p1626
aVcoher
p1627
aVreserv
p1628
aVneed
p1629
aVseem
p1630
aVtidi
p1631
aVimagin
p1632
aVponder
p1633
aVinhib
p1634
aVrevelat
p1635
aVunresolv
p1636
aValtogeth
p1637
aVideal
p1638
aVprefer
p1639
aVwonder
p1640
aVallot
p1641
aVsure
p1642
aVunless
p1643
aVunknow
p1644
aVnormal
p1645
aVreckon
p1646
aVknew
p1647
aVwhi
p1648
aVdiscov
p1649
aVreact
p1650
aVmost
p1651
aVclear
p1652
aVinde
p1653
aVdeni
p1654
aVdetermin
p1655
aVoccasion
p1656
aVconstrict
p1657
aVcurio
p1658
aVfact
p1659
aVthink
p1660
aVsomewhat
p1661
aVborderlin
p1662
aVrandom
p1663
aVmust'v
p1664
aVhesita
p1665
aVfind
p1666
aVabsolut
p1667
aVmisund
p1668
aVfenc
p1669
aVcategor
p1670
aVexplain
p1671
aVsolut
p1672
aVforev
p1673
aVshould
p1674
aVquer
p1675
aVsuppos
p1676
aVhope
p1677
aVmeant
p1678
aVnearli
p1679
aVblur
p1680
aVstop
p1681
aVcompli
p1682
aVbarrier
p1683
aVoughtn't
p1684
aVreconstruct
p1685
aVlucki
p1686
aVrequir
p1687
aVtruli
p1688
aVreveal
p1689
aVyield
p1690
aVwhether
p1691
aVdifferentiat
p1692
aVdeduc
p1693
aVcontain
p1694
aVeverybod
p1695
aVrein
p1696
aVwrote
p1697
aVrecogni
p1698
aVknowledg
p1699
aVprobablist
p1700
aVbare
p1701
aVresult
p1702
aVanali
p1703
aVrespons
p1704
aVclose
p1705
aVhalfass
p1706
aVawar
p1707
aVshaki
p1708
aVsorta
p1709
aVvari
p1710
aVsometh
p1711
aVreevaluat
p1712
aVvariab
p1713
aVfigur
p1714
aVrestructur
p1715
aVoutstand
p1716
aVexperi
p1717
aVshouldv
p1718
aVattribut
p1719
aVsomebod
p1720
aVwe
p1721
aVsortof
p1722
aVinduc
p1723
aVboss
p1724
aVdubiou
p1725
aVentir
p1726
aVdistinguish
p1727
aVnews
p1728
aVundoubt
p1729
aVcome
p1730
aVaddit
p1731
aVboth
p1732
aVprotect
p1733
aVwouldn't
p1734
aVcoz
p1735
aVadmit
p1736
aVshould'nt
p1737
aVconcentrat
p1738
aValot
p1739
aVlogic
p1740
aVreluctan
p1741
aVassur
p1742
aVco
p1743
aVdenia
p1744
aVlikel
p1745
aVinspir
p1746
aVexcept
p1747
aVduti
p1748
aVsolv
p1749
aVluckless
p1750
aVprovok
p1751
aVcouldn't
p1752
aVmistak
p1753
aVassum
p1754
aVprovoc
p1755
aVquit
p1756
aVclarif
p1757
aVcompulsiv
p1758
aVcreati
p1759
aVunwant
p1760
aVhypoth
p1761
aVsinc
p1762
aVsecret
p1763
aVtrigger
p1764
aVbesid
p1765
aVunambigu
p1766
aVcurtail
p1767
aVwish
p1768
aVimplica
p1769
aVindirect
p1770
aVwith
p1771
aVsuppress
p1772
aVclearli
p1773
aVpartli
p1774
aVstandard
p1775
aVtherefor
p1776
aVignit
p1777
aVliabilit
p1778
aVincomplet
p1779
aVdefin
p1780
aVoutcom
p1781
aVvagu
p1782
aVmargin
p1783
aVactivat
p1784
aVanytim
p1785
aVorganiz
p1786
aValmost
p1787
aVhenc
p1788
aVelicit
p1789
aVvs
p1790
aVmotiv
p1791
aVaccura
p1792
aVsortsa
p1793
aVif
p1794
aVresponsib
p1795
aVundecid
p1796
aVmake
p1797
aVsame
p1798
aVcomplex
p1799
aVhow'
p1800
aVinfer
p1801
aVconflict
p1802
aVcomplet
p1803
aVsafe
p1804
aVevid
p1805
aVpick
p1806
aVeffect
p1807
aVfairli
p1808
aVopinion
p1809
aVwould'v
p1810
aVtypic
p1811
aVcontemplat
p1812
aVkept
p1813
aVundesir
p1814
aVdiscourag
p1815
aVinvariab
p1816
aVthu
p1817
aVhypothet
p1818
aVthought
p1819
aVwithout
p1820
aVknower
p1821
aVeveryth
p1822
aVusual
p1823
aVabstain
p1824
aVjust
p1825
aVtrue
p1826
aVobscur
p1827
aVcould'v
p1828
aVunclear
p1829
aVwouldv
p1830
aVenlighten
p1831
aVcontingen
p1832
aVversu
p1833
aVcontrad
p1834
aVstimul
p1835
aVcuz
p1836
aVidentif
p1837
aVadd
p1838
aVprudish
p1839
aVhar
p1840
aVsave
p1841
aVought
p1842
aVreal
p1843
aVsupposit
p1844
aVaround
p1845
aVmayb
p1846
aVdisciplin
p1847
aVrealiz
p1848
aVknow
p1849
aVundetermin
p1850
aVresolv
p1851
aVresolu
p1852
aVeither
p1853
aVoften
p1854
aVdisori
p1855
aVacknowledg
p1856
aVmyster
p1857
aVsomehow
p1858
aVunderstood
p1859
aVconsciou
p1860
aVinterf
p1861
aVmightv
p1862
aVlotta
p1863
aVlead
p1864
aVunluck
p1865
aVavoid
p1866
aVdefinit
p1867
aVhangup
p1868
aVsubdu
p1869
aVfuzz
p1870
aVsuspicio
p1871
aVrefer
p1872
aVplu
p1873
aVobey
p1874
aVeach
p1875
aVdisregard
p1876
aVuptight
p1877
aVforgiv
p1878
aVneed'nt
p1879
aVtaboo
p1880
aVwouldnt
p1881
aVjustif
p1882
aVrecollect
p1883
aVchoo
p1884
aVcommit
p1885
aVmean
p1886
aVwanna
p1887
aVor
p1888
aVblock
p1889
aVoughtv
p1890
aVkinda
p1891
aVhardli
p1892
aVinto
p1893
aVapproximat
p1894
aVbound
p1895
aVguard
p1896
aVmight'v
p1897
aVoughta
p1898
aVlesson
p1899
aVforgav
p1900
aVcomplianc
p1901
aVquestion
p1902
aVlot
p1903
aVforc
p1904
aVconclud
p1905
aVspose
p1906
aVbut
p1907
aVfundamentali
p1908
aVlink
p1909
aVmust'nt
p1910
aVinclu
p1911
aVinferr
p1912
aVinfo
p1913
aVmade
p1914
aVinquir
p1915
aVreorgani
p1916
aVpositiv
p1917
aVlimit
p1918
aVindefinit
p1919
aVfundament
p1920
aVgrasp
p1921
aVproblem
p1922
aVcreat
p1923
aVirrefu
p1924
aVcertain
p1925
aVmustnt
p1926
aVindeci
p1927
aVcurb
p1928
aVrearrang
p1929
aVinact
p1930
aVprobabl
p1931
aVcompel
p1932
aVtempora
p1933
aVtight
p1934
aVreconsid
p1935
aVrememb
p1936
aVpresum
p1937
aVtheor
p1938
aVrealiti
p1939
aVintend
p1940
aVappreciat
p1941
aVfelt
p1942
aVtentativ
p1943
aVintent
p1944
aVrefrain
p1945
aVconsid
p1946
aVneednt
p1947
aVconstrain
p1948
aVimpossib
p1949
aVoriginat
p1950
aVanywher
p1951
aVexclu
p1952
aVwithhold
p1953
aVinfluenc
p1954
aVought'v
p1955
aVignor
p1956
aVcame
p1957
aVunderstand
p1958
aVguarant
p1959
atp1960
Rp1961
sS'TENTATIVENESS'
p1962
g2
((lp1963
Vpossib
p1964
aVsomewhat
p1965
aVborderlin
p1966
aVrandom
p1967
aVobscur
p1968
aVhesita
p1969
aVappar
p1970
aVshaki
p1971
aVmainli
p1972
aVcontingen
p1973
aVdepend
p1974
aVpretti
p1975
aVsuppos
p1976
aVmight
p1977
aVhope
p1978
aVsupposit
p1979
aVnearli
p1980
aVmayb
p1981
aVoveral
p1982
aVkind_of
p1983
aVlucki
p1984
aVtheor
p1985
aVsomewher
p1986
aVanyth
p1987
aVlotof
p1988
aVanybod
p1989
aVluck
p1990
aVoften
p1991
aVdisori
p1992
aVmyster
p1993
aVsomehow
p1994
aVprobablist
p1995
aVbare
p1996
aVhardli
p1997
aVindirect
p1998
aVmightv
p1999
aVtempora
p2000
aVwonder
p2001
aVappear
p2002
aVsorta
p2003
aVunluck
p2004
aVsometh
p2005
aVunsur
p2006
aVfuzz
p2007
aVblur
p2008
aVhazi
p2009
aVsomebod
p2010
aVhalfass
p2011
aVsortof
p2012
aVgener
p2013
aVanyhow
p2014
aVvariab
p2015
aVarbitrar
p2016
aVpuzzl
p2017
aVfairli
p2018
aVindetermin
p2019
aVperhap
p2020
aVundetermin
p2021
aValot
p2022
aVopinion
p2023
aVtypic
p2024
aVkindof
p2025
aVchanc
p2026
aVunclear
p2027
aVquestion
p2028
aVlikel
p2029
aVapproximat
p2030
aVluckless
p2031
aVmight'v
p2032
aVassum
p2033
aVquit
p2034
aVguess
p2035
aVor
p2036
aVhypoth
p2037
aVsometim
p2038
aVdoubt
p2039
aVlot
p2040
aVsort
p2041
aVoption
p2042
aVconfu
p2043
aVsome
p2044
aVspose
p2045
aVanywher
p2046
aVpartli
p2047
aVmostli
p2048
aVvari
p2049
aVlotsa
p2050
aVuncertain
p2051
aVindeci
p2052
aVindefinit
p2053
aVdunno
p2054
aVdubiou
p2055
aVvagu
p2056
aVmargin
p2057
aVbet
p2058
aVanytim
p2059
aValmost
p2060
aVani
p2061
aVincomplet
p2062
aVseem
p2063
aVsortsa
p2064
aVif
p2065
aVundecid
p2066
aVunresolv
p2067
aVanyon
p2068
aVprobabl
p2069
aVunlikel
p2070
aVunknow
p2071
aVmay
p2072
aVsomeon
p2073
aVmost
p2074
aVkinda
p2075
aVlotta
p2076
aVunsettl
p2077
aVpractic
p2078
aVhypothet
p2079
aVambigu
p2080
aVallot
p2081
aVtentativ
p2082
aVoccasion
p2083
aVusual
p2084
atp2085
Rp2086
sS'INCLUSION'
p2087
g2
((lp2088
Vand
p2089
aVboth
p2090
aVplu
p2091
aVaround
p2092
aVinsid
p2093
aVwith
p2094
aVopen
p2095
aVinto
p2096
aVwe
p2097
aVadd
p2098
aVeach
p2099
aVinclu
p2100
aVclose
p2101
aValong
p2102
aVout
p2103
aVcome
p2104
aVcame
p2105
aVaddit
p2106
atp2107
Rp2108
sS'QUANTIFIERS'
p2109
g2
((lp2110
Vcetera
p2111
aVload
p2112
aVall
p2113
aVown
p2114
aVsomewhat
p2115
aVextra
p2116
aVremain
p2117
aVlack
p2118
aVsome
p2119
aVani
p2120
aVrest
p2121
aVmucho
p2122
aVsignific
p2123
aVsame
p2124
aVpart
p2125
aVtotal
p2126
aVvariou
p2127
aVsever
p2128
aVbest
p2129
aVbunch
p2130
aVone
p2131
aVdiffer
p2132
aVlotta
p2133
aVcoupl
p2134
aVitem
p2135
aVanoth
p2136
aVsection
p2137
aVdoubl
p2138
aVpercent
p2139
aVportion
p2140
aVleast
p2141
aVfew
p2142
aVenough
p2143
aVlotof
p2144
aVbesid
p2145
aVselect
p2146
aVlot
p2147
aVton
p2148
aVtripl
p2149
aVels
p2150
aVneither
p2151
aVhighli
p2152
aVsimpl
p2153
aVworst
p2154
aVsingl
p2155
aVallot
p2156
aVfull
p2157
aVeveri
p2158
aVgreater
p2159
aVform
p2160
aVless
p2161
aVversion
p2162
aVnone
p2163
aVmuch
p2164
aVfairli
p2165
aVentir
p2166
aVpartli
p2167
aVterm
p2168
aVextent
p2169
aVmani
p2170
aVplenti
p2171
aVbit
p2172
aVmajor
p2173
aVsegment
p2174
aVlotsa
p2175
aVboth
p2176
aVincrea
p2177
aVmain
p2178
aVuniqu
p2179
aVmost
p2180
aVanymor
p2181
aVgreatest
p2182
aVequal
p2183
aVetc
p2184
aVamount
p2185
aVexampl
p2186
aVeither
p2187
aValot
p2188
aVeach
p2189
aVextrem
p2190
aVmore
p2191
aVwhole
p2192
aVpage
p2193
aVpiec
p2194
aVseri
p2195
atp2196
Rp2197
sS'SEXUAL'
p2198
g2
((lp2199
Vjizz
p2200
aVlove
p2201
aVperver
p2202
aVovar
p2203
aVporn
p2204
aVqueer
p2205
aVpubic
p2206
aVfuck
p2207
aVsex
p2208
aVlust
p2209
aVnippl
p2210
aVincest
p2211
aVerectil
p2212
aVpussi
p2213
aVerot
p2214
aVboner
p2215
aVbutt'
p2216
aVdyke
p2217
aVrape
p2218
aVnake
p2219
aVslut
p2220
aVrapist
p2221
aVhugg
p2222
aVpregnan
p2223
aVarou
p2224
aVwhore
p2225
aVtit
p2226
aVhump
p2227
aVdick
p2228
aVerect
p2229
aVlesbian
p2230
aVvirgin
p2231
aVvagina
p2232
aVlibid
p2233
aVhomo
p2234
aVcuddl
p2235
aVcondom
p2236
aVpassion
p2237
aVboob
p2238
aVmakeout
p2239
aVpeni
p2240
aVwomb
p2241
aVass
p2242
aVstud
p2243
aVhug
p2244
aVprostitu
p2245
aVchlamydia
p2246
aVgay
p2247
aVscrew
p2248
aVforeplay
p2249
aVprude
p2250
aVbi
p2251
aVfucker
p2252
aVhorni
p2253
aVbreast
p2254
aVkiss
p2255
aVbutt
p2256
aVsyphili
p2257
aVseduc
p2258
aVhiv
p2259
aVhomosexu
p2260
aVstd
p2261
aVorgi
p2262
aVorgasm
p2263
aVgenit
p2264
aVprostat
p2265
aVnude
p2266
aVvd
p2267
aVprudish
p2268
aVtitti
p2269
aVabort
p2270
aVgonorrhea
p2271
aVlover
p2272
aVaid
p2273
aVjissom
p2274
aVcock
p2275
aVfuckin
p2276
aVho
p2277
atp2278
Rp2279
sS'POSITIVE EMOTION'
p2280
g2
((lp2281
Vthankf
p2282
aVcute
p2283
aVhumour
p2284
aVsuprem
p2285
aVsuper
p2286
aVconsider
p2287
aVfondli
p2288
aVheartfelt
p2289
aVfond
p2290
aVcuti
p2291
aVmerit
p2292
aVefficien
p2293
aVsunshin
p2294
aVopenmind
p2295
aVbright
p2296
aVprivileg
p2297
aVtruli
p2298
aVtrueness
p2299
aVsmart
p2300
aVkeen
p2301
aVfine
p2302
aVworship
p2303
aVdynam
p2304
aVhelp
p2305
aVperfect
p2306
aVsuperior
p2307
aVfunn
p2308
aVdelectabl
p2309
aVeasi
p2310
aVtehe
p2311
aVsunni
p2312
aVhope
p2313
aVactiv
p2314
aVimportan
p2315
aVbetter
p2316
aVeager
p2317
aVtruest
p2318
aVwon
p2319
aVgrin
p2320
aVrich
p2321
aVsweet
p2322
aVprai
p2323
aVlaidback
p2324
aVdelici
p2325
aVpride
p2326
aVagreeab
p2327
aVvigor
p2328
aVgood
p2329
aVgenero
p2330
aVpalatabl
p2331
aVthank
p2332
aVsafe
p2333
aVfiesta
p2334
aVbrillian
p2335
aVharmon
p2336
aVgiggl
p2337
aVwise
p2338
aVbeaut
p2339
aVcompass
p2340
aVfab
p2341
aVaffect
p2342
aVadventur
p2343
aVamu
p2344
aVlucki
p2345
aVdare
p2346
aVcool
p2347
aVtreat
p2348
aVenerg
p2349
aVheaven
p2350
aVintel
p2351
aVsucceed
p2352
aVscrumptiou
p2353
aVwonderf
p2354
aVresolv
p2355
aVbonu
p2356
aVbless
p2357
aVeasili
p2358
aVbenefit
p2359
aVradian
p2360
aVglamor
p2361
aVpopular
p2362
aVamor
p2363
aVtender
p2364
aVfreeness
p2365
aVcourag
p2366
aVtriumph
p2367
aVluck
p2368
aVenjoy
p2369
aVopen
p2370
aVbrave
p2371
aVincent
p2372
aVflatter
p2373
aVspecial
p2374
aVrespect
p2375
aVsincer
p2376
aVvalu
p2377
aVenthu
p2378
aVdear
p2379
aVwin
p2380
aVcasual
p2381
aVbest
p2382
aVexcit
p2383
aVelegan
p2384
aVsweeti
p2385
aVforgav
p2386
aVhumor
p2387
aVwealth
p2388
aVhelper
p2389
aVprofit
p2390
aVfreer
p2391
aVha
p2392
aVdefinit
p2393
aVfavour
p2394
aVthrill
p2395
aVcontent
p2396
aVfavor
p2397
aVoutgo
p2398
aVpassion
p2399
aVgentlest
p2400
aVsweetli
p2401
aVecsta
p2402
aVimpress
p2403
aVfreeb
p2404
aVpreciou
p2405
aVterrif
p2406
aVcompliment
p2407
aVfreed
p2408
aVromanc
p2409
aVencourag
p2410
aVgorgeou
p2411
aVhero
p2412
aVbold
p2413
aVworthwhil
p2414
aVoptimi
p2415
aVfearless
p2416
aVpleas
p2417
aVlover
p2418
aVagreement
p2419
aVfree
p2420
aVcharit
p2421
aVpleasant
p2422
aVbenef
p2423
aVstrong
p2424
aVflexib
p2425
aVnice
p2426
aVyay
p2427
aVpleasur
p2428
aVcome
p2429
aVsplend
p2430
aVcare
p2431
aVfaith
p2432
aVgreat
p2433
aVbenefitt
p2434
aVok
p2435
aVopport
p2436
aVinnocen
p2437
aVkiss
p2438
aVsuccess
p2439
aVsecur
p2440
aVhonest
p2441
aVgentler
p2442
aVcredit
p2443
aVentertain
p2444
aVadmir
p2445
aVlibert
p2446
aVcherish
p2447
aVcommit
p2448
aVshare
p2449
aVtruer
p2450
aVhonor
p2451
aVaccepta
p2452
aVkid
p2453
aVinvigor
p2454
aVassur
p2455
aVlove
p2456
aVgentl
p2457
aVhoho
p2458
aVmerr
p2459
aVinspir
p2460
aVnurtur
p2461
aVrofl
p2462
aVdetermina
p2463
aVchamp
p2464
aVthought
p2465
aVlaugh
p2466
aVdarlin
p2467
aVparadis
p2468
aVagre
p2469
aVfantast
p2470
aVsoulmat
p2471
aVfabul
p2472
aVuse
p2473
aVforgiv
p2474
aVoptim
p2475
aVcreat
p2476
aVcreati
p2477
aVdeligh
p2478
aVpainl
p2479
aVsupport
p2480
aVlol
p2481
aVhappi
p2482
aVattach
p2483
aVvigour
p2484
aVcalm
p2485
aVinterest
p2486
aVgratef
p2487
aVbenevolen
p2488
aVheh
p2489
aVhilari
p2490
aVfriend
p2491
aVjoll
p2492
aVsweetheart
p2493
aVclever
p2494
aVtreasur
p2495
aVrelax
p2496
aVgladli
p2497
aVlivel
p2498
aVhaha
p2499
aVheartwarm
p2500
aVaward
p2501
aVsentiment
p2502
aVglamour
p2503
aVgraci
p2504
aVchuckl
p2505
aVwarm
p2506
aVgrati
p2507
aVharmless
p2508
aVkindli
p2509
aVador
p2510
aVtalent
p2511
aVeas
p2512
aVflawless
p2513
aVtrue
p2514
aVgrace
p2515
aVglad
p2516
aVreliev
p2517
aVkind
p2518
aVsave
p2519
aVsilli
p2520
aVlmao
p2521
aVvaluabl
p2522
aVcarefre
p2523
aVhurra
p2524
aVpositiv
p2525
aVsatisf
p2526
aVmagnif
p2527
aVflirt
p2528
aVsmil
p2529
aVvirtuo
p2530
aVbelov
p2531
aVneat
p2532
aVgiver
p2533
aVglori
p2534
aVjoke
p2535
aVfun
p2536
aVjoy
p2537
aVsunnier
p2538
aVdelic
p2539
aVengag
p2540
aVadvantag
p2541
aVgive
p2542
aVreadi
p2543
aVcertain
p2544
aVchalleng
p2545
aVreassur
p2546
aVconvinc
p2547
aVaccept
p2548
aVorigin
p2549
aVhug
p2550
aVvirtu
p2551
aVtranquil
p2552
aVimprov
p2553
aVattract
p2554
aVgentli
p2555
aVromant
p2556
aVloyal
p2557
aVtoleran
p2558
aVhugg
p2559
aVwelcom
p2560
aVmadli
p2561
aVfestiv
p2562
aVparti
p2563
aVcomfort
p2564
aVexcel
p2565
aVdivin
p2566
aVbenign
p2567
aVideal
p2568
aVvital
p2569
aVpretti
p2570
aVgrand
p2571
aVsociab
p2572
aVtrust
p2573
aVrevigor
p2574
aVconfid
p2575
aVplay
p2576
aVsure
p2577
aVokay
p2578
aVappreciat
p2579
aVdevot
p2580
aVaok
p2581
aVpromi
p2582
aVstrength
p2583
aVcharm
p2584
aVfreeli
p2585
aVkindn
p2586
aVhonour
p2587
aVwisdom
p2588
aVpeac
p2589
aVamaz
p2590
aVhandsom
p2591
aVlikeab
p2592
aVsurpri
p2593
aVgrinn
p2594
aVsunniest
p2595
aVproud
p2596
aVwell
p2597
aVdigni
p2598
aVlike
p2599
aVcheer
p2600
aVtruth
p2601
aVwinn
p2602
aVrelief
p2603
aVdetermin
p2604
aValright
p2605
aVreward
p2606
aVprize
p2607
aVwow
p2608
aVawesom
p2609
atp2610
Rp2611
sS'INSIGHT'
p2612
g2
((lp2613
Vdeci
p2614
aVinsight
p2615
aVknowab
p2616
aVfind
p2617
aVdiscern
p2618
aVdecid
p2619
aVreorgani
p2620
aVcategor
p2621
aVexplain
p2622
aVsolut
p2623
aVidentif
p2624
aVquer
p2625
aVbecam
p2626
aVsens
p2627
aVmeant
p2628
aVinspir
p2629
aVrecal
p2630
aVreveal
p2631
aVrealiz
p2632
aVknow
p2633
aVreconstruct
p2634
aVchoic
p2635
aVreconcil
p2636
aVdisclo
p2637
aVresolu
p2638
aVdifferentiat
p2639
aVfound
p2640
aVreconsid
p2641
aVmean
p2642
aVconclu
p2643
aVacknowledg
p2644
aVknowledg
p2645
aVidea
p2646
aVresolv
p2647
aVunderstood
p2648
aVthinker
p2649
aVanali
p2650
aVconsciou
p2651
aVcomplica
p2652
aVwonder
p2653
aVawar
p2654
aVcorrelat
p2655
aVconfess
p2656
aVreevaluat
p2657
aVreckon
p2658
aVfigur
p2659
aVadjust
p2660
aVsuspect
p2661
aVsuspicio
p2662
aVenlighten
p2663
aVdeduc
p2664
aVrefer
p2665
aVfelt
p2666
aVbelief
p2667
aVinduc
p2668
aVration
p2669
aVclosur
p2670
aVreason
p2671
aVforgiv
p2672
aVbeliev
p2673
aVdistinguish
p2674
aVbecom
p2675
aVinterpret
p2676
aVunderstandab
p2677
aVexplanat
p2678
aVrethink
p2679
aVjustif
p2680
aVrecollect
p2681
aVchoo
p2682
aVadmit
p2683
aVconcentrat
p2684
aVlogic
p2685
aVthink
p2686
aVaccepta
p2687
aVconsid
p2688
aVfeel
p2689
aVevaluat
p2690
aVprefer
p2691
aVsolv
p2692
aVdetermina
p2693
aVlesson
p2694
aVforgav
p2695
aVassum
p2696
aVmemor
p2697
aVclarif
p2698
aVafterthought
p2699
aVprove
p2700
aVquestion
p2701
aVsecret
p2702
aVpercept
p2703
aVstatement
p2704
aVconclud
p2705
aVrelat
p2706
aVnotic
p2707
aVlink
p2708
aVexamin
p2709
aVknown
p2710
aVinferr
p2711
aVinfo
p2712
aVcompreh
p2713
aVperceiv
p2714
aVinquir
p2715
aVdefin
p2716
aVlearn
p2717
aVgrasp
p2718
aVmisund
p2719
aVexplor
p2720
aVaccept
p2721
aVmotiv
p2722
aVcoher
p2723
aVseem
p2724
aVrearrang
p2725
aVimagin
p2726
aVponder
p2727
aVrevelat
p2728
aVrestructur
p2729
aVrecogni
p2730
aVunawar
p2731
aVcomplex
p2732
aVrememb
p2733
aVanswer
p2734
aVpresum
p2735
aVinfer
p2736
aVdetermin
p2737
aVappreciat
p2738
aVknew
p2739
aVeffect
p2740
aVdiscov
p2741
aVreflect
p2742
aVattent
p2743
aVcontemplat
p2744
aVunrelat
p2745
aVthought
p2746
aVinform
p2747
aVunaccept
p2748
aVknower
p2749
aVunderstand
p2750
aVcurio
p2751
atp2752
Rp2753
sS'DISCREPANCY'
p2754
g2
((lp2755
Voughtv
p2756
aVwould
p2757
aVregardless
p2758
aVoughta
p2759
aVwouldn't
p2760
aVlack
p2761
aVprefer
p2762
aVmustnt
p2763
aVunne
p2764
aVmust'v
p2765
aVexpect
p2766
aVcouldn't
p2767
aVneed
p2768
aVmistak
p2769
aVcouldnt
p2770
aVunneccess
p2771
aVif
p2772
aVmustv
p2773
aVwould'v
p2774
aVwant
p2775
aVneedn't
p2776
aVshould'v
p2777
aVshould
p2778
aVideal
p2779
aVbesid
p2780
aVshouldn't
p2781
aVought'nt
p2782
aVoutstand
p2783
aVhope
p2784
aVshouldnt
p2785
aVdesir
p2786
aVnormal
p2787
aVshouldv
p2788
aVundo
p2789
aVoughtn't
p2790
aVshould'nt
p2791
aVneed'nt
p2792
aVmust'nt
p2793
aVwouldv
p2794
aVcould'v
p2795
aVneednt
p2796
aVproblem
p2797
aVmust
p2798
aVregret
p2799
aVimpossib
p2800
aVundesir
p2801
aVwouldnt
p2802
aVliabilit
p2803
aVunwant
p2804
aVcould
p2805
aVyearn
p2806
aVoughtnt
p2807
aVcouldv
p2808
aVrather
p2809
aVought'v
p2810
aVought
p2811
aVwish
p2812
aVinadequa
p2813
aVwanna
p2814
aVmustn't
p2815
atp2816
Rp2817
sS'MOTION'
p2818
g2
((lp2819
Vbehavio
p2820
aVmove
p2821
aVbring
p2822
aVshake
p2823
aVgo
p2824
aVfollow
p2825
aVswam
p2826
aVtransact
p2827
aVsend
p2828
aVsent
p2829
aVswim
p2830
aVcrui
p2831
aVrise
p2832
aVstopper
p2833
aVflew
p2834
aVfall
p2835
aVfront
p2836
aVhik
p2837
aVflee
p2838
aVfled
p2839
aVincrea
p2840
aVslide
p2841
aVstepp
p2842
aVwent
p2843
aVremov
p2844
aVreplac
p2845
aVjump
p2846
aVgrowth
p2847
aVpass
p2848
aVclose
p2849
aVtransport
p2850
aVappear
p2851
aVlead
p2852
aVgoe
p2853
aVbrief
p2854
aVleav
p2855
aVapproach
p2856
aVmovement
p2857
aVrun
p2858
aVadvanc
p2859
aVdrift
p2860
aVstep
p2861
aVjog
p2862
aVput
p2863
aVcome
p2864
aVthrow
p2865
aVdepartur
p2866
aVmotion
p2867
aVcarrier
p2868
aVact
p2869
aVaction
p2870
aVclimb
p2871
aVfallen
p2872
aVjourney
p2873
aVdepart
p2874
aVcarri
p2875
aVarriv
p2876
aVwalk
p2877
aVbrought
p2878
aVchang
p2879
aVdrove
p2880
aVcaught
p2881
aVvisit
p2882
aVrunner
p2883
aVforward
p2884
aVthrew
p2885
aVhead
p2886
aVtook
p2887
aVridden
p2888
aVcatch
p2889
aVpull
p2890
aVrush
p2891
aVgrew
p2892
aVcar
p2893
aVride
p2894
aVfli
p2895
aVdanc
p2896
aVshook
p2897
aVgone
p2898
aVslid
p2899
aVran
p2900
aVrode
p2901
aVexplor
p2902
aVdeliv
p2903
aVmover
p2904
aVtrip
p2905
aVdisappear
p2906
aVfill
p2907
aVgrown
p2908
aVreceiv
p2909
aVtravel
p2910
aVcross
p2911
aVled
p2912
aVattend
p2913
aVhang
p2914
aVdriven
p2915
aVfell
p2916
aVgrow
p2917
aVflow
p2918
aVdrive
p2919
aVenter
p2920
aVpush
p2921
aVcame
p2922
atp2923
Rp2924
sS'PRESENT TENSE'
p2925
g2
((lp2926
Vhelp
p2927
aVdon't
p2928
aVbring
p2929
aVisnt
p2930
aVgo
p2931
aVfollow
p2932
aVhate
p2933
aVtheyv
p2934
aVaint
p2935
aVdepend
p2936
aVthank
p2937
aVexplain
p2938
aVhope
p2939
aVfeel
p2940
aVsuppos
p2941
aVhaven't
p2942
aVtake
p2943
aVdo
p2944
aVthey'v
p2945
aVhit
p2946
aVget
p2947
aVit'
p2948
aVcannot
p2949
aVknow
p2950
aVtri
p2951
aVlet'
p2952
aVdie
p2953
aVshe
p2954
aVhavent
p2955
aVwhere
p2956
aVisn't
p2957
aVmean
p2958
aVwe'r
p2959
aVunderstand
p2960
aVsee
p2961
aVyou'r
p2962
aVare
p2963
aVyou'v
p2964
aVhappen
p2965
aVwonder
p2966
aVwhat
p2967
aVappear
p2968
aVgoe
p2969
aVthat'
p2970
aVtend
p2971
aVshe'
p2972
aVuse
p2973
aVhere
p2974
aVlet
p2975
aVdislik
p2976
aVask
p2977
aVaren't
p2978
aVcome
p2979
aVcare
p2980
aVi'v
p2981
aVowe
p2982
aVkeep
p2983
aVturn
p2984
aVadmit
p2985
aVarent
p2986
aVi'm
p2987
aVhere'
p2988
aVthink
p2989
aVcan't
p2990
aVbeliev
p2991
aVtheyr
p2992
aVthere'
p2993
aVlove
p2994
aVdont
p2995
aVcarri
p2996
aVarriv
p2997
aVdoesnt
p2998
aVyouv
p2999
aVmiss
p3000
aVyour
p3001
aVdoesn't
p3002
aVguess
p3003
aVbecom
p3004
aVdescrib
p3005
aVsupport
p3006
aVthere
p3007
aVstart
p3008
aVwait
p3009
aVwhere'
p3010
aVlisten
p3011
aVthat
p3012
aVwhat'
p3013
aVain't
p3014
aVha
p3015
aVhe
p3016
aVlook
p3017
aVwish
p3018
aVhasn't
p3019
aVhe'
p3020
aVcan
p3021
aVwho'
p3022
aVive
p3023
aVwant
p3024
aVgive
p3025
aVis
p3026
aVam
p3027
aVfuck
p3028
aVcant
p3029
aVim
p3030
aVhave
p3031
aVneed
p3032
aVseem
p3033
aVhasnt
p3034
aVmake
p3035
aVthey'r
p3036
aVhow
p3037
aVhow'
p3038
aVbegin
p3039
aVwho
p3040
aVsuck
p3041
aVdoe
p3042
aVhear
p3043
atp3044
Rp3045
sS'BIOLOGICAL PROCESSES'
p3046
g2
((lp3047
Vschizophren
p3048
aVhypotherm
p3049
aVsleep
p3050
aVskin
p3051
aVdish
p3052
aVmilk
p3053
aVhump
p3054
aVdecongest
p3055
aVlibid
p3056
aVgyno
p3057
aVstuf
p3058
aVprude
p3059
aVemphysem
p3060
aVstud
p3061
aVcongest
p3062
aVtoenail
p3063
aVdessert
p3064
aVfat
p3065
aVprescri
p3066
aVcook
p3067
aVsurgeon
p3068
aVdiarr
p3069
aVstiff
p3070
aVtumo
p3071
aVgum
p3072
aVcrotch
p3073
aVwhore
p3074
aVgut
p3075
aVanal
p3076
aVarthr
p3077
aVchew
p3078
aVporn
p3079
aVtea
p3080
aVpubic
p3081
aVorgasm
p3082
aVpodiatr
p3083
aVhealer
p3084
aVbake
p3085
aVappend
p3086
aVrapist
p3087
aVespresso
p3088
aVpoison
p3089
aVbipolar
p3090
aVwomb
p3091
aVleg
p3092
aVsinu
p3093
aVrestau
p3094
aVbodi
p3095
aVherp
p3096
aVdizz
p3097
aVseduc
p3098
aVinsulin
p3099
aVarmpit
p3100
aVcyst
p3101
aVlove
p3102
aVovar
p3103
aVmammogram
p3104
aVbloodi
p3105
aVfed
p3106
aVskin'
p3107
aVeye
p3108
aVfaint
p3109
aVlive
p3110
aVaspirin
p3111
aVwart
p3112
aVwhiski
p3113
aVsore
p3114
aVappendix
p3115
aVsalad
p3116
aVflu
p3117
aVstroke
p3118
aVelbow
p3119
aVcaf
p3120
aValiv
p3121
aVheart
p3122
aVchok
p3123
aVscab
p3124
aVfuck
p3125
aVexerci
p3126
aVcardia
p3127
aVabort
p3128
aVslender
p3129
aVnippl
p3130
aVboner
p3131
aVcardio
p3132
aVantidepress
p3133
aVrape
p3134
aVcholest
p3135
aVhugg
p3136
aVderma
p3137
aVdyke
p3138
aVintestin
p3139
aVcuddl
p3140
aVphobi
p3141
aVpizza
p3142
aVfever
p3143
aVcocktail
p3144
aVabdomen
p3145
aVlump
p3146
aVpimpl
p3147
aVdiagno
p3148
aVwrist
p3149
aVblood
p3150
aVnumb
p3151
aVarch
p3152
aVlesbian
p3153
aVphysic
p3154
aVshirt
p3155
aVtwitch
p3156
aVneck
p3157
aVbing
p3158
aVswollen
p3159
aVegg
p3160
aVhallucinat
p3161
aVmyopi
p3162
aVhungr
p3163
aVhelp
p3164
aVover
p3165
aVhorni
p3166
aVbrain
p3167
aVerectil
p3168
aVlozeng
p3169
aVerot
p3170
aVantacid
p3171
aVdigest
p3172
aVpeni
p3173
aVfood
p3174
aVinsomnia
p3175
aVlunch
p3176
aVvomit
p3177
aVanorexi
p3178
aVkiss
p3179
aVfoot
p3180
aVbread
p3181
aVspinal
p3182
aVdrow
p3183
aVboni
p3184
aVlung
p3185
aVmeal
p3186
aVbone
p3187
aVweight
p3188
aVsandwich
p3189
aVvertigo
p3190
aValcohol
p3191
aVtonsil
p3192
aVrx
p3193
aVthirst
p3194
aVhealth
p3195
aVsmok
p3196
aVbald
p3197
aVass
p3198
aVdiseas
p3199
aVpuk
p3200
aVoverweight
p3201
aVprozac
p3202
aVcoffe
p3203
aVcough
p3204
aVbleed
p3205
aVmiscar
p3206
aVallerg
p3207
aVate
p3208
aVneurolog
p3209
aVsicker
p3210
aVfarsight
p3211
aVsoda
p3212
aVfuckin
p3213
aVveggi
p3214
aVblind
p3215
aVdine
p3216
aVappeti
p3217
aVsupper
p3218
aVsurger
p3219
aVcramp
p3220
aVfeeder
p3221
aVfeet
p3222
aVwash
p3223
aVfatigu
p3224
aVurin
p3225
aVtox
p3226
aVpainf
p3227
aVpainl
p3228
aVslept
p3229
aVvagina
p3230
aVsickli
p3231
aVdrool
p3232
aVliquor
p3233
aVboil
p3234
aVtoe
p3235
aVhug
p3236
aVnearsight
p3237
aVglaucoma
p3238
aVforeplay
p3239
aVbowel
p3240
aVmigrain
p3241
aVdentist
p3242
aVbutt
p3243
aVtestosteron
p3244
aVsymptom
p3245
aVwaist
p3246
aVserv
p3247
aVhungov
p3248
aVorgi
p3249
aVparali
p3250
aVneural
p3251
aVmakeout
p3252
aVrehab
p3253
aVhemor
p3254
aVlover
p3255
aVtherap
p3256
aVdosag
p3257
aVanu
p3258
aVthroat
p3259
aVstomach
p3260
aVbreakfast
p3261
aVscrew
p3262
aVstrept
p3263
aVadvil
p3264
aVchest
p3265
aVlip
p3266
aVheal
p3267
aVprick
p3268
aVnasal
p3269
aVyawn
p3270
aVmouth
p3271
aVaddict
p3272
aVeaten
p3273
aVpediatr
p3274
aVknee
p3275
aVmucou
p3276
aVtendon
p3277
aVarter
p3278
aVskinni
p3279
aVhospit
p3280
aVknuckl
p3281
aVmri
p3282
aVglutton
p3283
aVweigh
p3284
aVwine
p3285
aVsickleav
p3286
aVjizz
p3287
aVnutrit
p3288
aVhunger
p3289
aVcornea
p3290
aVshoe
p3291
aVulcer
p3292
aVqueer
p3293
aVsickday
p3294
aVthermomet
p3295
aVthigh
p3296
aVquea
p3297
aVseizur
p3298
aVsnack
p3299
aVtire
p3300
aVjaw
p3301
aVdick
p3302
aVocd
p3303
aVrash
p3304
aVsugar
p3305
aVgulp
p3306
aVviagra
p3307
aVcondom
p3308
aVhip
p3309
aVstd
p3310
aVhiv
p3311
aVjoint
p3312
aVbreast
p3313
aVdx
p3314
aVdr
p3315
aVbar
p3316
aVdiabet
p3317
aVnaus
p3318
aVleuk
p3319
aVnostril
p3320
aVenema
p3321
aVcontag
p3322
aVars
p3323
aVheartburn
p3324
aVsex
p3325
aVasleep
p3326
aVovereat
p3327
aVtender
p3328
aVbutt'
p3329
aVarm
p3330
aVarou
p3331
aVxray
p3332
aVgrocer
p3333
aVsweat
p3334
aVfinger
p3335
aVpiss
p3336
aVtendoni
p3337
aVpatholog
p3338
aVweak
p3339
aVvitamin
p3340
aVwear
p3341
aVintox
p3342
aVcoma
p3343
aVkitchen
p3344
aVwater
p3345
aVprogno
p3346
aVmono
p3347
aVill
p3348
aVdrug
p3349
aVchiropract
p3350
aVtingl
p3351
aVswallow
p3352
aVconstipat
p3353
aVcancer
p3354
aVdrunk
p3355
aVincest
p3356
aVcolon
p3357
aVhangov
p3358
aVcolono
p3359
aVnake
p3360
aVfri
p3361
aVobe
p3362
aVerect
p3363
aVbreath
p3364
aVbeer
p3365
aVdrank
p3366
aVhomosexu
p3367
aVweari
p3368
aVpm
p3369
aVlife
p3370
aVprostitu
p3371
aVchlamydia
p3372
aVgay
p3373
aVtricep
p3374
aVinfect
p3375
aVbladder
p3376
aVwake
p3377
aVliver
p3378
aVbrunch
p3379
aVchill
p3380
aVphysician
p3381
aVaid
p3382
aVcock
p3383
aVjissom
p3384
aVvd
p3385
aVneuron
p3386
aViv
p3387
aVlust
p3388
aVhamstr
p3389
aVrib
p3390
aVfeed
p3391
aVpap
p3392
aVpelvi
p3393
aVhyperten
p3394
aVritalin
p3395
aVbelli
p3396
aVdoctor
p3397
aVmedic
p3398
aVwound
p3399
aVforehead
p3400
aVshit
p3401
aVexhaust
p3402
aVitch
p3403
aVswell
p3404
aVdrink
p3405
aVankl
p3406
aVfucker
p3407
aVhand
p3408
aVfruit
p3409
aVwheez
p3410
aVinflam
p3411
aVsunburn
p3412
aVorthodon
p3413
aVgenit
p3414
aVcheek
p3415
aVwithdraw
p3416
aVtast
p3417
aVflesh
p3418
aVdose
p3419
aVclinic
p3420
aVthyroid
p3421
aVasthma
p3422
aVsensat
p3423
aVperspir
p3424
aVtitti
p3425
aVprudish
p3426
aVpill
p3427
aVfacial
p3428
aVfatt
p3429
aVcodein
p3430
aVshoulder
p3431
aVnudi
p3432
aVspine
p3433
aVnude
p3434
aVzoloft
p3435
aVnose
p3436
aVindigest
p3437
aVcandi
p3438
aVdeaf
p3439
aVmuscl
p3440
aVhair
p3441
aVhomo
p3442
aVpalm
p3443
aVibuprofen
p3444
aVpain
p3445
aVsaliv
p3446
aVsyndrom
p3447
aVpassion
p3448
aVscalp
p3449
aVpee
p3450
aVicu
p3451
aVamput
p3452
aVimmun
p3453
aVthrob
p3454
aVzit
p3455
aVbi
p3456
aVslut
p3457
aVcoronar
p3458
aVburp
p3459
aVperver
p3460
aVpasta
p3461
aVcrap
p3462
aVskelet
p3463
aVtooth
p3464
aVdiner
p3465
aVach
p3466
aVacn
p3467
aVingest
p3468
aVdinner
p3469
aVheel
p3470
aVchow
p3471
aVbandag
p3472
aVprostat
p3473
aVcheckup
p3474
aVchronic
p3475
aVorthop
p3476
aVpussi
p3477
aVnurs
p3478
aVdetox
p3479
aVunhealth
p3480
aVvirgin
p3481
aVtylenol
p3482
aVstarv
p3483
aVspat
p3484
aVheadach
p3485
aVhead
p3486
aVsyphili
p3487
aVcoke
p3488
aVretina
p3489
aVsickest
p3490
aVpregnan
p3491
aVcloth
p3492
aVhiccup
p3493
aVho
p3494
aVlymph
p3495
aVgoosebump
p3496
aVuter
p3497
aVear
p3498
aVeat
p3499
aVgynecolog
p3500
aVskull
p3501
aVveget
p3502
aVinjur
p3503
aVoptometr
p3504
aVwhiskey
p3505
aVmanicdep
p3506
aVpuls
p3507
aVab
p3508
aVestrogen
p3509
aVforearm
p3510
aVmuscular
p3511
aVnerv
p3512
aVgland
p3513
aVbicep
p3514
aVface
p3515
aVkidney
p3516
aVbooz
p3517
aVspit
p3518
aVtit
p3519
aVscrape
p3520
aVvicodin
p3521
aVsick
p3522
aVboob
p3523
aVpoop
p3524
aVtongu
p3525
aVxanax
p3526
aVhormon
p3527
aVdiet
p3528
aVpharmac
p3529
aVgobbl
p3530
aVcigar
p3531
aVvein
p3532
aVbronchi
p3533
aVbulimi
p3534
aVpuss
p3535
aVgonorrhea
p3536
aVteeth
p3537
aVbandaid
p3538
atp3539
Rp3540
sS'NEGATIONS'
p3541
g2
((lp3542
Vdont
p3543
aVdon't
p3544
aVwasnt
p3545
aVdidn't
p3546
aVmustnt
p3547
aVhadn't
p3548
aVisnt
p3549
aVdoesnt
p3550
aVwon't
p3551
aVcouldn't
p3552
aVcouldnt
p3553
aVuhuh
p3554
aVshan't
p3555
aVaint
p3556
aVdoesn't
p3557
aVhasnt
p3558
aVno
p3559
aVneedn't
p3560
aVwithout
p3561
aVshouldn't
p3562
aVought'nt
p3563
aVnobod
p3564
aVneither
p3565
aVnope
p3566
aVnoth
p3567
aVhaven't
p3568
aVweren't
p3569
aVshouldnt
p3570
aVnot
p3571
aVnever
p3572
aVcant
p3573
aVoughtn't
p3574
aVcannot
p3575
aVain't
p3576
aVneed'nt
p3577
aVmust'nt
p3578
aVhadnt
p3579
aVshant
p3580
aVaren't
p3581
aVneednt
p3582
aVisn't
p3583
aVnor
p3584
aVwont
p3585
aVnone
p3586
aVwouldnt
p3587
aVwasn't
p3588
aVwouldn't
p3589
aVnegat
p3590
aVhasn't
p3591
aVoughtnt
p3592
aVshould'nt
p3593
aVarent
p3594
aVhavent
p3595
aVnowher
p3596
aVdidnt
p3597
aVmustn't
p3598
aVcan't
p3599
atp3600
Rp3601
sS'ANGER'
p3602
g2
((lp3603
Vliar
p3604
aVridicul
p3605
aVvile
p3606
aVugl
p3607
aVcheat
p3608
aVfume
p3609
aVhatr
p3610
aVviciou
p3611
aVprotest
p3612
aVkill
p3613
aVvictim
p3614
aVhell
p3615
aVmolest
p3616
aVhate
p3617
aVcut
p3618
aVspite
p3619
aVsinist
p3620
aVenvi
p3621
aVsmother
p3622
aVdisgust
p3623
aVhater
p3624
aVoutrag
p3625
aVjerk
p3626
aVsucker
p3627
aVresent
p3628
aVsnob
p3629
aVrebel
p3630
aVenviou
p3631
aVmocker
p3632
aVhumiliat
p3633
aVtick
p3634
aVconfront
p3635
aVhostil
p3636
aVviolent
p3637
aVenemi
p3638
aVdistrust
p3639
aVstupid
p3640
aVenrag
p3641
aVprejud
p3642
aVpetti
p3643
aVparanoi
p3644
aVdump
p3645
aVtea
p3646
aVterrifi
p3647
aVdumb
p3648
aVrapist
p3649
aVagitat
p3650
aVsarca
p3651
aVskeptic
p3652
aVbeaten
p3653
aVdefenc
p3654
aVpoison
p3655
aVfoe
p3656
aVdespi
p3657
aVcrude
p3658
aVwick
p3659
aVpiss
p3660
aVshit
p3661
aVargu
p3662
aVargh
p3663
aVevil
p3664
aVjealou
p3665
aVmaniac
p3666
aVcritici
p3667
aVbrutal
p3668
aVarrogan
p3669
aVharass
p3670
aVangr
p3671
aVantagoni
p3672
aVfuckin
p3673
aVcynic
p3674
aVcontrad
p3675
aVdanger
p3676
aVtortur
p3677
aVaggravat
p3678
aVsavag
p3679
aVbitch
p3680
aVinsult
p3681
aVaggress
p3682
aVreveng
p3683
aVcrap
p3684
aVfieri
p3685
aVfrustrat
p3686
aVmadden
p3687
aVfight
p3688
aVmadder
p3689
aVattack
p3690
aVfought
p3691
aVhellish
p3692
aVlou
p3693
aVdamn
p3694
aVbitter
p3695
aVwar
p3696
aVmurder
p3697
aVpunish
p3698
aVmad
p3699
aVtantrum
p3700
aVasshol
p3701
aVmaddest
p3702
aVoffen
p3703
aVcunt
p3704
aVcrappi
p3705
aVannoy
p3706
aVludicr
p3707
aVrage
p3708
aVbother
p3709
aVbattl
p3710
aVvillain
p3711
aVtrick
p3712
aVcruel
p3713
aVsucki
p3714
aVgrouch
p3715
aVtemper
p3716
aVinterrup
p3717
aVstubborn
p3718
aVfuriou
p3719
aVdomina
p3720
aVfuck
p3721
aVheartless
p3722
aVanger
p3723
aVcritic
p3724
aVblam
p3725
aVfuri
p3726
aVdefen
p3727
aVcontempt
p3728
aVlie
p3729
aVbastard
p3730
aVgrr
p3731
aVnag
p3732
aVgoddam
p3733
aVidiot
p3734
aVviolat
p3735
aVrape
p3736
aVmoron
p3737
aVdestroy
p3738
aVmock
p3739
aVprick
p3740
aVthreat
p3741
aVrude
p3742
aVscrew
p3743
aVfucker
p3744
aVsceptic
p3745
aVoffend
p3746
aVassault
p3747
aVabus
p3748
aVsuck
p3749
aVabusi
p3750
aVintimidat
p3751
aVnast
p3752
aVobnoxi
p3753
aVweapon
p3754
aVwarfar
p3755
aVdestruct
p3756
aVfeud
p3757
aVferoc
p3758
aVgreed
p3759
aVoffenc
p3760
atp3761
Rp3762
sS'HEALTH'
p3763
g2
((lp3764
Vcheckup
p3765
aVnutrit
p3766
aVach
p3767
aVschizophren
p3768
aVhypotherm
p3769
aVdose
p3770
aVclinic
p3771
aVpm
p3772
aVulcer
p3773
aVlozeng
p3774
aVprozac
p3775
aVantacid
p3776
aVthermomet
p3777
aVdigest
p3778
aVquea
p3779
aVseizur
p3780
aVasthma
p3781
aVtire
p3782
aVdr
p3783
aVocd
p3784
aVdecongest
p3785
aVviagra
p3786
aVgyno
p3787
aVpill
p3788
aVemphysem
p3789
aVstd
p3790
aVcongest
p3791
aVphysician
p3792
aVphobi
p3793
aVinsomnia
p3794
aVfat
p3795
aVwash
p3796
aVorthodon
p3797
aVvomit
p3798
aVhallucinat
p3799
aVdx
p3800
aVfatt
p3801
aVsurgeon
p3802
aVcodein
p3803
aVdiarr
p3804
aVsicker
p3805
aVdiabet
p3806
aVstiff
p3807
aVzit
p3808
aVtumo
p3809
aVnaus
p3810
aVdrow
p3811
aVleuk
p3812
aVmyopi
p3813
aVzoloft
p3814
aVenema
p3815
aVindigest
p3816
aVarthr
p3817
aVcontag
p3818
aVheartburn
p3819
aVdeaf
p3820
aVtestosteron
p3821
aVparali
p3822
aVimmun
p3823
aVpodiatr
p3824
aVibuprofen
p3825
aVtender
p3826
aVhealer
p3827
aVnurs
p3828
aVappend
p3829
aVsyndrom
p3830
aVsickday
p3831
aValcohol
p3832
aVtwitch
p3833
aVpuk
p3834
aVrx
p3835
aVpoison
p3836
aVxray
p3837
aVbipolar
p3838
aVhealth
p3839
aVwart
p3840
aVicu
p3841
aVamput
p3842
aVthyroid
p3843
aVtendoni
p3844
aVdiseas
p3845
aVpatholog
p3846
aVobe
p3847
aVthrob
p3848
aVsinu
p3849
aVweak
p3850
aVvitamin
p3851
aVhormon
p3852
aVpainf
p3853
aVburp
p3854
aVintox
p3855
aVcoma
p3856
aVcough
p3857
aVbleed
p3858
aVmiscar
p3859
aVdizz
p3860
aVprogno
p3861
aVmono
p3862
aVill
p3863
aVchok
p3864
aVacn
p3865
aVfarsight
p3866
aVchiropract
p3867
aVinsulin
p3868
aVcyst
p3869
aVbandag
p3870
aVconstipat
p3871
aVblind
p3872
aVwheez
p3873
aVcancer
p3874
aVcramp
p3875
aVchronic
p3876
aVfatigu
p3877
aVhangov
p3878
aVcolono
p3879
aVmammogram
p3880
aVtox
p3881
aVherp
p3882
aVpainl
p3883
aVfaint
p3884
aVlive
p3885
aVsickli
p3886
aVweari
p3887
aVaspirin
p3888
aVheadach
p3889
aVlife
p3890
aVsyphili
p3891
aVnearsight
p3892
aVchlamydia
p3893
aVsickest
p3894
aVallerg
p3895
aVinfect
p3896
aVheal
p3897
aVpharmac
p3898
aVpregnan
p3899
aVmigrain
p3900
aVsore
p3901
aVdentist
p3902
aVorthop
p3903
aVlymph
p3904
aViv
p3905
aVsymptom
p3906
aVchill
p3907
aVgynecolog
p3908
aVhungov
p3909
aVinjur
p3910
aVflu
p3911
aVstroke
p3912
aVoptometr
p3913
aVrehab
p3914
aVhemor
p3915
aVneurolog
p3916
aVaid
p3917
aVmanicdep
p3918
aValiv
p3919
aVglaucoma
p3920
aVestrogen
p3921
aVtherap
p3922
aVscab
p3923
aVingest
p3924
aVdosag
p3925
aVexerci
p3926
aVgland
p3927
aVcardia
p3928
aVabort
p3929
aVdrug
p3930
aVtylenol
p3931
aVunhealth
p3932
aVcardio
p3933
aVantidepress
p3934
aVcholest
p3935
aVpap
p3936
aVhyperten
p3937
aVritalin
p3938
aVhiv
p3939
aVderma
p3940
aVdoctor
p3941
aVstrept
p3942
aVadvil
p3943
aVmedic
p3944
aVwound
p3945
aVscrape
p3946
aVvicodin
p3947
aVsick
p3948
aVsurger
p3949
aVtingl
p3950
aVexhaust
p3951
aVfever
p3952
aVpain
p3953
aVitch
p3954
aVxanax
p3955
aVswell
p3956
aVoverweight
p3957
aVcoronar
p3958
aVlump
p3959
aVpimpl
p3960
aVyawn
p3961
aVdiagno
p3962
aVvertigo
p3963
aVaddict
p3964
aVnumb
p3965
aVinflam
p3966
aVpediatr
p3967
aVsunburn
p3968
aVdetox
p3969
aVphysic
p3970
aVbronchi
p3971
aVbulimi
p3972
aVpuss
p3973
aVprescri
p3974
aVbing
p3975
aVhiccup
p3976
aVhospit
p3977
aVmri
p3978
aVwithdraw
p3979
aVswollen
p3980
aVbandaid
p3981
aVsickleav
p3982
aVanorexi
p3983
atp3984
Rp3985
sS'ACHIEVEMENT'
p3986
g2
((lp3987
Vendeav
p3988
aVfounder
p3989
aVqueen
p3990
aVapprov
p3991
aVobtain
p3992
aVefficien
p3993
aVelit
p3994
aVskill
p3995
aVperfect
p3996
aVauthorit
p3997
aVacquir
p3998
aVineffect
p3999
aVburnout
p4000
aVsolut
p4001
aVideal
p4002
aVabilit
p4003
aVbetter
p4004
aVirrespons
p4005
aVpersist
p4006
aVprai
p4007
aVmediocr
p4008
aVpride
p4009
aVbeat
p4010
aVstrateg
p4011
aVconquer
p4012
aVconscienti
p4013
aVdiligen
p4014
aVambiti
p4015
aVrequir
p4016
aVprize
p4017
aVtri
p4018
aVloss
p4019
aVearn
p4020
aVenabl
p4021
aVlost
p4022
aVstriv
p4023
aVresolv
p4024
aVloser
p4025
aVachiev
p4026
aVlose
p4027
aVmasteri
p4028
aVfound
p4029
aVtriumph
p4030
aVfulfil
p4031
aVincent
p4032
aVconclu
p4033
aVcrown
p4034
aVbonu
p4035
aVfail
p4036
aVwin
p4037
aVincompeten
p4038
aVbest
p4039
aVvictor
p4040
aVaccomplish
p4041
aVlead
p4042
aVbeaten
p4043
aVabl
p4044
aVsuperb
p4045
aVwon
p4046
aVovercom
p4047
aVprogress
p4048
aVqueenli
p4049
aVrank
p4050
aVhero
p4051
aVpower
p4052
aVadvanc
p4053
aVhonour
p4054
aVteam
p4055
aVclosur
p4056
aVlazi
p4057
aVsucceed
p4058
aVpromot
p4059
aVsolv
p4060
aVstrong
p4061
aVsuper
p4062
aVquitt
p4063
aVadequa
p4064
aVplanner
p4065
aVopport
p4066
aVace
p4067
aVsuccess
p4068
aVcelebrat
p4069
aVrecov
p4070
aVunabl
p4071
aVdefeat
p4072
aVimprov
p4073
aVinadequa
p4074
aVhonor
p4075
aVfirst
p4076
aVoverconfiden
p4077
aVproficien
p4078
aVsurviv
p4079
aVacquisit
p4080
aVdetermina
p4081
aVchamp
p4082
aVpresiden
p4083
aVlesson
p4084
aVquit
p4085
aVunsuccess
p4086
aVcreat
p4087
aVcreati
p4088
aVmedal
p4089
aVtop
p4090
aVcapab
p4091
aVinitiat
p4092
aVmaster
p4093
aVunbeat
p4094
aVconclud
p4095
aVdropout
p4096
aVworker
p4097
aVaward
p4098
aVgain
p4099
aVpersev
p4100
aVeffort
p4101
aVovertak
p4102
aVpractic
p4103
aVking
p4104
aVahead
p4105
aVwork
p4106
aVlimit
p4107
aVoutcom
p4108
aVdomot
p4109
aVpurpos
p4110
aVcontrol
p4111
aVunproduc
p4112
aVdomina
p4113
aVadvantag
p4114
aVchalleng
p4115
aVmotiv
p4116
aVattain
p4117
aVworkabl
p4118
aVresponsib
p4119
aVstrength
p4120
aVgoal
p4121
aVperform
p4122
aVproduc
p4123
aVexcel
p4124
aVimportan
p4125
aVcompet
p4126
aVconfid
p4127
aVresourc
p4128
aVpotenti
p4129
aVeffect
p4130
aVdriven
p4131
aVplan
p4132
aVmastermind
p4133
aVclimb
p4134
aVincapab
p4135
aVattempt
p4136
aVoriginat
p4137
aVproud
p4138
aVorganiz
p4139
aVwinn
p4140
aVdetermin
p4141
aVreward
p4142
aVfinaliz
p4143
atp4144
Rp4145
sS'COMMON VERBS'
p4146
g2
((lp4147
Vshe'll
p4148
aVhelp
p4149
aVwouldv
p4150
aVdon't
p4151
aVitd
p4152
aVmove
p4153
aVwho'
p4154
aVcould'v
p4155
aVbring
p4156
aVisnt
p4157
aVwon't
p4158
aVshant
p4159
aVgo
p4160
aVfollow
p4161
aVsuffer
p4162
aVhate
p4163
aVtaken
p4164
aVaint
p4165
aVha
p4166
aVdepend
p4167
aVthank
p4168
aVexplain
p4169
aVhope
p4170
aVhad
p4171
aVshould
p4172
aVhe'd
p4173
aVfeel
p4174
aVsuppos
p4175
aVbecam
p4176
aVsens
p4177
aVmust
p4178
aVmight
p4179
aVhaven't
p4180
aVgave
p4181
aVmeant
p4182
aVdo
p4183
aVthey'v
p4184
aVwoken
p4185
aVget
p4186
aVit'
p4187
aVstop
p4188
aVwe'll
p4189
aVgonna
p4190
aVthey'd
p4191
aVoughtn't
p4192
aVcannot
p4193
aVknow
p4194
aVaffect
p4195
aVthere'
p4196
aVwho'd
p4197
aVfled
p4198
aVwore
p4199
aVtri
p4200
aVthink
p4201
aVthat'll
p4202
aVlike
p4203
aVlet'
p4204
aVheld
p4205
aVdid
p4206
aVdie
p4207
aVyouv
p4208
aVmust'v
p4209
aVtheyr
p4210
aVshe
p4211
aVwish
p4212
aVfound
p4213
aVhavent
p4214
aVcri
p4215
aVwhere
p4216
aVmustn't
p4217
aVisn't
p4218
aVit'll
p4219
aVi'll
p4220
aVwe'r
p4221
aVoughta
p4222
aVshe'
p4223
aVunderstand
p4224
aVthere
p4225
aVtold
p4226
aVplay
p4227
aVwoke
p4228
aVunderstood
p4229
aVsee
p4230
aVtaught
p4231
aVare
p4232
aVforgot
p4233
aVwont
p4234
aVhappen
p4235
aVmightv
p4236
aVshan't
p4237
aVmustv
p4238
aVsaid
p4239
aVstood
p4240
aVappear
p4241
aVgoe
p4242
aVshould'v
p4243
aVthat'
p4244
aVspoke
p4245
aVought
p4246
aVtend
p4247
aVwritten
p4248
aVwon
p4249
aVshouldn't
p4250
aVthey'll
p4251
aVsold
p4252
aVought'nt
p4253
aVgot
p4254
aVyoull
p4255
aVemail
p4256
aVbought
p4257
aVbe
p4258
aVknew
p4259
aVuse
p4260
aVwa
p4261
aVshouldv
p4262
aVview
p4263
aVtheyv
p4264
aVguess
p4265
aVdislik
p4266
aVmet
p4267
aVshould'nt
p4268
aVlet
p4269
aVbeliev
p4270
aVask
p4271
aVaren't
p4272
aVcome
p4273
aVwent
p4274
aVcare
p4275
aVi'v
p4276
aVate
p4277
aVyour
p4278
aVwouldnt
p4279
aVwasnt
p4280
aVthatd
p4281
aVcould
p4282
aVstudi
p4283
aVowe
p4284
aVkeep
p4285
aVturn
p4286
aVadmit
p4287
aVi'd
p4288
aVarent
p4289
aVchang
p4290
aVmean
p4291
aVhere'
p4292
aVcouldv
p4293
aVcan't
p4294
aVoughtv
p4295
aVitll
p4296
aVlove
p4297
aVdont
p4298
aVworn
p4299
aVive
p4300
aVcarri
p4301
aVyoud
p4302
aVarriv
p4303
aVwalk
p4304
aVbrought
p4305
aVhadn't
p4306
aVdoesnt
p4307
aVdone
p4308
aVmight'v
p4309
aVcouldn't
p4310
aVtheyd
p4311
aVsupport
p4312
aVcouldnt
p4313
aVdrove
p4314
aVmiss
p4315
aVspent
p4316
aVyou'd
p4317
aVtake
p4318
aVdoesn't
p4319
aVfed
p4320
aVbecom
p4321
aVdescrib
p4322
aVwould
p4323
aVstuck
p4324
aVcaught
p4325
aVslept
p4326
aVbeen
p4327
aVhed
p4328
aVstart
p4329
aVlive
p4330
aVdrank
p4331
aVcall
p4332
aVshow
p4333
aVfought
p4334
aVwait
p4335
aVwhere'
p4336
aVit'd
p4337
aVlisten
p4338
aVwho'll
p4339
aVthat
p4340
aVdidn't
p4341
aVtook
p4342
aVwhat'
p4343
aVhere
p4344
aVain't
p4345
aVmust'nt
p4346
aVhadnt
p4347
aVi'm
p4348
aVgiven
p4349
aVsent
p4350
aVhe
p4351
aVmade
p4352
aVlook
p4353
aVwasn't
p4354
aVgotten
p4355
aVgotta
p4356
aVwork
p4357
aVhasn't
p4358
aVoughtnt
p4359
aVwill
p4360
aVhe'
p4361
aVcan
p4362
aVwere
p4363
aVthrew
p4364
aVdidnt
p4365
aVwouldn't
p4366
aVwe'd
p4367
aVgone
p4368
aVthatll
p4369
aVgive
p4370
aVran
p4371
aVis
p4372
aVyou'v
p4373
aVam
p4374
aVfuck
p4375
aVaccept
p4376
aVmustnt
p4377
aVheard
p4378
aVcant
p4379
aVweve
p4380
aVim
p4381
aVhave
p4382
aVneed
p4383
aVseen
p4384
aVseem
p4385
aVsaw
p4386
aVid
p4387
aVsat
p4388
aVlie
p4389
aVhasnt
p4390
aVend
p4391
aVwant
p4392
aVbegan
p4393
aVthey'r
p4394
aVwho
p4395
aVhow
p4396
aVyou'r
p4397
aVhow'
p4398
aVwhod
p4399
aVwrote
p4400
aVwonder
p4401
aVweren't
p4402
aVbegin
p4403
aVshouldnt
p4404
aVshall
p4405
aVmay
p4406
aVfelt
p4407
aVwhat
p4408
aVpaid
p4409
aVstay
p4410
aVdriven
p4411
aVflew
p4412
aVeaten
p4413
aVshare
p4414
aVtheyll
p4415
aVsuck
p4416
aVwould'v
p4417
aVhe'll
p4418
aVkept
p4419
aVthat'd
p4420
aVwe'v
p4421
aVlost
p4422
aVshe'd
p4423
aVdoe
p4424
aVthought
p4425
aVyou'll
p4426
aVought'v
p4427
aVtalk
p4428
aVwholl
p4429
aVenter
p4430
aVhear
p4431
aVmake
p4432
aVcame
p4433
atp4434
Rp4435
sS'BODY'
p4436
g2
((lp4437
Vthigh
p4438
aVflesh
p4439
aVcornea
p4440
aVhorni
p4441
aVbrain
p4442
aVerectil
p4443
aVsleep
p4444
aVshoe
p4445
aVskin
p4446
aVintestin
p4447
aVjaw
p4448
aVdick
p4449
aVrash
p4450
aVsensat
p4451
aVperspir
p4452
aVtitti
p4453
aVpeni
p4454
aVhip
p4455
aVtoenail
p4456
aVfat
p4457
aVjoint
p4458
aVbreast
p4459
aVfacial
p4460
aVfatt
p4461
aVfoot
p4462
aVshoulder
p4463
aVnudi
p4464
aVspine
p4465
aVnude
p4466
aVgum
p4467
aVboni
p4468
aVcrotch
p4469
aVnostril
p4470
aVgut
p4471
aVcolon
p4472
aVanal
p4473
aVpiss
p4474
aVheel
p4475
aVars
p4476
aVmuscl
p4477
aVhair
p4478
aVorgasm
p4479
aVasleep
p4480
aVbutt'
p4481
aVsaliv
p4482
aVarm
p4483
aVarou
p4484
aVtonsil
p4485
aVthirst
p4486
aVthroat
p4487
aVfinger
p4488
aVscalp
p4489
aVpee
p4490
aVbloodi
p4491
aVnose
p4492
aVass
p4493
aVleg
p4494
aVankl
p4495
aVbodi
p4496
aVwear
p4497
aVeye
p4498
aVskin'
p4499
aVskelet
p4500
aVslender
p4501
aVbone
p4502
aVarmpit
p4503
aVwrist
p4504
aVprostat
p4505
aVovar
p4506
aVfeet
p4507
aVspinal
p4508
aVlung
p4509
aVpussi
p4510
aVnake
p4511
aVurin
p4512
aVcrap
p4513
aVslept
p4514
aVerect
p4515
aVbreath
p4516
aVvagina
p4517
aVdrool
p4518
aVspat
p4519
aVtoe
p4520
aVhead
p4521
aVstomach
p4522
aVspit
p4523
aVtricep
p4524
aVbowel
p4525
aVretina
p4526
aVbladder
p4527
aVcloth
p4528
aVappendix
p4529
aVwake
p4530
aVliver
p4531
aVbutt
p4532
aVgoosebump
p4533
aVuter
p4534
aVear
p4535
aVwaist
p4536
aVnippl
p4537
aVskull
p4538
aVhamstr
p4539
aVneural
p4540
aVelbow
p4541
aVpalm
p4542
aVcock
p4543
aVpuls
p4544
aVheart
p4545
aVab
p4546
aVforearm
p4547
aVneuron
p4548
aVmuscular
p4549
aVnerv
p4550
aVanu
p4551
aVbicep
p4552
aVtooth
p4553
aVrib
p4554
aVkidney
p4555
aVpelvi
p4556
aVbelli
p4557
aVtit
p4558
aVforehead
p4559
aVchest
p4560
aVlip
p4561
aVshit
p4562
aVboob
p4563
aVsweat
p4564
aVpoop
p4565
aVprick
p4566
aVitch
p4567
aVbald
p4568
aVnasal
p4569
aVabdomen
p4570
aVhand
p4571
aVmouth
p4572
aVblood
p4573
aVknee
p4574
aVarch
p4575
aVvein
p4576
aVshirt
p4577
aVmucou
p4578
aVtendon
p4579
aVneck
p4580
aVarter
p4581
aVgenit
p4582
aVskinni
p4583
aVcheek
p4584
aVwomb
p4585
aVface
p4586
aVknuckl
p4587
aVtongu
p4588
aVteeth
p4589
atp4590
Rp4591
sS'SEEING'
p4592
g2
((lp4593
Vblind
p4594
aVtriang
p4595
aVglanc
p4596
aVscan
p4597
aVcolor
p4598
aVrectang
p4599
aVorang
p4600
aVyellow
p4601
aVwhitish
p4602
aVbright
p4603
aVpink
p4604
aVvivid
p4605
aVblond
p4606
aVredd
p4607
aVseen
p4608
aVsaw
p4609
aVclick
p4610
aVcream
p4611
aVblue
p4612
aVscann
p4613
aVeye
p4614
aVreddish
p4615
aVpictur
p4616
aVlit
p4617
aVviewer
p4618
aVblack
p4619
aVcircl
p4620
aVblackish
p4621
aVseer
p4622
aVsquar
p4623
aVwhite
p4624
aVscreen
p4625
aVred
p4626
aVstare
p4627
aVbrown
p4628
aVgaz
p4629
aVsee
p4630
aVimag
p4631
aVwatch
p4632
aVsight
p4633
aVbeaut
p4634
aVsunli
p4635
aVpurpl
p4636
aVglow
p4637
aVshine
p4638
aVgray
p4639
aVlook
p4640
aVlooker
p4641
aVcolumn
p4642
aVcolour
p4643
aVshini
p4644
aVgrey
p4645
aVsunshin
p4646
aVgreen
p4647
aVcandl
p4648
aVround
p4649
aVview
p4650
atp4651
Rp4652
sS'3RD SINGULAR'
p4653
g2
((lp4654
Vhe'd
p4655
aVhimself
p4656
aVoneself
p4657
aVher
p4658
aVshe'
p4659
aVshe'd
p4660
aVhed
p4661
aVshe'll
p4662
aVhe'
p4663
aVshe
p4664
aVhi
p4665
aVherself
p4666
aVhim
p4667
aVhe
p4668
atp4669
Rp4670
sS'FUNCTION WORDS'
p4671
g2
((lp4672
Vall
p4673
aVlack
p4674
aVfour
p4675
aVwho'll
p4676
aVwhose
p4677
aVone
p4678
aVitll
p4679
aVto
p4680
aVbecam
p4681
aVunder
p4682
aVlotsa
p4683
aVeveri
p4684
aVwhichev
p4685
aVworst
p4686
aVveri
p4687
aVappar
p4688
aVwe'll
p4689
aVdid
p4690
aVitem
p4691
aVsection
p4692
aVquick
p4693
aVhavent
p4694
aVyall
p4695
aVit'll
p4696
aVcetera
p4697
aVyou'd
p4698
aVten
p4699
aVbe
p4700
aVsecond
p4701
aVyou'r
p4702
aVthoust
p4703
aVeven
p4704
aVmustv
p4705
aVshould'v
p4706
aVthat'
p4707
aVwhile
p4708
aVever
p4709
aVwhatev
p4710
aVfull
p4711
aVthemselv
p4712
aVdespit
p4713
aVshouldv
p4714
aVnever
p4715
aVhere
p4716
aVlet
p4717
aVhadn't
p4718
aValong
p4719
aVbecom
p4720
aVsinc
p4721
aVi'v
p4722
aVahead
p4723
aVthatd
p4724
aVdidnt
p4725
aVanymor
p4726
aVi'd
p4727
aVarent
p4728
aVtwent
p4729
aVextrem
p4730
aVi'm
p4731
aVhere'
p4732
aVourselv
p4733
aValthough
p4734
aVextra
p4735
aVtotal
p4736
aVoughtv
p4737
aVhighli
p4738
aVfrom
p4739
aVwould
p4740
aVdoubl
p4741
aVtwo
p4742
aVfew
p4743
aVthru
p4744
aVuntil
p4745
aVmore
p4746
aVhundr
p4747
aVain't
p4748
aVrare
p4749
aVmust
p4750
aVme
p4751
aVnone
p4752
aVuniqu
p4753
aVremain
p4754
aVnine
p4755
aVcan
p4756
aVmy
p4757
aVdidn't
p4758
aVweve
p4759
aVrather
p4760
aVanoth
p4761
aVsix
p4762
aVhow
p4763
aVanyon
p4764
aVinstead
p4765
aVshouldnt
p4766
aVmay
p4767
aVafter
p4768
aVbefor
p4769
aVsuch
p4770
aVa
p4771
aVthird
p4772
aVthat'd
p4773
aVso
p4774
aVallot
p4775
aVthirt
p4776
aVdon't
p4777
aVitd
p4778
aVsooo
p4779
aVbecaus
p4780
aVisnt
p4781
aVthrough
p4782
aVfift
p4783
aVstill
p4784
aVbunch
p4785
aVtill
p4786
aVhe'd
p4787
aVwhether
p4788
aVmain
p4789
aVmight
p4790
aVhaven't
p4791
aVthen
p4792
aVthem
p4793
aVyoud
p4794
aVgreater
p4795
aVya
p4796
aVit'
p4797
aVthee
p4798
aVye
p4799
aVunderneath
p4800
aVthey
p4801
aVhalf
p4802
aVnot
p4803
aVwouldv
p4804
aVnow
p4805
aVnor
p4806
aVwont
p4807
aVsomewher
p4808
aVanyth
p4809
aVlotof
p4810
aVanybod
p4811
aVbeneath
p4812
aVquarter
p4813
aVmustn't
p4814
aVisn't
p4815
aVwe'r
p4816
aVwe'v
p4817
aVrealli
p4818
aVwe'd
p4819
aVour
p4820
aVbeyond
p4821
aVtenth
p4822
aVout
p4823
aVneedn't
p4824
aVshouldn't
p4825
aVthey'll
p4826
aVought'nt
p4827
aVinsid
p4828
aVwherea
p4829
aVmillion
p4830
aVcould
p4831
aVthing
p4832
aVperhap
p4833
aVthine
p4834
aVoutsid
p4835
aVonto
p4836
aVcouldv
p4837
aVfrequent
p4838
aVfirst
p4839
aVi'll
p4840
aVmajor
p4841
aVdont
p4842
aVonc
p4843
aVmucho
p4844
aVdone
p4845
aVdoesn't
p4846
aVdiffer
p4847
aVtrillion
p4848
aVleast
p4849
aVtheir
p4850
aVton
p4851
aVtoo
p4852
aVespeci
p4853
aVpart
p4854
aVsomewhat
p4855
aVhadnt
p4856
aVthat'll
p4857
aVherself
p4858
aVthan
p4859
aVweren't
p4860
aVwhenev
p4861
aVzero
p4862
aVoughtnt
p4863
aVfirstli
p4864
aVwere
p4865
aVtoward
p4866
aVand
p4867
aVwasnt
p4868
aVyou'v
p4869
aVmine
p4870
aVhave
p4871
aVdozen
p4872
aVthat
p4873
aValso
p4874
aVwithout
p4875
aVwhich
p4876
aVnoth
p4877
aVsingl
p4878
aVunless
p4879
aVplenti
p4880
aVshall
p4881
aVwho
p4882
aVwhat
p4883
aVmost
p4884
aVeight
p4885
aVeveryth
p4886
aVdoe
p4887
aVyou'll
p4888
aVaway
p4889
aVtwel
p4890
aVmostli
p4891
aVanyway
p4892
aVmust'v
p4893
aVaint
p4894
aVabsolut
p4895
aVonli
p4896
aVenough
p4897
aVshould
p4898
aVover
p4899
aVhope
p4900
aVdo
p4901
aVthey'v
p4902
aVnearli
p4903
aVvariou
p4904
aVthey'r
p4905
aVsoon
p4906
aVthey'd
p4907
aVoughtn't
p4908
aVcannot
p4909
aVhim
p4910
aVtruli
p4911
aVyoull
p4912
aVtwice
p4913
aVstuff
p4914
aVshe
p4915
aVeverybod
p4916
aVwon't
p4917
aVnowher
p4918
aVwhere
p4919
aVy'all
p4920
aVup
p4921
aVare
p4922
aVbest
p4923
aVinfinit
p4924
aVsometh
p4925
aVbehind
p4926
aVbetween
p4927
aVneither
p4928
aVnope
p4929
aVacross
p4930
aVwe
p4931
aVwa
p4932
aVentir
p4933
aVextent
p4934
aVboth
p4935
aVthou
p4936
aVhowev
p4937
aVequal
p4938
aVagainst
p4939
aVetc
p4940
aVshould'nt
p4941
aVwholl
p4942
aValot
p4943
aVgener
p4944
aVmani
p4945
aVwhole
p4946
aVcan't
p4947
aVload
p4948
aVamong
p4949
aVsimpli
p4950
aVexcept
p4951
aVcouldn't
p4952
aVwouldn't
p4953
aVlate
p4954
aVaren't
p4955
aVcoupl
p4956
aVthere'
p4957
aVthree
p4958
aVbeen
p4959
aVwhom
p4960
aVmuch
p4961
aVbesid
p4962
aVbasic
p4963
aVwhod
p4964
aVimmedi
p4965
aVit'd
p4966
aVthousand
p4967
aVclearli
p4968
aVpartli
p4969
aVan
p4970
aVthose
p4971
aVmyself
p4972
aVthese
p4973
aVwill
p4974
aVnear
p4975
aVabov
p4976
aVeveryon
p4977
aVive
p4978
aVseven
p4979
aVthatll
p4980
aVis
p4981
aVit
p4982
aVcant
p4983
aVitself
p4984
aVim
p4985
aVin
p4986
aVid
p4987
aVsever
p4988
aVif
p4989
aVsame
p4990
aVeventu
p4991
aVcomplet
p4992
aVupon
p4993
aVsomeon
p4994
aVfairli
p4995
aVwould'v
p4996
aVwhere'
p4997
aVoff
p4998
ag84
aVwell
p4999
aVtho
p5000
aVexampl
p5001
aVgreatest
p5002
aVthi
p5003
aVthe
p5004
aVusual
p5005
aVshe'll
p5006
aVjust
p5007
aVless
p5008
aVrest
p5009
aVcould'v
p5010
aVyet
p5011
aVunto
p5012
aVsomebod
p5013
aVhad
p5014
aVcuz
p5015
aVzillion
p5016
aVels
p5017
aVought
p5018
aVaround
p5019
aVmayb
p5020
aVpiec
p5021
aVfive
p5022
aVwho'd
p5023
aVlet'
p5024
aVatho
p5025
aVeither
p5026
aVoften
p5027
aVnegat
p5028
aVsome
p5029
aVback
p5030
aVmightv
p5031
aVshan't
p5032
aVlotta
p5033
aVfor
p5034
aVthough
p5035
aVdefinit
p5036
aVnobod
p5037
aVshe'
p5038
aVplu
p5039
aVeach
p5040
aVneed'nt
p5041
aVby
p5042
aVon
p5043
aVabout
p5044
aVactual
p5045
aVwouldnt
p5046
aVof
p5047
aVwanna
p5048
aVor
p5049
aVtheyr
p5050
aVown
p5051
aVtheyv
p5052
aVprimarili
p5053
aVinto
p5054
aVwithin
p5055
aVdown
p5056
aVdoesnt
p5057
aVmight'v
p5058
aVoughta
p5059
aVtheyd
p5060
aVyouv
p5061
aVcouldnt
p5062
aVyour
p5063
aVher
p5064
aVeleven
p5065
aVthere
p5066
aVhed
p5067
aVlot
p5068
aVconstantli
p5069
aVhimself
p5070
aVform
p5071
aVatop
p5072
aVbut
p5073
aVsomehow
p5074
aVwhat'
p5075
aVhi
p5076
aVmust'nt
p5077
aVshant
p5078
aVha
p5079
aVwith
p5080
aVhe
p5081
aVtripl
p5082
aVwasn't
p5083
aVhasn't
p5084
aVus
p5085
aVbelow
p5086
aVhe'
p5087
aVotherwis
p5088
aVdure
p5089
aVam
p5090
aVmustnt
p5091
aVas
p5092
aVat
p5093
aVprobabl
p5094
aVagain
p5095
aVhasnt
p5096
aVtheyll
p5097
aVno
p5098
aVuhuh
p5099
aVwhen
p5100
aVtil
p5101
aVother
p5102
aVyou
p5103
aVoneself
p5104
aVneednt
p5105
aVbillion
p5106
aVani
p5107
aVanywher
p5108
aVshe'd
p5109
aVought'v
p5110
aVpush
p5111
aVserious
p5112
atp5113
Rp5114
sS'FAMILY'
p5115
g2
((lp5116
Vgrandchil
p5117
aVuncle'
p5118
aVniec
p5119
aVma'
p5120
aVson'
p5121
aVgranddad
p5122
aVuncl
p5123
aVexwiv
p5124
aVson
p5125
aVbro
p5126
aVmomma
p5127
aVexhubbi
p5128
aVex
p5129
aVfamili
p5130
aVcousin
p5131
aVgranddau
p5132
aVnephew
p5133
aVmommi
p5134
aVmom'
p5135
aVfolk
p5136
aVstepmot
p5137
aVpappi
p5138
aVfather
p5139
aVstepchild
p5140
aVpa
p5141
aVexwif
p5142
aVrel
p5143
aVmum
p5144
aVdad
p5145
aVgrandkid
p5146
aVparent
p5147
aVgranni
p5148
aVma
p5149
aVpa'
p5150
aVspou
p5151
aVmummi
p5152
aVmum'
p5153
aVgrandpa
p5154
aVkin
p5155
aVmom
p5156
aVwive
p5157
aVexhusband
p5158
aVsister
p5159
aVexe
p5160
aVdaughter
p5161
aVgrandson
p5162
aVwife
p5163
aVhubbi
p5164
aVbrother
p5165
aVsi
p5166
aVaunt
p5167
aVgrandf
p5168
aVmother
p5169
aVstepfat
p5170
aVmarri
p5171
aVgrandm
p5172
aVhusband
p5173
aVstepkid
p5174
atp5175
Rp5176
sS'SPACE'
p5177
g2
((lp5178
Vbreadth
p5179
aVtaller
p5180
aVedg
p5181
aVseparat
p5182
aVover
p5183
aVglobal
p5184
aVmeter
p5185
aVroomi
p5186
aVshape
p5187
aVmile
p5188
aVfarther
p5189
aVcorner
p5190
aVbrink
p5191
aVground
p5192
aVnearer
p5193
aVgiant
p5194
aVmiddl
p5195
aVouter
p5196
aVfit
p5197
aVsky
p5198
aVupstair
p5199
aVlittl
p5200
aVplatform
p5201
aVair
p5202
aVvast
p5203
aVunder
p5204
aVuppermost
p5205
aVlarg
p5206
aVeast
p5207
aVlocal
p5208
aVspann
p5209
aVaround
p5210
aVfar
p5211
aVbig
p5212
aVceil
p5213
aVunderneath
p5214
aVinterior
p5215
aVroommat
p5216
aVverg
p5217
aVworld
p5218
aVhall
p5219
aVbigger
p5220
aVapart
p5221
aVdiagon
p5222
aVsomewher
p5223
aVlevel
p5224
aVledg
p5225
aVfurther
p5226
aVdownward
p5227
aVnowher
p5228
aVwhere
p5229
aVside
p5230
aVmetr
p5231
aVupper
p5232
aVright
p5233
aVfarthest
p5234
aVmap
p5235
aVenorm
p5236
aVup
p5237
aVempt
p5238
aVstreet
p5239
aVconnect
p5240
aVclose
p5241
aVbeyond
p5242
aVoutward
p5243
aVout
p5244
aVcloser
p5245
aVentranc
p5246
aVbottom
p5247
aVbroad
p5248
aVaway
p5249
aVspaci
p5250
aVnear
p5251
aVoverlap
p5252
aVexit
p5253
aVintersect
p5254
aVkilomet
p5255
aVacross
p5256
aVroomat
p5257
aVshut
p5258
aVfull
p5259
aVinsid
p5260
aVenclo
p5261
aVsmall
p5262
aVthinli
p5263
aVvertic
p5264
aVbeneath
p5265
aVboth
p5266
aVstair
p5267
aVundersid
p5268
aVsurround
p5269
aVplace
p5270
aVoutsid
p5271
aVginorm
p5272
aVnarrow
p5273
aVonto
p5274
aVroad
p5275
aVcapacit
p5276
aVamong
p5277
aVpoint
p5278
aVwall
p5279
aVinto
p5280
aVdistan
p5281
aVheight
p5282
aVdown
p5283
aVthick
p5284
aVcountr
p5285
aVopen
p5286
aVtiniest
p5287
aVwherev
p5288
aVspan
p5289
aVarea
p5290
aVstretch
p5291
aVwest
p5292
aVtop
p5293
aVunivers
p5294
aVcoverag
p5295
aVciti
p5296
aVbesid
p5297
aVdensit
p5298
aVbiggest
p5299
aVtallest
p5300
aVtini
p5301
aVinner
p5302
aVnorth
p5303
aVon
p5304
aVatop
p5305
aVwithin
p5306
aVsite
p5307
aVforward
p5308
aVshort
p5309
aVtogeth
p5310
aVoverflow
p5311
aVtown
p5312
aVwide
p5313
aVroom
p5314
aVremot
p5315
aVstraight
p5316
aVintern
p5317
aVhorizont
p5318
aVbelow
p5319
aVthin
p5320
aVabov
p5321
aVposit
p5322
aVtoward
p5323
aVat
p5324
aVnearest
p5325
aVbent
p5326
aVcentr
p5327
aVwhere'
p5328
aVanywher
p5329
aVdeep
p5330
aVhigh
p5331
aVwidth
p5332
aVbend
p5333
aVexterior
p5334
aVin
p5335
aVencompass
p5336
aVeverywher
p5337
aVhuge
p5338
aVsurfac
p5339
aVfloor
p5340
aVmid
p5341
aVlow
p5342
aVinch
p5343
aVmass
p5344
aVgigant
p5345
aVclosest
p5346
aVupon
p5347
aVthinn
p5348
aVtinier
p5349
aVnation
p5350
aVsegment
p5351
aVlongitud
p5352
aVland
p5353
aVoff
p5354
aVcenter
p5355
aVterritor
p5356
aVdens
p5357
aVspace
p5358
aVkm
p5359
aVdepth
p5360
aVenviron
p5361
aVsouth
p5362
aVtall
p5363
aVbackward
p5364
aVsection
p5365
aVleft
p5366
atp5367
Rp5368
sS'ASSENT'
p5369
g2
((lp5370
Vye
p5371
aVyea
p5372
aVah
p5373
aVyeah
p5374
aVrofl
p5375
aVaw
p5376
aVyep
p5377
aVagre
p5378
aVuhuh
p5379
aVduh
p5380
aVabsolut
p5381
aVyay
p5382
aVlol
p5383
aVyah
p5384
aVokey
p5385
aVaok
p5386
aVhah
p5387
aVokay
p5388
aVhuh
p5389
aVhaha
p5390
aVuhhu
p5391
aVhm
p5392
aVha
p5393
aVcool
p5394
aVok
p5395
aVoh
p5396
aVmm
p5397
aVheh
p5398
aVyup
p5399
aValright
p5400
aVawesom
p5401
atp5402
Rp5403
sS'TIME'
p5404
g2
((lp5405
Vsummer
p5406
aVdail
p5407
aVnewest
p5408
aVyoung
p5409
aVsoon
p5410
aVmonth
p5411
aVwhilst
p5412
aVperpetu
p5413
aVoldest
p5414
aVspeed
p5415
aVyet
p5416
aVtil
p5417
aVbiannu
p5418
aVweekl
p5419
aVdecay
p5420
aVterminat
p5421
aVforev
p5422
aVthursday
p5423
aVlate
p5424
aVoclock
p5425
aVbusi
p5426
aVstarter
p5427
aVfade
p5428
aVschedul
p5429
aVdecad
p5430
aVbye
p5431
aVearli
p5432
aVthen
p5433
aVmarch
p5434
aVstop
p5435
aVterm
p5436
aViniti
p5437
aVfastest
p5438
aVbirth
p5439
aVoctob
p5440
aVnow
p5441
aVday
p5442
aVstopper
p5443
aVeve
p5444
aVweek'
p5445
aVfebruari
p5446
aVcommon
p5447
aVnight
p5448
aVceas
p5449
aVjanuari
p5450
aVseptemb
p5451
aVprior
p5452
aVstill
p5453
aVweek
p5454
aVold
p5455
aVspring
p5456
aVinterv
p5457
aVstartup
p5458
aVback
p5459
aVwednesday
p5460
aVpast
p5461
aVborn
p5462
aVsecond
p5463
aVrepeat
p5464
aVbegun
p5465
aVyear
p5466
aVhappen
p5467
aVevent
p5468
aVeven
p5469
aVsimultan
p5470
aVclock
p5471
aVnewli
p5472
aVcurrent
p5473
aVbimonth
p5474
aVnew
p5475
aVever
p5476
aVinciden
p5477
aVtempora
p5478
aVnever
p5479
aVaugust
p5480
aVgener
p5481
aVfriday
p5482
aVimmort
p5483
aVyesterday
p5484
aVcycl
p5485
aVslow
p5486
aVusual
p5487
aVmeantim
p5488
aVaftermath
p5489
aVafterward
p5490
aVchristma
p5491
aVetern
p5492
aVlast
p5493
aVahead
p5494
aVanymor
p5495
aVannual
p5496
aVapril
p5497
aVafternoon
p5498
aVchildhood
p5499
aVfrequent
p5500
aVfirst
p5501
aVorigin
p5502
aVonc
p5503
aVtuesday
p5504
aVperiod
p5505
aVsometim
p5506
aVyearli
p5507
aVtill
p5508
aValreadi
p5509
aVcentur
p5510
aVawhil
p5511
aVrespect
p5512
aVinstan
p5513
aVtomorrow
p5514
aVancient
p5515
aVafterthought
p5516
aVrecur
p5517
aVinfinit
p5518
aVdue
p5519
aVfast
p5520
aVnext
p5521
aVstart
p5522
aVinitiat
p5523
aVmorn
p5524
aVforward
p5525
aVimmedi
p5526
aVfinal
p5527
aVtoday
p5528
aVfollowup
p5529
aVrhythm
p5530
aVseason
p5531
aVjuli
p5532
aVhurri
p5533
aVcontinu
p5534
aVnewer
p5535
aVquick
p5536
aVrepetit
p5537
aVformer
p5538
aVpresent
p5539
aVafterlif
p5540
aVtonight
p5541
aVconstantli
p5542
aVhour
p5543
aVwhenev
p5544
aVhistor
p5545
aVuntil
p5546
aVyouth
p5547
aVwhile
p5548
aVabrupt
p5549
aVera
p5550
aVminut
p5551
aVbeginn
p5552
aVanytim
p5553
aVconstant
p5554
aVdure
p5555
aVmodern
p5556
aVproceed
p5557
aVautumn
p5558
aVnovemb
p5559
aVsudden
p5560
aVreturn
p5561
aVeveryday
p5562
aVprece
p5563
aVagain
p5564
aVend
p5565
aVwinter
p5566
aVmin
p5567
aVbegan
p5568
aVwhen
p5569
aVsaturday
p5570
aVdelay
p5571
aValway
p5572
aVsunday
p5573
aVfutur
p5574
aVsynch
p5575
aVsequen
p5576
aVeventu
p5577
aVupdat
p5578
aVnightli
p5579
aVbiweek
p5580
aVbegin
p5581
aVfinish
p5582
aVmonday
p5583
aVo'clock
p5584
aVrecenc
p5585
aVafter
p5586
aVjune
p5587
aVlong
p5588
aVbefor
p5589
aVmoment
p5590
aVsped
p5591
aVsubsequen
p5592
aVdate
p5593
aVweekend
p5594
aVsenior
p5595
aVrecent
p5596
aVago
p5597
aVfaster
p5598
aVolder
p5599
aVfirstli
p5600
aVage
p5601
aVlater
p5602
aVmeanwhil
p5603
aVtime
p5604
aVoccasion
p5605
aVdecemb
p5606
aVolden
p5607
aVnoon
p5608
aVlatest
p5609
atp5610
Rp5611
sS'IMPERSONAL PRON'
p5612
g2
((lp5613
Vthat'
p5614
aVthatll
p5615
aVitd
p5616
aVit
p5617
aVitself
p5618
aVwho'll
p5619
aVsomebod
p5620
aVthese
p5621
aVwhat
p5622
aVthing
p5623
aVsometh
p5624
aVitll
p5625
aVwhom
p5626
aVother
p5627
aVanyon
p5628
aVwhich
p5629
aVwhod
p5630
aVnobod
p5631
aVit'd
p5632
aVwholl
p5633
aVwhichev
p5634
aVthat
p5635
aVit'
p5636
aVwho
p5637
aVsomeon
p5638
aVwhat'
p5639
aVthat'll
p5640
aVwho'd
p5641
aVthose
p5642
aVsomewher
p5643
aVwhose
p5644
aVanyth
p5645
aVthatd
p5646
aVthat'd
p5647
aVstuff
p5648
aVwhatev
p5649
aVthi
p5650
aVanybod
p5651
aVeverybod
p5652
aVeveryth
p5653
aVeveryon
p5654
aVit'll
p5655
atp5656
Rp5657
sS'AUXILIARY VERBS'
p5658
g2
((lp5659
Vshe'll
p5660
aVdon't
p5661
aVitd
p5662
aVcould'v
p5663
aVmust'v
p5664
aVwon't
p5665
aVthat'll
p5666
aVtheyv
p5667
aVaint
p5668
aVitll
p5669
aVhad
p5670
aVshould
p5671
aVhe'd
p5672
aVbecam
p5673
aVhe
p5674
aVmight
p5675
aVought
p5676
aVdo
p5677
aVthey'v
p5678
aVthey'r
p5679
aVit'
p5680
aVgonna
p5681
aVthey'd
p5682
aVoughtn't
p5683
aVcannot
p5684
aVwouldv
p5685
aVwho'd
p5686
aVwont
p5687
aVwe'll
p5688
aVdid
p5689
aVisnt
p5690
aVshe
p5691
aVhavent
p5692
aVwhere
p5693
aVmustn't
p5694
aVisn't
p5695
aVit'll
p5696
aVi'll
p5697
aVcouldn't
p5698
aVshe'
p5699
aVyou'r
p5700
aVare
p5701
aVyou'v
p5702
aVmightv
p5703
aVshan't
p5704
aVmustv
p5705
aVshould'v
p5706
aVthat'
p5707
aVshouldn't
p5708
aVthey'll
p5709
aVought'nt
p5710
aVyoull
p5711
aVcan
p5712
aVbe
p5713
aVwa
p5714
aVshouldv
p5715
aVhere
p5716
aVshould'nt
p5717
aVlet
p5718
aVhadn't
p5719
aVaren't
p5720
aVi'v
p5721
aVwouldnt
p5722
aVthatd
p5723
aVcould
p5724
aVi'd
p5725
aVarent
p5726
aVi'm
p5727
aVhere'
p5728
aVcouldv
p5729
aVcan't
p5730
aVoughtv
p5731
aVthere'
p5732
aVdont
p5733
aVyoud
p5734
aVdoesnt
p5735
aVdone
p5736
aVmight'v
p5737
aVoughta
p5738
aVtheyd
p5739
aVyouv
p5740
aVcouldnt
p5741
aVtheyr
p5742
aVyour
p5743
aVyou'd
p5744
aVdoesn't
p5745
aVbecom
p5746
aVwould
p5747
aVthere
p5748
aVbeen
p5749
aVhed
p5750
aVwhod
p5751
aVwhere'
p5752
aVit'd
p5753
aVthat
p5754
aVam
p5755
aVwhat'
p5756
aVain't
p5757
aVmust'nt
p5758
aVhadnt
p5759
aVshant
p5760
aVha
p5761
aVmust
p5762
aVwholl
p5763
aVwasn't
p5764
aVgotta
p5765
aVhasn't
p5766
aVoughtnt
p5767
aVwill
p5768
aVhe'
p5769
aVhaven't
p5770
aVwere
p5771
aVdidnt
p5772
aVwouldn't
p5773
aVwe'd
p5774
aVive
p5775
aVthatll
p5776
aVwasnt
p5777
aVis
p5778
aVdidn't
p5779
aVmustnt
p5780
aVcant
p5781
aVweve
p5782
aVim
p5783
aVhave
p5784
aVid
p5785
aVhasnt
p5786
aVtheyll
p5787
aVweren't
p5788
aVshouldnt
p5789
aVshall
p5790
aVmay
p5791
aVwhat
p5792
aVwould'v
p5793
aVthat'd
p5794
aVwe'v
p5795
aVshe'd
p5796
aVdoe
p5797
aVyou'll
p5798
aVought'v
p5799
aVwho'll
p5800
atp5801
Rp5802
sS'INGESTION'
p5803
g2
((lp5804
Vhungr
p5805
aVhelp
p5806
aVhunger
p5807
aVover
p5808
aVdish
p5809
aVmilk
p5810
aVdigest
p5811
aVsnack
p5812
aVsugar
p5813
aVgulp
p5814
aVfood
p5815
aVdessert
p5816
aVfat
p5817
aVlunch
p5818
aVanorexi
p5819
aVfatt
p5820
aVcook
p5821
aVbread
p5822
aVbar
p5823
aVchow
p5824
aVmeal
p5825
aVcandi
p5826
aVchew
p5827
aVweight
p5828
aVtea
p5829
aVliquor
p5830
aVovereat
p5831
aVbake
p5832
aValcohol
p5833
aVespresso
p5834
aVthirst
p5835
aVgrocer
p5836
aVstuf
p5837
aVsmok
p5838
aVcigar
p5839
aVrestau
p5840
aVwater
p5841
aVdiet
p5842
aVpasta
p5843
aVkitchen
p5844
aVate
p5845
aVdiner
p5846
aVobe
p5847
aVingest
p5848
aVcaf
p5849
aVdinner
p5850
aVsoda
p5851
aVswallow
p5852
aVveggi
p5853
aVfeed
p5854
aVdine
p5855
aVappeti
p5856
aVdrunk
p5857
aVfeeder
p5858
aVfed
p5859
aVfri
p5860
aVbeer
p5861
aVdrank
p5862
aVboil
p5863
aVcoke
p5864
aVwhiski
p5865
aVbrunch
p5866
aVeat
p5867
aVserv
p5868
aVsalad
p5869
aVveget
p5870
aVwhiskey
p5871
aVstarv
p5872
aVskinni
p5873
aVbreakfast
p5874
aVbooz
p5875
aVpizza
p5876
aVsandwich
p5877
aVcocktail
p5878
aVdrink
p5879
aVoverweight
p5880
aVcoffe
p5881
aVfruit
p5882
aVeaten
p5883
aVsupper
p5884
aVgobbl
p5885
aVbulimi
p5886
aVwaist
p5887
aVegg
p5888
aVbing
p5889
aVglutton
p5890
aVweigh
p5891
aVtast
p5892
aVwine
p5893
atp5894
Rp5895
sS'NUMBERS'
p5896
g2
((lp5897
Vseven
p5898
aVtrillion
p5899
aVtwel
p5900
aVten
p5901
aVonc
p5902
aVone
p5903
aVfour
p5904
aVsecond
p5905
aVfift
p5906
aVtenth
p5907
aVdozen
p5908
aVinfinit
p5909
aVsix
p5910
aVthree
p5911
aVeleven
p5912
aVzillion
p5913
aVthousand
p5914
aVhundr
p5915
aVmillion
p5916
aVeight
p5917
aVtwo
p5918
aVhalf
p5919
aVbillion
p5920
aVthird
p5921
aVfirstli
p5922
aVzero
p5923
aVtwice
p5924
aVnine
p5925
aVthirt
p5926
aVtwent
p5927
aVfive
p5928
aVquarter
p5929
aVfirst
p5930
atp5931
Rp5932
sS'MONEY'
p5933
g2
((lp5934
Vrefund
p5935
aVshop
p5936
aVfranchi
p5937
aVrecess
p5938
aVyen
p5939
aVkron
p5940
aVmoney
p5941
aVconsum
p5942
aVcheap
p5943
aVtrade
p5944
aVportfolio
p5945
aVwage
p5946
aVowe
p5947
aVbusi
p5948
aVpenc
p5949
aVmonopol
p5950
aVrich
p5951
aVchequ
p5952
aVlira
p5953
aVpurcha
p5954
aVworth
p5955
aVmerchant
p5956
aVjackpot
p5957
aVshopahol
p5958
aVdollar
p5959
aVfinanc
p5960
aVdonat
p5961
aVbank
p5962
aVtaxa
p5963
aVborrow
p5964
aVbonu
p5965
aVmastercard
p5966
aVstock
p5967
aVcompensat
p5968
aVfortun
p5969
aVexpen
p5970
aVcash
p5971
aVinexpen
p5972
aVcost
p5973
aVlotter
p5974
aVshill
p5975
aVunderpaid
p5976
aVbeg
p5977
aVprofit
p5978
aVrupe
p5979
aVseller
p5980
aVleas
p5981
aVdebit
p5982
aVfreeb
p5983
aVbought
p5984
aVfranc
p5985
aVpoverti
p5986
aVdinero
p5987
aVsold
p5988
aVbroker
p5989
aVfree
p5990
aVcharit
p5991
aVdiscount
p5992
aVstipend
p5993
aVdividend
p5994
aVdebt
p5995
aVvalu
p5996
aVthrift
p5997
aVembezzl
p5998
aVbuck
p5999
aVauction
p6000
aVatm
p6001
aVcredit
p6002
aVretail
p6003
aVcoupon
p6004
aVexchang
p6005
aVloan
p6006
aVwager
p6007
aVfee
p6008
aVwealth
p6009
aVcent
p6010
aVcustom
p6011
aVrevenu
p6012
aVcorporat
p6013
aVstore
p6014
aVoverpaid
p6015
aVbuy
p6016
aVnickel
p6017
aVrubl
p6018
aVecon
p6019
aVfund
p6020
aVgambl
p6021
aVyuan
p6022
aVaccount
p6023
aVsave
p6024
aVbill
p6025
aVbargain
p6026
aVpeso
p6027
aVsalar
p6028
aVovertim
p6029
aVbudget
p6030
aVshopp
p6031
aVbet
p6032
aVcasino
p6033
aVbeggar
p6034
aVir
p6035
aVtax
p6036
aVspent
p6037
aVspender
p6038
aVrent
p6039
aVincom
p6040
aVpenni
p6041
aVmortg
p6042
aVcheck
p6043
aVsell
p6044
aVpay
p6045
aVreimbur
p6046
aVtuition
p6047
aVauditor
p6048
aVpoor
p6049
aVrebat
p6050
aVinsur
p6051
aVprici
p6052
aVdime
p6053
aVprice
p6054
aVpaid
p6055
aVkopek
p6056
aVvisa
p6057
aVcoin
p6058
aVeuro
p6059
aVaudit
p6060
aVinvest
p6061
aVcurrenc
p6062
aVsale
p6063
aVinherit
p6064
aVdinar
p6065
aVdeposit
p6066
aVspend
p6067
aVgreed
p6068
aVscholarship
p6069
atp6070
Rp6071
sS'NON-FLUENCIES'
p6072
g2
((lp6073
Vsigh
p6074
aVwell
p6075
aVum
p6076
aVuh
p6077
aVzz
p6078
aVhm
p6079
aVumm
p6080
aVer
p6081
atp6082
Rp6083
sS'SWEAR WORDS'
p6084
g2
((lp6085
Vars
p6086
aVqueer
p6087
aVfuck
p6088
aVhomo
p6089
aVdumb
p6090
aVbitch
p6091
aVpussi
p6092
aVfucker
p6093
aVhell
p6094
aVbutt'
p6095
aVdyke
p6096
aVshit
p6097
aVbloodi
p6098
aVscrew
p6099
aVbastard
p6100
aVcrap
p6101
aVgoddam
p6102
aVtit
p6103
aVdick
p6104
aVwanker
p6105
aVnigger
p6106
aVtitti
p6107
aVdamn
p6108
aVboob
p6109
aVpiss
p6110
aVass
p6111
aVsob
p6112
aVprick
p6113
aVarsehol
p6114
aVsonofa
p6115
aVasshol
p6116
aVdarn
p6117
aVbutt
p6118
aVsuck
p6119
aVcunt
p6120
aVcrappi
p6121
aVjeez
p6122
aVmofo
p6123
aVmotherf
p6124
aVheck
p6125
aVdang
p6126
aVcock
p6127
aVfuckin
p6128
atp6129
Rp6130
sS'FEELING'
p6131
g2
((lp6132
Vedg
p6133
aVweight
p6134
aVfeel
p6135
aVscratch
p6136
aVlimp
p6137
aVhard
p6138
aVsandi
p6139
aVhair
p6140
aVstroke
p6141
aVcaress
p6142
aVbrush
p6143
aVskin
p6144
aVtouch
p6145
aVsharp
p6146
aVcold
p6147
aVrough
p6148
aVstroki
p6149
aVfroze
p6150
aVfreez
p6151
aVhott
p6152
aVtight
p6153
aVthick
p6154
aVrub
p6155
aVhot
p6156
aVfuzz
p6157
aVfinger
p6158
aVweightless
p6159
aVgripp
p6160
aVwetli
p6161
aVgrip
p6162
aVfragil
p6163
aVskin'
p6164
aVfire
p6165
aVfelt
p6166
aVhand
p6167
aVthinn
p6168
aVwarm
p6169
aVsqueez
p6170
aVflexib
p6171
aVpress
p6172
aVsilk
p6173
aVweightlift
p6174
aVcool
p6175
aVheavi
p6176
aVpresser
p6177
aVleather
p6178
aVwet
p6179
aVsmooth
p6180
aVround
p6181
aVdri
p6182
aVsand
p6183
aVdrili
p6184
aVthin
p6185
aVdrie
p6186
aVgrab
p6187
aVsoft
p6188
aVloos
p6189
atp6190
Rp6191
sS'RELIGION'
p6192
g2
((lp6193
Vamish
p6194
aVcrusad
p6195
aVpope
p6196
aVrabbi
p6197
aVzen
p6198
aVpenanc
p6199
aVprotest
p6200
aVjihad
p6201
aVbaptiz
p6202
aVhell
p6203
aVworship
p6204
aVislam
p6205
aVbiblic
p6206
aVshiit
p6207
aValla
p6208
aVpray
p6209
aVmohamm
p6210
aVbuddh
p6211
aVprai
p6212
aVlord
p6213
aVpresbyterian
p6214
aVzion
p6215
aVminist
p6216
aVorthodox
p6217
aVmormon
p6218
aVevangel
p6219
aVramadan
p6220
aVsunni
p6221
aVgod'
p6222
aVchapel
p6223
aVkrishna
p6224
aVheaven
p6225
aVmujahid
p6226
aVroshashan
p6227
aVsin
p6228
aVbless
p6229
aVkrisna
p6230
aVkippur
p6231
aVgospel
p6232
aVpreach
p6233
aVallah
p6234
aVsabbath
p6235
aVnun
p6236
aVimmor
p6237
aVyiddish
p6238
aVbibl
p6239
aVhymn
p6240
aVchrist
p6241
aVgod
p6242
aVconfess
p6243
aVpew
p6244
aVproph
p6245
aVpriest
p6246
aVministr
p6247
aVrite
p6248
aVtorah
p6249
aVlutheran
p6250
aVchristian
p6251
aVbelief
p6252
aVmissionar
p6253
aVamen
p6254
aVquran
p6255
aVimmort
p6256
aVtempl
p6257
aVsacrif
p6258
aVqur'an
p6259
aVpagan
p6260
aVjew
p6261
aVfaith
p6262
aVsacr
p6263
aVritual
p6264
aVmonk
p6265
aVkosher
p6266
aVrosari
p6267
aVpieti
p6268
aVtestament
p6269
aVmosqu
p6270
aVpuritan
p6271
aVtheolog
p6272
aVmoral
p6273
aVchurch
p6274
aVparadis
p6275
aVdevil
p6276
aVchristma
p6277
aVconvent
p6278
aVhindu
p6279
aVsinn
p6280
aVpentecost
p6281
aVhellish
p6282
aVsaint
p6283
aVsatan
p6284
aVmercif
p6285
aVjesuit
p6286
aVgentil
p6287
aVpurgat
p6288
aVjewish
p6289
aValtar
p6290
aVrabbin
p6291
aVpastor
p6292
aVfundamentali
p6293
aVholi
p6294
aVdoom
p6295
aVspirit
p6296
aVchaplain
p6297
aVafterlif
p6298
aVpilgrim
p6299
aVclergi
p6300
aVjuda
p6301
aVsoul
p6302
aVmerci
p6303
aVpsalm
p6304
aVvatican
p6305
aVscriptur
p6306
aVbapti
p6307
aVangel
p6308
aVdemon
p6309
aVmusi
p6310
aVsectarian
p6311
aVcrucifi
p6312
aVjesu
p6313
aVepiscop
p6314
aVbishop
p6315
aVseminar
p6316
aVsalvat
p6317
aVdivin
p6318
aVsikh
p6319
aVpassov
p6320
aVshrine
p6321
aVmethodi
p6322
aVmonast
p6323
aVagnost
p6324
aVsect
p6325
aVmecca
p6326
aVshi'
p6327
aVreligio
p6328
aVveil
p6329
aVmuhamm
p6330
aVmitzvah
p6331
aVcathol
p6332
aVmeditat
p6333
aVkoran
p6334
aVkarma
p6335
aVpiou
p6336
atp6337
Rp6338
sS'FILLERS'
p6339
g2
((lp6340
Vrr
p6341
aVorwhatev
p6342
aVoranyth
p6343
aVimean
p6344
aVykn
p6345
aVohwel
p6346
aVblah
p6347
aVyakn
p6348
aVorsometh
p6349
aVidontknow
p6350
aVyouknow
p6351
atp6352
Rp6353
sS'ARTICLES'
p6354
g2
((lp6355
g4771
aVthe
p6356
aVhit
p6357
aValot
p6358
aVan
p6359
atp6360
Rp6361
sS'TOTAL 2ND'
p6362
g2
((lp6363
Vy'all
p6364
aVyou'r
p6365
aVyou'd
p6366
aVthou
p6367
aVyou'v
p6368
aVthee
p6369
aVyoud
p6370
aVye
p6371
aVya
p6372
aVyou'll
p6373
aVthine
p6374
aVthi
p6375
aVthoust
p6376
aVyouv
p6377
aVyou
p6378
aVyoull
p6379
aVyour
p6380
aVyall
p6381
atp6382
Rp6383
sS'FUTURE TENSE'
p6384
g2
((lp6385
Vi'll
p6386
aVoughtv
p6387
aVshe'll
p6388
aVthatll
p6389
aVwouldv
p6390
aVmustnt
p6391
aVmust'v
p6392
aVwon't
p6393
aVoughta
p6394
aVwho'll
p6395
aVwouldn't
p6396
aVmustv
p6397
aVwould'v
p6398
aVtheyll
p6399
aVwould
p6400
aVshould'v
p6401
aVitll
p6402
aVshould
p6403
aVshouldn't
p6404
aVthey'll
p6405
aVought'nt
p6406
aVmight
p6407
aVought
p6408
aVshouldnt
p6409
aVshall
p6410
aVmay
p6411
aVshouldv
p6412
aVgonna
p6413
aVoughtn't
p6414
aVshould'nt
p6415
aVmust'nt
p6416
aVthat'll
p6417
aVcould'v
p6418
aVhe'll
p6419
aVmust
p6420
aVwont
p6421
aVwe'll
p6422
aVwouldnt
p6423
aVyoull
p6424
aVgotta
p6425
aVoughtnt
p6426
aVmustn't
p6427
aVwill
p6428
aVyou'll
p6429
aVought'v
p6430
aVwholl
p6431
aVcouldv
p6432
aVit'll
p6433
atp6434
Rp6435
sS'AFFECTIVE PROCESSES'
p6436
g2
((lp6437
Vliar
p6438
aVconsider
p6439
aVvile
p6440
aVunea
p6441
aVmessi
p6442
aVhatr
p6443
aVprotest
p6444
aVgossip
p6445
aVhate
p6446
aVsecur
p6447
aVopport
p6448
aVtehe
p6449
aVsorri
p6450
aVugl
p6451
aVwhore
p6452
aVdaze
p6453
aVterror
p6454
aVfatal
p6455
aVagreeab
p6456
aVrisk
p6457
aVjerk
p6458
aVappal
p6459
aVphobi
p6460
aVbrillian
p6461
aVenviou
p6462
aVdisast
p6463
aVsuspicio
p6464
aVfab
p6465
aVaffect
p6466
aVstrang
p6467
aVcool
p6468
aVdisturb
p6469
aVheaven
p6470
aVprize
p6471
aVtear
p6472
aVparanoi
p6473
aVthreat
p6474
aVdesperat
p6475
aVtrite
p6476
aVtriumph
p6477
aVenjoy
p6478
aVopen
p6479
aVbrave
p6480
aVregret
p6481
aVsigh
p6482
aVvalu
p6483
aVhorr
p6484
aVunprotect
p6485
aVhelpless
p6486
aVcasual
p6487
aVexcit
p6488
aVrapist
p6489
aVskeptic
p6490
aVbeaten
p6491
aVfavour
p6492
aVpoison
p6493
aVcrush
p6494
aVrotten
p6495
aVpessimi
p6496
aVsweetli
p6497
aVmasochi
p6498
aVhazi
p6499
aVapprehen
p6500
aVturmoil
p6501
aVhero
p6502
aVtoleran
p6503
aVhonour
p6504
aVcharit
p6505
aVentertain
p6506
aVwitch
p6507
aVpleasur
p6508
aVrespect
p6509
aVmiser
p6510
aVdork
p6511
aVpleasant
p6512
aVgreat
p6513
aVtalent
p6514
aVpretti
p6515
aVwhine
p6516
aVbrutal
p6517
aVanxi
p6518
aVcredit
p6519
aVharass
p6520
aVdefeat
p6521
aVantagoni
p6522
aVweird
p6523
aVhonor
p6524
aVrebel
p6525
aVlove
p6526
aVhumour
p6527
aVdanger
p6528
aVforbid
p6529
aVwin
p6530
aVemot
p6531
aVstink
p6532
aVfake
p6533
aVdisillus
p6534
aVmooch
p6535
aVaggress
p6536
aVuse
p6537
aVcrap
p6538
aVadvantag
p6539
aVhomesick
p6540
aVflunk
p6541
aVcraz
p6542
aVinsult
p6543
aVvigour
p6544
aVdoubt
p6545
aVcalm
p6546
aVrevigor
p6547
aVvultur
p6548
aVgriev
p6549
aVdismay
p6550
aVclever
p6551
aVrich
p6552
aVconfu
p6553
aVrelax
p6554
aVgladli
p6555
aVhaha
p6556
aVprejud
p6557
aVaward
p6558
aVhurt
p6559
aVgrief
p6560
aVchuckl
p6561
aVwarm
p6562
aVrigid
p6563
aVheartless
p6564
aVbroke
p6565
aVdoom
p6566
aVglad
p6567
aVvirtuo
p6568
aVannoy
p6569
aVpride
p6570
aVvaluabl
p6571
aVshame
p6572
aVbattl
p6573
aVvillain
p6574
aVmagnif
p6575
aVstrain
p6576
aVworr
p6577
aVwors
p6578
aVinferior
p6579
aVsucki
p6580
aVtragic
p6581
aVabandon
p6582
aVblam
p6583
aVshook
p6584
aVstubborn
p6585
aVfabul
p6586
aVgive
p6587
aVchalleng
p6588
aVshare
p6589
aVfuck
p6590
aVaccept
p6591
aVunlov
p6592
aVcritic
p6593
aVstruggl
p6594
aVattract
p6595
aVdefen
p6596
aVcontempt
p6597
aVwoe
p6598
aVhugg
p6599
aVawkward
p6600
aVarrogan
p6601
aVcomfort
p6602
aVdivin
p6603
aVimportan
p6604
aVvital
p6605
aVrape
p6606
aVreject
p6607
aVmoron
p6608
aVdisappoint
p6609
aVsociab
p6610
aVpanic
p6611
aVsin
p6612
aVconfid
p6613
aVsuffer
p6614
aVtension
p6615
aVokay
p6616
aVstartl
p6617
aVrude
p6618
aVmess
p6619
aVaok
p6620
aVsceptic
p6621
aVpressur
p6622
aVdiscomfort
p6623
aVmad
p6624
aVnumb
p6625
aVsuck
p6626
aVresent
p6627
aVremors
p6628
aVharmon
p6629
aVirrita
p6630
aVstress
p6631
aVimpatien
p6632
aVseriou
p6633
aVlame
p6634
aVscare
p6635
aVungrat
p6636
aVwinn
p6637
aVdread
p6638
aVoffend
p6639
aVmourn
p6640
aVgreed
p6641
aVirrat
p6642
aVcute
p6643
aVhelp
p6644
aVheartfelt
p6645
aVcuti
p6646
aVscrumptiou
p6647
aVyearn
p6648
aVprivileg
p6649
aVhumiliat
p6650
aVpromi
p6651
aVhell
p6652
aVshaki
p6653
aVworship
p6654
aVdynam
p6655
aVperfect
p6656
aVsuperior
p6657
aVgentl
p6658
aVthank
p6659
aVdecay
p6660
aVhoho
p6661
aVbetter
p6662
aVharmless
p6663
aVprai
p6664
aVdelici
p6665
aVstrength
p6666
aVfool
p6667
aVgood
p6668
aVsucker
p6669
aVembarrass
p6670
aVsafe
p6671
aVfiesta
p6672
aVneedi
p6673
aVviciou
p6674
aVbeaut
p6675
aVagoni
p6676
aVadventur
p6677
aVcomplain
p6678
aVgloom
p6679
aVthrill
p6680
aVreek
p6681
aVunwelcom
p6682
aVbonu
p6683
aVbless
p6684
aVeasili
p6685
aVcareless
p6686
aVradian
p6687
aVtruth
p6688
aVaversi
p6689
aVfreeness
p6690
aVcourag
p6691
aVluck
p6692
aVharm
p6693
aVshock
p6694
aVrestless
p6695
aVwrong
p6696
aVterrifi
p6697
aVspecial
p6698
aVdepress
p6699
aVagitat
p6700
aVsentiment
p6701
aVprofit
p6702
aVisolat
p6703
aVfondli
p6704
aVdefenc
p6705
aVrepress
p6706
aVcontent
p6707
aVtrauma
p6708
aVecsta
p6709
aVwick
p6710
aVstun
p6711
aVobsess
p6712
aVromanc
p6713
aVunfriendli
p6714
aVgorgeou
p6715
aVpuk
p6716
aVpleas
p6717
aVargu
p6718
aVfree
p6719
aVargh
p6720
aVpainf
p6721
aVevil
p6722
aVromant
p6723
aVapath
p6724
aVbash
p6725
aVcare
p6726
aVbenefitt
p6727
aVsunshin
p6728
aVmiss
p6729
aVmaniac
p6730
aVcritici
p6731
aVhonest
p6732
aVflawless
p6733
aVhopeless
p6734
aVangr
p6735
aVinadequa
p6736
aVneglect
p6737
aVfuckin
p6738
aVorigin
p6739
aVinvigor
p6740
aVaggravat
p6741
aVwill
p6742
aVfatigu
p6743
aVbitch
p6744
aVagre
p6745
aVfantast
p6746
aVweep
p6747
aVlong
p6748
aVunimport
p6749
aVfieri
p6750
aVpainl
p6751
aVtrembl
p6752
aVattach
p6753
aVattack
p6754
aVsadli
p6755
aVtea
p6756
aVdwell
p6757
aVexcruciat
p6758
aVbitter
p6759
aVhilari
p6760
aVfriend
p6761
aVhug
p6762
aVpunish
p6763
aVlou
p6764
aVasshol
p6765
aVwisdom
p6766
aVgraci
p6767
aVsubmiss
p6768
aVgrace
p6769
aVreliev
p6770
aVkind
p6771
aVsilli
p6772
aVlmao
p6773
aVbother
p6774
aVsatisf
p6775
aVinnocen
p6776
aVasham
p6777
aVguilt
p6778
aVgiver
p6779
aVlover
p6780
aVdelic
p6781
aVwarfar
p6782
aVterribl
p6783
aVlaidback
p6784
aVreassur
p6785
aVdefect
p6786
aVsad
p6787
aVtender
p6788
aVmurder
p6789
aVanger
p6790
aVgentli
p6791
aVlie
p6792
aVbastard
p6793
aVafraid
p6794
aVterrif
p6795
aVviolat
p6796
aVideal
p6797
aVuseless
p6798
aVsnob
p6799
aVdestroy
p6800
aVhappi
p6801
aVplay
p6802
aVsure
p6803
aVpain
p6804
aVunsur
p6805
aVunsuccess
p6806
aVassault
p6807
aVcharm
p6808
aVabus
p6809
aVsoulmat
p6810
aVgrave
p6811
aVegoti
p6812
aVdeligh
p6813
aVlikeab
p6814
aVsurpri
p6815
aVpathet
p6816
aVobnoxi
p6817
aVunpleas
p6818
aValarm
p6819
aVproud
p6820
aVupset
p6821
aVdigni
p6822
aVrancid
p6823
aVsolemn
p6824
aVmelanchol
p6825
aVdetermin
p6826
aVferoc
p6827
aVoffenc
p6828
aVscream
p6829
aVawesom
p6830
aVugh
p6831
aVridicul
p6832
aVimpolit
p6833
aVcheat
p6834
aVfond
p6835
aVpiss
p6836
aVmerit
p6837
aVefficien
p6838
aVbright
p6839
aVhesita
p6840
aVfear
p6841
aVfine
p6842
aVoffen
p6843
aVunkind
p6844
aVineffect
p6845
aVruin
p6846
aVactiv
p6847
aVpeculiar
p6848
aVenvi
p6849
aVjoll
p6850
aVdisgust
p6851
aVhope
p6852
aVvigor
p6853
aVgenero
p6854
aVpalatabl
p6855
aVagoniz
p6856
aVdisagre
p6857
aVimperson
p6858
aVgeek
p6859
aVtens
p6860
aVgiggl
p6861
aVwimp
p6862
aVcompass
p6863
aVsmug
p6864
aVsunni
p6865
aVlucki
p6866
aVtruli
p6867
aVdishearten
p6868
aVhostil
p6869
aVenemi
p6870
aVbad
p6871
aVstupid
p6872
aVunsavo
p6873
aVpreciou
p6874
aVshi
p6875
aVcri
p6876
aVsteal
p6877
aVstammer
p6878
aVtruer
p6879
aVdump
p6880
aVoverwhelm
p6881
aVjade
p6882
aVshake
p6883
aVimmor
p6884
aVdumb
p6885
aVtroubl
p6886
aVfail
p6887
aVdisadvantag
p6888
aVmistak
p6889
aVbest
p6890
aVconcern
p6891
aVsarca
p6892
aVwow
p6893
aVdissatisf
p6894
aVdevastat
p6895
aVfavor
p6896
aVwon
p6897
aVdespi
p6898
aVjoy
p6899
aVcrude
p6900
aVdistraught
p6901
aVcompliment
p6902
aVkindli
p6903
aVfearless
p6904
aVsorrow
p6905
aVweak
p6906
aVdislik
p6907
aVlazi
p6908
aVsucceed
p6909
aVvulnerab
p6910
aVflexib
p6911
aVnervou
p6912
aVcome
p6913
aVheartwarm
p6914
aVuncomfortabl
p6915
aVfault
p6916
aValon
p6917
aVtrage
p6918
aVpiti
p6919
aVtrivi
p6920
aVbenef
p6921
aVadmir
p6922
aVfreeli
p6923
aVsunnier
p6924
aVinsinc
p6925
aVcynic
p6926
aVassur
p6927
aVtough
p6928
aVdistress
p6929
aVcontrad
p6930
aVsweet
p6931
aVvain
p6932
aVinspir
p6933
aVsicken
p6934
aVsmother
p6935
aVnurtur
p6936
aVrofl
p6937
aVluckless
p6938
aVlaugh
p6939
aVdarlin
p6940
aVfreak
p6941
aVscari
p6942
aVdamag
p6943
aVworthless
p6944
aVforgiv
p6945
aVyay
p6946
aVcreat
p6947
aVcreati
p6948
aVtortur
p6949
aVpetti
p6950
aVdamn
p6951
aVtreat
p6952
aVinterest
p6953
aVbenevolen
p6954
aVsweetheart
p6955
aVtreasur
p6956
aVfire
p6957
aVlivel
p6958
aVtantrum
p6959
aVador
p6960
aVfunn
p6961
aVcunt
p6962
aVcrappi
p6963
aVsave
p6964
aVuncertain
p6965
aVcarefre
p6966
aVliabilit
p6967
aVtrick
p6968
aVneat
p6969
aVunhapp
p6970
aVheartbrok
p6971
aVfun
p6972
aVfuriou
p6973
aVengag
p6974
aVhelper
p6975
aVreadi
p6976
aVconvinc
p6977
aVneurot
p6978
aVtruest
p6979
aVfrantic
p6980
aVvirtu
p6981
aVoutrag
p6982
aVanguish
p6983
aVsever
p6984
aVwelcom
p6985
aVmadli
p6986
aVparti
p6987
aVabusi
p6988
aVbenign
p6989
aVheartbreak
p6990
aVgrand
p6991
aVsuccess
p6992
aVdifficult
p6993
aVexhaust
p6994
aVsweeti
p6995
aVsadd
p6996
aVscrew
p6997
aVoptim
p6998
aVfucker
p6999
aVinhib
p7000
aVimprov
p7001
aVvaniti
p7002
aVtimid
p7003
aVkid
p7004
aVhandsom
p7005
aVgrinn
p7006
aVdiscourag
p7007
aVweapon
p7008
aVwell
p7009
aVthought
p7010
aVperson
p7011
aVcheer
p7012
aVrelief
p7013
aVreward
p7014
aVthankf
p7015
aVkiss
p7016
aVfume
p7017
aVunattract
p7018
aVviolent
p7019
aVkill
p7020
aVvictim
p7021
aVkeen
p7022
aVparadis
p7023
aVgentlest
p7024
aVdepriv
p7025
aVcut
p7026
aVdelectabl
p7027
aVeasi
p7028
aVsinist
p7029
aVeager
p7030
aVgrin
p7031
aVjoke
p7032
aVsmart
p7033
aVhater
p7034
aVstunk
p7035
aVmoodi
p7036
aVmocker
p7037
aVburden
p7038
aVopenmind
p7039
aVtrueness
p7040
aVtick
p7041
aVamu
p7042
aVgrim
p7043
aVdare
p7044
aVlike
p7045
aVloss
p7046
aVenerg
p7047
aVintel
p7048
aVlost
p7049
aVconfront
p7050
aVwonderf
p7051
aVresolv
p7052
aVloser
p7053
aVpetrif
p7054
aVbenefit
p7055
aVglamor
p7056
aVlose
p7057
aVpopular
p7058
aVamor
p7059
aVincent
p7060
aVflatter
p7061
aVthief
p7062
aVempt
p7063
aVadver
p7064
aVenthu
p7065
aVdear
p7066
aVprick
p7067
aVbore
p7068
aVthiev
p7069
aVelegan
p7070
aVtrust
p7071
aVhumor
p7072
aVmood
p7073
aVfreer
p7074
aVavoid
p7075
aVdefinit
p7076
aVdistrust
p7077
aVunimpress
p7078
aVfoe
p7079
aVoutgo
p7080
aVpassion
p7081
aVimpress
p7082
aVfreeb
p7083
aVworst
p7084
aVfreed
p7085
aVencourag
p7086
aVbold
p7087
aVoptimi
p7088
aVinsecur
p7089
aVagreement
p7090
aVslut
p7091
aVuptight
p7092
aVdevil
p7093
aVstutter
p7094
aVperver
p7095
aVsunniest
p7096
aVsuper
p7097
aVwealth
p7098
aVwept
p7099
aVfaith
p7100
aVjealou
p7101
aVok
p7102
aVach
p7103
aVunfortun
p7104
aVgentler
p7105
aVfestiv
p7106
aVdespair
p7107
aVlibert
p7108
aVcherish
p7109
aVcommit
p7110
aVstank
p7111
aVaccepta
p7112
aVworthwhil
p7113
aVsob
p7114
aVmerr
p7115
aVdetermina
p7116
aVsavag
p7117
aVchamp
p7118
aVforgav
p7119
aVstench
p7120
aVfrustrat
p7121
aVmolest
p7122
aVsupport
p7123
aVlone
p7124
aVmadden
p7125
aVlol
p7126
aVfight
p7127
aVmadder
p7128
aVfought
p7129
aVlow
p7130
aVstrong
p7131
aVgratef
p7132
aVhellish
p7133
aVamaz
p7134
aVheh
p7135
aVwar
p7136
aVreveng
p7137
aVglamour
p7138
aVmaddest
p7139
aVgrati
p7140
aVuncontrol
p7141
aVeas
p7142
aVha
p7143
aVtrue
p7144
aVdull
p7145
aVludicr
p7146
aVwise
p7147
aVrage
p7148
aVpositiv
p7149
aVdistract
p7150
aVflirt
p7151
aVsmil
p7152
aVcruel
p7153
aVbelov
p7154
aVglori
p7155
aVgrouch
p7156
aVproblem
p7157
aVtemper
p7158
aVinterrup
p7159
aVdomina
p7160
aVfright
p7161
aVsplend
p7162
aVcertain
p7163
aVindeci
p7164
aVhurra
p7165
aVdestruct
p7166
aVaw
p7167
aVfuri
p7168
aVtranquil
p7169
aVspite
p7170
aVnerd
p7171
aVshit
p7172
aVselfish
p7173
aVgrr
p7174
aVnag
p7175
aVgoddam
p7176
aVidiot
p7177
aVexcel
p7178
aVmock
p7179
aVnice
p7180
aVgross
p7181
aVappreciat
p7182
aVdevot
p7183
aVresign
p7184
aVserious
p7185
aVkindn
p7186
aVpeac
p7187
aVintimidat
p7188
aVsuprem
p7189
aVnast
p7190
aVfeud
p7191
aVenrag
p7192
aVloyal
p7193
aVignor
p7194
aValright
p7195
aVreluctan
p7196
aVdegrad
p7197
aVsincer
p7198
atp7199
Rp7200
sS'WORK'
p7201
g2
((lp7202
Vsector
p7203
aVfranchi
p7204
aVcommerc
p7205
aVfeedback
p7206
aVexecut
p7207
aVmfg
p7208
aVrhetor
p7209
aVexcel
p7210
aVlaptop
p7211
aVconsum
p7212
aVconferenc
p7213
aVdelegat
p7214
aVgraduat
p7215
aVdotcom
p7216
aVcurricul
p7217
aVpsych
p7218
aVpublish
p7219
aVphotocop
p7220
aVkeyboard
p7221
aVsemest
p7222
aVvita
p7223
aVresearch
p7224
aVambiti
p7225
aVcoun
p7226
aVwage
p7227
aVmcat
p7228
aVsalar
p7229
aVpledg
p7230
aVmerger
p7231
aVburnout
p7232
aVngo
p7233
aVprom
p7234
aVmailroom
p7235
aVlabor
p7236
aVgrade
p7237
aVoffic
p7238
aVbusi
p7239
aVpolici
p7240
aVgre
p7241
aVgovern
p7242
aVmgmt
p7243
aVhomework
p7244
aVapplic
p7245
aVfax
p7246
aVnegotiat
p7247
aVeducat
p7248
aVceo
p7249
aVfinanc
p7250
aVschool
p7251
aVhardwork
p7252
aVmgr
p7253
aVsyllabu
p7254
aVbiz
p7255
aVlibrar
p7256
aVdesk
p7257
aVreport
p7258
aVstudi
p7259
aVconglom
p7260
aVtrade
p7261
aVrequir
p7262
aVearn
p7263
aVgov
p7264
aVscholar
p7265
aVsuccess
p7266
aVedit
p7267
aVundergrad
p7268
aVcolleagu
p7269
aVmfr
p7270
aVachiev
p7271
aVpaper
p7272
aVchairm
p7273
aVteam
p7274
aVuniversit
p7275
aVstock
p7276
aVgrad
p7277
aVmanag
p7278
aVdiplom
p7279
aVcertif
p7280
aVexpuls
p7281
aVdean
p7282
aVexpel
p7283
aVstaff
p7284
aVinventori
p7285
aVscien
p7286
aVmda
p7287
aVrecruit
p7288
aVsickday
p7289
aVbiolog
p7290
aVtaught
p7291
aVdeadlin
p7292
aVlawyer
p7293
aVsupervi
p7294
aVfail
p7295
aVlabour
p7296
aVfreshm
p7297
aVquiz
p7298
aVemploy
p7299
aVaccomplish
p7300
aVlearn
p7301
aVlead
p7302
aVassociat
p7303
aVprofit
p7304
aVsickleav
p7305
aVreview
p7306
aVbeaten
p7307
aVbenefit
p7308
aVlegal
p7309
aVregistra
p7310
aVpen
p7311
aVbureau
p7312
aVprof
p7313
aVtransfer
p7314
aVesl
p7315
aVfactori
p7316
aVmath
p7317
aVqualifi
p7318
aVexam
p7319
aVgmat
p7320
aVunderpaid
p7321
aVbroker
p7322
aVindustr
p7323
aVbldg
p7324
aVjob
p7325
aVsucceed
p7326
aVcorp
p7327
aVpromot
p7328
aVdorm
p7329
aVdividend
p7330
aVadvertis
p7331
aVboss
p7332
aVsession
p7333
aVwelfar
p7334
aVlaidoff
p7335
aVproduc
p7336
aVupperclass
p7337
aVcareer
p7338
aVgoal
p7339
aVunemploy
p7340
aVcontract
p7341
aVcredit
p7342
aVmentor
p7343
aVltd
p7344
aVcolleg
p7345
aVnonprofit
p7346
aVauditorium
p7347
aVcom
p7348
aVassign
p7349
aVvarsit
p7350
aVmajor
p7351
aVdepart
p7352
aVkinderg
p7353
aVheadhunt
p7354
aVelementari
p7355
aVduti
p7356
aVjd
p7357
aVinstruct
p7358
aVchamp
p7359
aVorg
p7360
aVpresiden
p7361
aVapprent
p7362
aVcv
p7363
aVmarket
p7364
aVprojector
p7365
aVunproduc
p7366
aVpc
p7367
aVteach
p7368
aVoccupa
p7369
aVregist
p7370
aVgpa
p7371
aVcalculu
p7372
aVcustom
p7373
aVdownsiz
p7374
aVprogram
p7375
aVmaster
p7376
aVresum
p7377
aVcorporat
p7378
aVadministrat
p7379
aVtype
p7380
aVcommut
p7381
aVincorp
p7382
aVoverpaid
p7383
aVpencil
p7384
aVadvi
p7385
aVfire
p7386
aVdropout
p7387
aVecon
p7388
aVworker
p7389
aVxerox
p7390
aVaward
p7391
aVstudiou
p7392
aVtextbook
p7393
aVclassmat
p7394
aVconsult
p7395
aVcompani
p7396
aVjunior
p7397
aVpresent
p7398
aVabsent
p7399
aVhire
p7400
aVcowork
p7401
aVthesi
p7402
aVmidterm
p7403
aVthese
p7404
aVservic
p7405
aVoutlin
p7406
aVprocrastin
p7407
aVfinal
p7408
aVchalk
p7409
aVdept
p7410
aVovertim
p7411
aVvocat
p7412
aVcounc
p7413
aVmeet
p7414
aVpsychol
p7415
aVlsat
p7416
aVretir
p7417
aVlayoff
p7418
aVcomput
p7419
aVproject
p7420
aVmanufact
p7421
aVstipend
p7422
aVchalleng
p7423
aVtax
p7424
aVagent
p7425
aVlectur
p7426
aVvp
p7427
aVmotiv
p7428
aVscholast
p7429
aVdemot
p7430
aVworkabl
p7431
aVincom
p7432
aVwork
p7433
aVinc
p7434
aVapplicat
p7435
aVcours
p7436
aVfacult
p7437
aVdoctor
p7438
aVpolic
p7439
aVpay
p7440
aVcubicl
p7441
aVtutor
p7442
aVstapl
p7443
aVwareh
p7444
aVread
p7445
aVbook
p7446
aVassistan
p7447
aVinterview
p7448
aVsororit
p7449
aVmemo
p7450
aVscholarli
p7451
aVpolit
p7452
aVresponsib
p7453
aVprereq
p7454
aVresourc
p7455
aVtest
p7456
aVblackboard
p7457
aVcollab
p7458
aVsecretar
p7459
aVphd
p7460
aVdirector
p7461
aVfrat
p7462
aVtenur
p7463
aVstudent
p7464
aVhighschool
p7465
aVtranscript
p7466
aVclass
p7467
aVfratern
p7468
aVclassroom
p7469
aVoutsourc
p7470
aVprofess
p7471
aVpractic
p7472
aVmenial
p7473
aVprofessor
p7474
aVcredenti
p7475
aVoverwork
p7476
aVorganiz
p7477
aVsophom
p7478
aVpension
p7479
aVtaxa
p7480
aVdissertat
p7481
aVstocker
p7482
aVsenior
p7483
aVacadem
p7484
aVtoefl
p7485
aVcampu
p7486
aVfinaliz
p7487
aVscholarship
p7488
atp7489
Rp7490
sS'SOCIAL PROCESSES'
p7491
g2
((lp7492
Vson'
p7493
aVgf
p7494
aVgossip
p7495
aVcaptain
p7496
aVchildren
p7497
aVwhose
p7498
aVprivat
p7499
aVfather
p7500
aVsend
p7501
aVbuddi
p7502
aVsent
p7503
aVwoman
p7504
aVexgf
p7505
aVrel
p7506
aVcellular
p7507
aVchild'
p7508
aVma
p7509
aVwe'll
p7510
aVcolleagu
p7511
aVbrother
p7512
aVteam
p7513
aVguy
p7514
aVyall
p7515
aVyou'd
p7516
aVtea
p7517
aVencourag
p7518
aVyou'r
p7519
aVtalker
p7520
aVthoust
p7521
aVparticipat
p7522
aVfolk
p7523
aVrepli
p7524
aVcell
p7525
aVkid'
p7526
aVpublic
p7527
aVtold
p7528
aVthemselv
p7529
aVmen
p7530
aVmet
p7531
aVlet
p7532
aVcongregat
p7533
aVboy
p7534
aVdaughter
p7535
aVsocial
p7536
aVtransact
p7537
aVourselv
p7538
aVlove
p7539
aVbro
p7540
aVdisclo
p7541
aVfamili
p7542
aVoverhear
p7543
aVspoke
p7544
aVcommun
p7545
aVlady'
p7546
aVvisit
p7547
aVinsult
p7548
aVcall
p7549
aVarmi
p7550
aVtell
p7551
aVexcu
p7552
aVbabe
p7553
aVbabi
p7554
aVpeopl
p7555
aVphone
p7556
aVadult
p7557
aVwho'll
p7558
aVwomen
p7559
aVacquainta
p7560
aVword
p7561
aVroom
p7562
aVmr
p7563
aVmeet
p7564
aVmale
p7565
aVgive
p7566
aVshare
p7567
aVhoney
p7568
aVheard
p7569
aVthey'v
p7570
aVma'
p7571
aVsir
p7572
aVwrite
p7573
aVanyon
p7574
aVinterview
p7575
aVconfid
p7576
aVspou
p7577
aVmother
p7578
aVdate
p7579
aVmam
p7580
aVman
p7581
aVgrandson
p7582
aVinform
p7583
aVsi
p7584
aVgrandkid
p7585
aVparti
p7586
aVgrandm
p7587
aVtalk
p7588
aVinfant
p7589
aVhelp
p7590
aVexwiv
p7591
aVmom'
p7592
aVexwif
p7593
aVmale'
p7594
aVgroup
p7595
aVwomanhood
p7596
aVhe'd
p7597
aVprai
p7598
aVmail
p7599
aVbye
p7600
aVdad
p7601
aVthem
p7602
aVya
p7603
aVthee
p7604
aVsweeti
p7605
aVye
p7606
aVband
p7607
aVstepfat
p7608
aVchick'
p7609
aVthey
p7610
aVcomplain
p7611
aVrumour
p7612
aVname
p7613
aVanybod
p7614
aVwe'r
p7615
aVwe'v
p7616
aVindividu
p7617
aVex
p7618
aVour
p7619
aVgirl
p7620
aVconfess
p7621
aVmate
p7622
aVthey'll
p7623
aVuncl
p7624
aVargu
p7625
aVmum'
p7626
aVask
p7627
aVexhusband
p7628
aVmarri
p7629
aVthine
p7630
aVwrote
p7631
aVoutsid
p7632
aVorganiz
p7633
aVkin
p7634
aVy'all
p7635
aVinfant'
p7636
aVexbf
p7637
aVowner
p7638
aVguest
p7639
aVinteract
p7640
aVmessag
p7641
aVtheir
p7642
aVstori
p7643
aVfriend
p7644
aVlisten
p7645
aVrelationship
p7646
aVgrandpa
p7647
aVconsult
p7648
aVherself
p7649
aVprovid
p7650
aVcellphon
p7651
aVgiver
p7652
aVlover
p7653
aVgirl'
p7654
aVcomrad
p7655
aVyou'v
p7656
aVreassur
p7657
aVwe'd
p7658
aVsay
p7659
aVadvic
p7660
aVself
p7661
aVoffer
p7662
aVgrandf
p7663
aVmate'
p7664
aVblam
p7665
aVwho
p7666
aVletter
p7667
aVwive
p7668
aVsoulmat
p7669
aVexe
p7670
aVgather
p7671
aVrequest
p7672
aVyou'll
p7673
aVaunt
p7674
aVaffair
p7675
aVniec
p7676
aVemail'
p7677
aVuncle'
p7678
aVnephew
p7679
aVfianc
p7680
aVinvolv
p7681
aVexplain
p7682
aVnegotiat
p7683
aVthey'r
p7684
aVbambino
p7685
aVexpress
p7686
aVthey'd
p7687
aVexboyfriend
p7688
aVcompass
p7689
aVhim
p7690
aVenemi
p7691
aVshe
p7692
aVeverybod
p7693
aVmen'
p7694
aVhusband
p7695
aVrespond
p7696
aVapolog
p7697
aVsaid
p7698
aVparticip
p7699
aVman'
p7700
aVmum
p7701
aVyoull
p7702
aVemail
p7703
aVwe
p7704
aVparent
p7705
aVstepmot
p7706
aVcousin
p7707
aVthou
p7708
aVcelebrat
p7709
aVadmit
p7710
aVwholl
p7711
aVcomment
p7712
aVcontrad
p7713
aVnewborn
p7714
aVspeak
p7715
aVamigo
p7716
aVforgiv
p7717
aVcompanionship
p7718
aVwhom
p7719
aVsecret
p7720
aVpa
p7721
aVwhod
p7722
aVsweetheart
p7723
aVexgirl
p7724
aVneighbour
p7725
aVboy'
p7726
aVchild
p7727
aVwill
p7728
aVmarriag
p7729
aVwho'
p7730
aVeveryon
p7731
aVperson'
p7732
aVhelper
p7733
aVrefu
p7734
aVexhubbi
p7735
aVgrudg
p7736
aVpartner
p7737
aVwelcom
p7738
aVreceiv
p7739
aVsuggest
p7740
aVmember
p7741
aVpal
p7742
aVsomeon
p7743
aVcompanion
p7744
aVstepkid
p7745
aVhe'll
p7746
aVkid
p7747
aVmention
p7748
aVmobb
p7749
aVhubbi
p7750
aVroommat
p7751
aVperson
p7752
aVcontact
p7753
aVthi
p7754
aVpa'
p7755
aVeveryth
p7756
aVshe'll
p7757
aVgranddad
p7758
aVroomi
p7759
aVhuman
p7760
aVgranddau
p7761
aVlanguag
p7762
aVcoun
p7763
aVsomebod
p7764
aVwed
p7765
aVdiscuss
p7766
aVma'am
p7767
aVcitizen
p7768
aVgave
p7769
aVladi
p7770
aVgame
p7771
aVwomanli
p7772
aVmom
p7773
aVmob
p7774
aVwho'd
p7775
aVrumor
p7776
aVdivorc
p7777
aVlet'
p7778
aVwoman'
p7779
aVchick
p7780
aVweve
p7781
aVcrowd
p7782
aVflatter
p7783
aVpersua
p7784
aVconver
p7785
aVmummi
p7786
aVcitizen'
p7787
aVshe'
p7788
aVbf
p7789
aVdescrib
p7790
aVsister
p7791
aVgentlem
p7792
aVroomat
p7793
aVneighbor
p7794
aVtheyr
p7795
aVtelephon
p7796
aVtheyv
p7797
aVyoud
p7798
aVson
p7799
aVmomma
p7800
aVtheyd
p7801
aVyouv
p7802
aVmommi
p7803
aVforgav
p7804
aVyour
p7805
aVdeal
p7806
aVher
p7807
aVquestion
p7808
aVhey
p7809
aVfight
p7810
aVhed
p7811
aVfought
p7812
aVcowork
p7813
aVmailer
p7814
aVhimself
p7815
aVboyf
p7816
aVgranni
p7817
aVhi
p7818
aVhear
p7819
aVmotherli
p7820
aVbud
p7821
aVhe
p7822
aVcaller
p7823
aVus
p7824
aVur
p7825
aVhe'
p7826
aVcounc
p7827
aVinterrup
p7828
aVgrandchil
p7829
aVfellow
p7830
aVchat
p7831
aVcultur
p7832
aVgirlfriend
p7833
aVadvi
p7834
aVassembl
p7835
aVtheyll
p7836
aVpappi
p7837
aVstepchild
p7838
aVrole
p7839
aVyou
p7840
aVoneself
p7841
aVfemal
p7842
aVsociet
p7843
aVwife
p7844
aVshe'd
p7845
aVfeud
p7846
aVgrownup
p7847
aVhello
p7848
atp7849
Rp7850
sS'PERCEPTUAL PROCESSES'
p7851
g2
((lp7852
Vtriang
p7853
aVedg
p7854
aVscratch
p7855
aVorang
p7856
aVshini
p7857
aVaroma
p7858
aVsunshin
p7859
aVscrumptiou
p7860
aVbright
p7861
aVskin
p7862
aVtouch
p7863
aVflavor
p7864
aVreek
p7865
aVdelectabl
p7866
aVthick
p7867
aVsumptuou
p7868
aVsugar
p7869
aVfeel
p7870
aVshout
p7871
aVblack
p7872
aVwet
p7873
aVspeech
p7874
aVdelici
p7875
aVsavour
p7876
aVgrip
p7877
aVbrown
p7878
aVstunk
p7879
aVpalatabl
p7880
aVsouri
p7881
aVwatch
p7882
aVvoic
p7883
aVyellow
p7884
aVbeaut
p7885
aVpress
p7886
aVsilk
p7887
aVcool
p7888
aVgray
p7889
aVleather
p7890
aVwetli
p7891
aVstroke
p7892
aVheavi
p7893
aVchoir
p7894
aVsang
p7895
aVsand
p7896
aVfuzz
p7897
aVcaramel
p7898
aVnose
p7899
aVnostril
p7900
aVgrab
p7901
aVcandl
p7902
aVsoft
p7903
aVround
p7904
aVview
p7905
aVconcert
p7906
aVweight
p7907
aVthin
p7908
aVweightless
p7909
aVhard
p7910
aVdeaf
p7911
aVsandi
p7912
aVhair
p7913
aVwhitish
p7914
aVsee
p7915
aVsampl
p7916
aVsight
p7917
aVacid
p7918
aVsaliv
p7919
aVcold
p7920
aVfragil
p7921
aVblue
p7922
aVfreez
p7923
aVsaid
p7924
aVchocol
p7925
aVscent
p7926
aVwhiff
p7927
aVrotten
p7928
aVsour
p7929
aVfinger
p7930
aVspeak
p7931
aVscreen
p7932
aVred
p7933
aVsnort
p7934
aVstare
p7935
aVunsavo
p7936
aVtast
p7937
aVrub
p7938
aVodor
p7939
aVnoisi
p7940
aVdeoder
p7941
aVsqueez
p7942
aVflexib
p7943
aVinaudibl
p7944
aVsunli
p7945
aVhand
p7946
aVpurpl
p7947
aVnois
p7948
aVshine
p7949
aVsniff
p7950
aVcolumn
p7951
aVodour
p7952
aVquiet
p7953
aVdri
p7954
aVaudibl
p7955
aVyum
p7956
aVthinn
p7957
aVstank
p7958
aVloud
p7959
aVstench
p7960
aVblind
p7961
aVrang
p7962
aVfroze
p7963
aVcolor
p7964
aVsweet
p7965
aVlimp
p7966
aVvivid
p7967
aVbrush
p7968
aVredd
p7969
aVring
p7970
aVacrid
p7971
aVseer
p7972
aVcologn
p7973
aVscann
p7974
aVhott
p7975
aVeye
p7976
aVspoke
p7977
aVpictur
p7978
aVtangi
p7979
aVcircl
p7980
aVwhisper
p7981
aVdrool
p7982
aVwhite
p7983
aVharmon
p7984
aVbitter
p7985
aVfizz
p7986
aVmusi
p7987
aVgaz
p7988
aVfire
p7989
aVimag
p7990
aVspici
p7991
aVhear
p7992
aVsilen
p7993
aVear
p7994
aVspice
p7995
aVsound
p7996
aVhush
p7997
aVpresser
p7998
aVflavour
p7999
aVlook
p8000
aVreddish
p8001
aVtang
p8002
aVperfum
p8003
aVsmooth
p8004
aVgrey
p8005
aVdrili
p8006
aVgrea
p8007
aVcitru
p8008
aVlisten
p8009
aVloos
p8010
aVstink
p8011
aVlick
p8012
aVglanc
p8013
aVscan
p8014
aVviewer
p8015
aVrectang
p8016
aVwaft
p8017
aVhoney
p8018
aVheard
p8019
aVsay
p8020
aVcaress
p8021
aVblond
p8022
aVsharp
p8023
aVseen
p8024
aVmint
p8025
aVstroki
p8026
aVcream
p8027
aVpink
p8028
aVsquar
p8029
aVsavor
p8030
aVsaw
p8031
aVsong
p8032
aVclick
p8033
aVlit
p8034
aVtight
p8035
aVhot
p8036
aVspeaker
p8037
aVboom
p8038
aVblackish
p8039
aVfragran
p8040
aVgripp
p8041
aVsmell
p8042
aVtart
p8043
aVoil
p8044
aVinhal
p8045
aVskin'
p8046
aVwarm
p8047
aVfelt
p8048
aVnasal
p8049
aVfetid
p8050
aVfruit
p8051
aVthunder
p8052
aVweightlift
p8053
aVglow
p8054
aVbutter
p8055
aVexperienc
p8056
aVlooker
p8057
aVlight
p8058
aVcolour
p8059
aVrancid
p8060
aVrough
p8061
aVpungen
p8062
aVgreen
p8063
aVtongu
p8064
aVsaccharin
p8065
aVdrie
p8066
aVyell
p8067
aVaudio
p8068
aVsalt
p8069
aVscream
p8070
atp8071
Rp8072
sS'HEARING'
p8073
g2
((lp8074
Vrang
p8075
aVconcert
p8076
aVwhisper
p8077
aVdeaf
p8078
aVhush
p8079
aVheard
p8080
aVsay
p8081
aVring
p8082
aVspeak
p8083
aVfizz
p8084
aVsaid
p8085
aVnois
p8086
aVthunder
p8087
aVsilen
p8088
aVshout
p8089
aVspeaker
p8090
aVboom
p8091
aVspeech
p8092
aVlisten
p8093
aVmusi
p8094
aVsong
p8095
aVvoic
p8096
aVnoisi
p8097
aVhear
p8098
aVinaudibl
p8099
aVear
p8100
aVharmon
p8101
aVsound
p8102
aVspoke
p8103
aVquiet
p8104
aVchoir
p8105
aVsang
p8106
aVaudibl
p8107
aVyell
p8108
aVaudio
p8109
aVloud
p8110
aVscream
p8111
atp8112
Rp8113
sS'PREPOSITIONS'
p8114
g2
((lp8115
Vamong
p8116
aVdure
p8117
aVwithin
p8118
aVnear
p8119
aVdown
p8120
aVas
p8121
aVthrough
p8122
aVat
p8123
aVin
p8124
aVbeyond
p8125
aVto
p8126
aVout
p8127
aVdespit
p8128
aVfrom
p8129
aVfor
p8130
aVtill
p8131
aVaway
p8132
aVexcept
p8133
aVsinc
p8134
aVtil
p8135
aVoutsid
p8136
aVbehind
p8137
aVbesid
p8138
aVunto
p8139
aVwanna
p8140
aVbetween
p8141
aVthru
p8142
aVacross
p8143
aVover
p8144
aVunless
p8145
aVaround
p8146
aVinsid
p8147
aVthan
p8148
aVatop
p8149
aVafter
p8150
aVupon
p8151
aVunderneath
p8152
aVbefor
p8153
aValong
p8154
aVwith
p8155
aVby
p8156
aVon
p8157
aVabout
p8158
aVoff
p8159
aVahead
p8160
aVof
p8161
aVinto
p8162
aVup
p8163
aVagainst
p8164
aVuntil
p8165
aVbelow
p8166
aVwithout
p8167
aVabov
p8168
aVplu
p8169
aVunder
p8170
aVbeneath
p8171
aVtoward
p8172
aVonto
p8173
atp8174
Rp8175
sS'ADVERBS'
p8176
g2
((lp8177
Vthere
p8178
aVsimpli
p8179
aVoften
p8180
aVjust
p8181
aVwell
p8182
aVmayb
p8183
aVsooo
p8184
aVback
p8185
aVrealli
p8186
aVsuch
p8187
aVbeyond
p8188
aVsoon
p8189
aVyet
p8190
aVnearli
p8191
aVeven
p8192
aVabsolut
p8193
aVonli
p8194
aVstill
p8195
aVprobabl
p8196
aVprimarili
p8197
aVhow
p8198
aVrather
p8199
aVespeci
p8200
aVdefinit
p8201
aVlate
p8202
aValso
p8203
aVrare
p8204
aVbasic
p8205
aVtotal
p8206
aVinstead
p8207
aVconstantli
p8208
aVever
p8209
aVhope
p8210
aVcomplet
p8211
aVsomehow
p8212
aVaround
p8213
aVagain
p8214
aVgener
p8215
aVhere
p8216
aVclearli
p8217
aVquick
p8218
aVtoo
p8219
aVmostli
p8220
aVveri
p8221
aVappar
p8222
aVimmedi
p8223
aVnow
p8224
aVtruli
p8225
aVabout
p8226
aVeventu
p8227
aVactual
p8228
aVwhenev
p8229
aVanywher
p8230
aVwhere
p8231
aVhowev
p8232
aVwhen
p8233
aVanyway
p8234
aVthere'
p8235
aVtho
p8236
aVperhap
p8237
aVso
p8238
aVthough
p8239
aVpush
p8240
aVserious
p8241
aVhere'
p8242
aVfrequent
p8243
aVusual
p8244
atp8245
Rp8246
sS'3RD PLURAL'
p8247
g2
((lp8248
Vthem
p8249
aVthey'v
p8250
aVthemselv
p8251
aVthey'll
p8252
aVthey'd
p8253
aVtheir
p8254
aVthey
p8255
aVtheyd
p8256
aVtheyll
p8257
aVtheyv
p8258
atp8259
Rp8260
sS'PERSONAL PRON'
p8261
g2
((lp8262
Vi'll
p8263
aVive
p8264
aVweve
p8265
aVshe'll
p8266
aVyou'r
p8267
aVtheyv
p8268
aVwe'v
p8269
aVthoust
p8270
aVmine
p8271
aVwe'd
p8272
aVthey'v
p8273
aVim
p8274
aVus
p8275
aVtheyd
p8276
aVour
p8277
aVid
p8278
aVyou'd
p8279
aVhed
p8280
aVtheyll
p8281
aVher
p8282
aVyou'v
p8283
aVyour
p8284
aVhe'd
p8285
aVtheir
p8286
aVhe'
p8287
aVthey'll
p8288
aVyou
p8289
aVyoull
p8290
aVshe'
p8291
aVthem
p8292
aVhimself
p8293
aVthemselv
p8294
aVoneself
p8295
aVya
p8296
aVthee
p8297
aVye
p8298
aVwe'll
p8299
aVthey'd
p8300
aVwe
p8301
aVhi
p8302
aVlet
p8303
aVthey
p8304
aVthine
p8305
aVherself
p8306
aVhim
p8307
aVhe
p8308
aVme
p8309
aVi'v
p8310
aVmyself
p8311
aVyoud
p8312
aVlet'
p8313
ag84
aVy'all
p8314
aVyouv
p8315
aVshe'd
p8316
aVthou
p8317
aVyou'll
p8318
aVi'd
p8319
aVwe'r
p8320
aVshe
p8321
aVthi
p8322
aVi'm
p8323
aVmy
p8324
aVyall
p8325
aVourselv
p8326
atp8327
Rp8328
sS'DEATH'
p8329
g2
((lp8330
Vburial
p8331
aVdoa
p8332
aVcorps
p8333
aVod
p8334
aVcemet
p8335
aVdead
p8336
aVdeath
p8337
aVmurder
p8338
aVkill
p8339
aVdemis
p8340
aVlethal
p8341
aVmorgu
p8342
aVode
p8343
aVslaughter
p8344
aVcasket
p8345
aVexecut
p8346
aVcrypt
p8347
aVsuicid
p8348
aVhomocid
p8349
aVreaper
p8350
aVmortician
p8351
aVfatal
p8352
aVwar
p8353
aVgriev
p8354
aVfuner
p8355
aVcoron
p8356
aVepidem
p8357
aVembalm
p8358
aVmortal
p8359
aVburi
p8360
aVimmort
p8361
aVgrief
p8362
aVplagu
p8363
aVautop
p8364
aVdrown
p8365
aVmourn
p8366
aVlynch
p8367
aVobit
p8368
aVgrave
p8369
aVghost
p8370
aVmanslaught
p8371
aVcasualt
p8372
aVoverdos
p8373
aVcremat
p8374
aVmassacr
p8375
aVbereav
p8376
aVdie
p8377
aVurn
p8378
aVdeceas
p8379
aVholocaust
p8380
aVpallbear
p8381
aVgenocid
p8382
aVexterminat
p8383
aVhears
p8384
aVtomb
p8385
aVcoffin
p8386
aValiv
p8387
aVmausoleum
p8388
atp8389
Rp8390
sS'FRIENDS'
p8391
g2
((lp8392
Vcomrad
p8393
aVsweetheart
p8394
aVfellow
p8395
aVhoney
p8396
aVgf
p8397
aVexbf
p8398
aVgirlfriend
p8399
aVexgf
p8400
aVfianc
p8401
aVamigo
p8402
aVguest
p8403
aVmate
p8404
aVbuddi
p8405
aVexgirl
p8406
aVpal
p8407
aVfriend
p8408
aVbf
p8409
aVboyf
p8410
aVmate'
p8411
aVsweeti
p8412
aVcompanion
p8413
aVneighbour
p8414
aVroommat
p8415
aVexboyfriend
p8416
aVsoulmat
p8417
aVroomi
p8418
aVbud
p8419
aVpartner
p8420
aVacquainta
p8421
aVcolleagu
p8422
aVroomat
p8423
aVneighbor
p8424
aVlover
p8425
atp8426
Rp8427
sS'CAUSATION'
p8428
g2
((lp8429
Vcontrol
p8430
aVorigin
p8431
aVimpli
p8432
aVmisl
p8433
aVco
p8434
aVcreat
p8435
aVsolut
p8436
aVindepend
p8437
aVfoundat
p8438
aVaggravat
p8439
aVelicit
p8440
aVsourc
p8441
aVmotiv
p8442
aVprovok
p8443
aVrespons
p8444
aVintend
p8445
aVinact
p8446
aVbecaus
p8447
aVprovoc
p8448
aVobedien
p8449
aVresult
p8450
aVpurpos
p8451
aVstimul
p8452
aVdepend
p8453
aVcomplianc
p8454
aVcreati
p8455
aVinfluenc
p8456
aVproduc
p8457
aVmake
p8458
aVcompel
p8459
aVcuz
p8460
aVhow
p8461
aVtrigger
p8462
aVhow'
p8463
aVuse
p8464
aVreason
p8465
aVfounder
p8466
aVexperi
p8467
aVinduc
p8468
aVdeduc
p8469
aVattribut
p8470
aVtherefor
p8471
aVration
p8472
aVimplica
p8473
aVobey
p8474
aVwhi
p8475
aVforc
p8476
aVconclud
p8477
aVgener
p8478
aVmanipul
p8479
aVeffect
p8480
aVcompli
p8481
aVboss
p8482
aVreact
p8483
aVconsequen
p8484
aVbase
p8485
aVintent
p8486
aVsolv
p8487
aVaffect
p8488
aVhenc
p8489
aVoriginat
p8490
aVinferr
p8491
aVsinc
p8492
aVbasi
p8493
aVmade
p8494
aVignit
p8495
aVlead
p8496
aVlaunch
p8497
aVthu
p8498
aVcoz
p8499
aVjustif
p8500
aVcau
p8501
aVinfer
p8502
aVmaker
p8503
aVoutcom
p8504
aVallow
p8505
aVpermit
p8506
aVfound
p8507
aVchang
p8508
aVled
p8509
aVroot
p8510
aVactivat
p8511
aVpick
p8512
atp8513
Rp8514
sS'NEGATIVE EMOTION'
p8515
g2
((lp8516
Vliar
p8517
aVvile
p8518
aVunea
p8519
aVmessi
p8520
aVhatr
p8521
aVprotest
p8522
aVgossip
p8523
aVhate
p8524
aVsorri
p8525
aVugl
p8526
aVwhore
p8527
aVdaze
p8528
aVterror
p8529
aVfatal
p8530
aVrisk
p8531
aVjerk
p8532
aVappal
p8533
aVphobi
p8534
aVenviou
p8535
aVdisast
p8536
aVsuspicio
p8537
aVhumiliat
p8538
aVstrang
p8539
aVdisturb
p8540
aVtear
p8541
aVparanoi
p8542
aVthreat
p8543
aVdesperat
p8544
aVtrite
p8545
aVregret
p8546
aVtea
p8547
aVhorr
p8548
aVunprotect
p8549
aVhelpless
p8550
aVmolest
p8551
aVrapist
p8552
aVskeptic
p8553
aVbeaten
p8554
aVpoison
p8555
aVcrush
p8556
aVrotten
p8557
aVpessimi
p8558
aVmasochi
p8559
aVapprehen
p8560
aVturmoil
p8561
aVwitch
p8562
aVmiser
p8563
aVdork
p8564
aVspite
p8565
aVwhine
p8566
aVbrutal
p8567
aVanxi
p8568
aVharass
p8569
aVdefeat
p8570
aVantagoni
p8571
aVweird
p8572
aVdanger
p8573
aVforbid
p8574
aVemot
p8575
aVfuriou
p8576
aVfake
p8577
aVdisillus
p8578
aVmooch
p8579
aVaggress
p8580
aVcrap
p8581
aVhomesick
p8582
aVcraz
p8583
aVinsult
p8584
aVdoubt
p8585
aVvultur
p8586
aVgriev
p8587
aVdismay
p8588
aVconfu
p8589
aVstutter
p8590
aVhurt
p8591
aVgrief
p8592
aVrigid
p8593
aVbroke
p8594
aVdoom
p8595
aVannoy
p8596
aVneurot
p8597
aVbattl
p8598
aVvillain
p8599
aVworr
p8600
aVwors
p8601
aVsucki
p8602
aVtragic
p8603
aVabandon
p8604
aVblam
p8605
aVshook
p8606
aVstubborn
p8607
aVflunk
p8608
aVfuck
p8609
aVheartless
p8610
aVcritic
p8611
aVdefen
p8612
aVcontempt
p8613
aVawkward
p8614
aVarrogan
p8615
aVrape
p8616
aVreject
p8617
aVneedi
p8618
aVdisappoint
p8619
aVpanic
p8620
aVsin
p8621
aVsuffer
p8622
aVtension
p8623
aVstartl
p8624
aVrude
p8625
aVmess
p8626
aVsceptic
p8627
aVdiscomfort
p8628
aVmad
p8629
aVnumb
p8630
aVsuck
p8631
aVexcruciat
p8632
aVirrita
p8633
aVstress
p8634
aVimpatien
p8635
aVseriou
p8636
aVlame
p8637
aVscare
p8638
aVungrat
p8639
aVdread
p8640
aVoffend
p8641
aVmourn
p8642
aVgreed
p8643
aVoffenc
p8644
aVimperson
p8645
aVyearn
p8646
aVshake
p8647
aVhell
p8648
aVshaki
p8649
aVdecay
p8650
aVfool
p8651
aVsucker
p8652
aVembarrass
p8653
aVmoron
p8654
aVviciou
p8655
aVagoni
p8656
aVcomplain
p8657
aVgloom
p8658
aVcareless
p8659
aVaversi
p8660
aVharm
p8661
aVshock
p8662
aVrestless
p8663
aVterrifi
p8664
aVdepress
p8665
aVagitat
p8666
aVisolat
p8667
aVdefenc
p8668
aVrepress
p8669
aVtrauma
p8670
aVwick
p8671
aVstun
p8672
aVobsess
p8673
aVunfriendli
p8674
aVpuk
p8675
aVargu
p8676
aVargh
p8677
aVrebel
p8678
aVapath
p8679
aVbash
p8680
aVmaniac
p8681
aVcritici
p8682
aVstruggl
p8683
aVsicken
p8684
aVhopeless
p8685
aVangr
p8686
aVinadequa
p8687
aVneglect
p8688
aVfuckin
p8689
aVaggravat
p8690
aVfatigu
p8691
aVbitch
p8692
aVwimp
p8693
aVmiss
p8694
aVweep
p8695
aVpainf
p8696
aVunimport
p8697
aVfieri
p8698
aVtrembl
p8699
aVattack
p8700
aVsadli
p8701
aVdwell
p8702
aVabusi
p8703
aVbitter
p8704
aVmurder
p8705
aVpunish
p8706
aVasshol
p8707
aVobnoxi
p8708
aVsubmiss
p8709
aVevil
p8710
aVpeculiar
p8711
aVstammer
p8712
aVwrong
p8713
aVpressur
p8714
aVremors
p8715
aVwarfar
p8716
aVasham
p8717
aVterribl
p8718
aVdefect
p8719
aVsad
p8720
aVanger
p8721
aVworst
p8722
aVscrew
p8723
aVbastard
p8724
aVafraid
p8725
aVviolat
p8726
aVuseless
p8727
aVsnob
p8728
aVdestroy
p8729
aVprick
p8730
aVunsur
p8731
aVunsuccess
p8732
aVassault
p8733
aVabus
p8734
aVgrave
p8735
aVegoti
p8736
aVpathet
p8737
aVunpleas
p8738
aValarm
p8739
aVupset
p8740
aVdestruct
p8741
aVrancid
p8742
aVsolemn
p8743
aVmelanchol
p8744
aVferoc
p8745
aVirrat
p8746
aVscream
p8747
aVugh
p8748
aVridicul
p8749
aVimpolit
p8750
aVcheat
p8751
aVhesita
p8752
aVfear
p8753
aVoffen
p8754
aVunkind
p8755
aVineffect
p8756
aVruin
p8757
aVenvi
p8758
aVdisgust
p8759
aVinferior
p8760
aVagoniz
p8761
aVdisagre
p8762
aVresent
p8763
aVgeek
p8764
aVtens
p8765
aVsmug
p8766
aVdishearten
p8767
aVhostil
p8768
aVenemi
p8769
aVbad
p8770
aVstupid
p8771
aVunsavo
p8772
aVshi
p8773
aVdomina
p8774
aVcri
p8775
aVsteal
p8776
aVbother
p8777
aVdump
p8778
aVoverwhelm
p8779
aVjade
p8780
aVimmor
p8781
aVdumb
p8782
aVtroubl
p8783
aVfail
p8784
aVdisadvantag
p8785
aVsarca
p8786
aVguilt
p8787
aVdissatisf
p8788
aVdevastat
p8789
aVdespi
p8790
aVcrude
p8791
aVdistraught
p8792
aVpiss
p8793
aVsorrow
p8794
aVweak
p8795
aVdislik
p8796
aVlazi
p8797
aVvulnerab
p8798
aVnervou
p8799
aVtantrum
p8800
aVfault
p8801
aValon
p8802
aVtrage
p8803
aVpiti
p8804
aVtrivi
p8805
aVreluctan
p8806
aVcynic
p8807
aVtough
p8808
aVdistress
p8809
aVcontrad
p8810
aVvain
p8811
aVsmother
p8812
aVluckless
p8813
aVmistak
p8814
aVscari
p8815
aVdamag
p8816
aVworthless
p8817
aVdevil
p8818
aVshame
p8819
aVpetti
p8820
aVdamn
p8821
aVfire
p8822
aVcunt
p8823
aVcrappi
p8824
aVuncertain
p8825
aVliabilit
p8826
aVtrick
p8827
aVunhapp
p8828
aVheartbrok
p8829
aVstink
p8830
aVstrain
p8831
aVfrantic
p8832
aVoutrag
p8833
aVanguish
p8834
aVsever
p8835
aVheartbreak
p8836
aVdifficult
p8837
aVexhaust
p8838
aVsadd
p8839
aVlie
p8840
aVfucker
p8841
aVinhib
p8842
aVvaniti
p8843
aVtimid
p8844
aVdiscourag
p8845
aVweapon
p8846
aVinsinc
p8847
aVfume
p8848
aVunattract
p8849
aVviolent
p8850
aVkill
p8851
aVvictim
p8852
aVdepriv
p8853
aVcut
p8854
aVuncomfortabl
p8855
aVsinist
p8856
aVhater
p8857
aVstunk
p8858
aVmoodi
p8859
aVmocker
p8860
aVburden
p8861
aVtick
p8862
aVgrim
p8863
aVloss
p8864
aVlost
p8865
aVconfront
p8866
aVloser
p8867
aVpetrif
p8868
aVdistrust
p8869
aVprejud
p8870
aVlose
p8871
aVunlov
p8872
aVthief
p8873
aVempt
p8874
aVadver
p8875
aVpain
p8876
aVbore
p8877
aVthiev
p8878
aVgross
p8879
aVavoid
p8880
aVunimpress
p8881
aVfoe
p8882
aVenrag
p8883
aVinsecur
p8884
aVslut
p8885
aVuptight
p8886
aVreveng
p8887
aVwoe
p8888
aVperver
p8889
aVwept
p8890
aVjealou
p8891
aVach
p8892
aVunfortun
p8893
aVdespair
p8894
aVstank
p8895
aVsob
p8896
aVtortur
p8897
aVunwelcom
p8898
aVsavag
p8899
aVstench
p8900
aVfrustrat
p8901
aVlone
p8902
aVmadden
p8903
aVlong
p8904
aVfight
p8905
aVmadder
p8906
aVfought
p8907
aVlow
p8908
aVlou
p8909
aVhellish
p8910
aVwar
p8911
aVmaddest
p8912
aVuncontrol
p8913
aVreek
p8914
aVdull
p8915
aVludicr
p8916
aVrage
p8917
aVdistract
p8918
aVcruel
p8919
aVgrouch
p8920
aVproblem
p8921
aVtemper
p8922
aVinterrup
p8923
aVfreak
p8924
aVfright
p8925
aVindeci
p8926
aVaw
p8927
aVfuri
p8928
aVnerd
p8929
aVshit
p8930
aVselfish
p8931
aVgrr
p8932
aVnag
p8933
aVgoddam
p8934
aVidiot
p8935
aVmock
p8936
aVresign
p8937
aVintimidat
p8938
aVnast
p8939
aVfeud
p8940
aVignor
p8941
aVserious
p8942
aVdegrad
p8943
atp8944
Rp8945
sS'PAST TENSE'
p8946
g2
((lp8947
Vhelp
p8948
aVshow
p8949
aVmove
p8950
aVcould'v
p8951
aVheld
p8952
aVmust'v
p8953
aVwouldv
p8954
aVfollow
p8955
aVsuffer
p8956
aVhate
p8957
aVdepend
p8958
aVthank
p8959
aVexplain
p8960
aVhad
p8961
aVowe
p8962
aVsuppos
p8963
aVbecam
p8964
aVsens
p8965
aVhope
p8966
aVgave
p8967
aVmeant
p8968
aVweve
p8969
aVwoken
p8970
aVstop
p8971
aVflew
p8972
aVaffect
p8973
aVfled
p8974
aVwore
p8975
aVtri
p8976
aVlike
p8977
aVlost
p8978
aVdid
p8979
aVdie
p8980
aVwish
p8981
aVfound
p8982
aVwent
p8983
aVcri
p8984
aVwrote
p8985
aVview
p8986
aVwe'v
p8987
aVunderstood
p8988
aVtaught
p8989
aVforgot
p8990
aVhappen
p8991
aVwonder
p8992
aVmustv
p8993
aVsaid
p8994
aVstood
p8995
aVappear
p8996
aVshould'v
p8997
aVtend
p8998
aVwritten
p8999
aVwon
p9000
aVuse
p9001
aVsold
p9002
aVgot
p9003
aVemail
p9004
aVbought
p9005
aVknew
p9006
aVwa
p9007
aVshouldv
p9008
aVguess
p9009
aVdislik
p9010
aVmet
p9011
aVbeliev
p9012
aVhadn't
p9013
aVcare
p9014
aVate
p9015
aVturn
p9016
aVadmit
p9017
aVweren't
p9018
aVchang
p9019
aVcouldv
p9020
aVlove
p9021
aVcarri
p9022
aVarriv
p9023
aVwalk
p9024
aVbrought
p9025
aVask
p9026
aVdone
p9027
aVsupport
p9028
aVspoke
p9029
aVdrove
p9030
aVmiss
p9031
aVfed
p9032
aVdescrib
p9033
aVstuck
p9034
aVcaught
p9035
aVslept
p9036
aVbeen
p9037
aVstart
p9038
aVlive
p9039
aVdrank
p9040
aVcall
p9041
aVtaken
p9042
aVfought
p9043
aVwait
p9044
aVwoke
p9045
aVlisten
p9046
aVshare
p9047
aVtook
p9048
aVhadnt
p9049
aVgiven
p9050
aVmade
p9051
aVlook
p9052
aVwasn't
p9053
aVgotten
p9054
aVwork
p9055
aVtold
p9056
aVworn
p9057
aVsent
p9058
aVwere
p9059
aVthrew
p9060
aVdidnt
p9061
aVgone
p9062
aVran
p9063
aVdidn't
p9064
aVfuck
p9065
aVaccept
p9066
aVheard
p9067
aVwasnt
p9068
aVwant
p9069
aVneed
p9070
aVseen
p9071
aVseem
p9072
aVsaw
p9073
aVsat
p9074
aVlie
p9075
aVend
p9076
aVbegan
p9077
aVplay
p9078
aVfelt
p9079
aVpaid
p9080
aVstay
p9081
aVdriven
p9082
aVeaten
p9083
aVsuck
p9084
aVwould'v
p9085
aVstudi
p9086
aVkept
p9087
aVspent
p9088
aVthought
p9089
aVtalk
p9090
aVenter
p9091
aVcame
p9092
atp9093
Rp9094
s.