(dp0
S'TOTAL PRON'
p1
I0
sS'ANXIETY'
p2
I1
sS'DEATH'
p3
I59
sS'EXCLUSION'
p4
I3
sS'1ST SINGULAR'
p5
I4
sS'CERTAINTY'
p6
I5
sS'HUMANS'
p7
I6
sS'CONJUNCTIONS'
p8
I7
sS'SADNESS'
p9
I8
sS'INHIBITION'
p10
I9
sS'1ST PLURAL'
p11
I10
sS'DISCREPANCY'
p12
I20
sS'HOME'
p13
I12
sS'PREPOSITIONS'
p14
I55
sS'SEXUAL'
p15
I17
sS'TENTATIVENESS'
p16
I14
sS'INCLUSION'
p17
I15
sS'QUANTIFIERS'
p18
I16
sS'COGNITIVE PROCESSES'
p19
I13
sS'POSITIVE EMOTION'
p20
I18
sS'RELATIVITY'
p21
I11
sS'INSIGHT'
p22
I19
sS'LEISURE'
p23
I2
sS'MOTION'
p24
I21
sS'PRESENT TENSE'
p25
I22
sS'NEGATIONS'
p26
I24
sS'ANGER'
p27
I25
sS'ADVERBS'
p28
I56
sS'WORK'
p29
I51
sS'ACHIEVEMENT'
p30
I27
sS'COMMON VERBS'
p31
I28
sS'BODY'
p32
I29
sS'SEEING'
p33
I30
sS'3RD SINGULAR'
p34
I31
sS'FUNCTION WORDS'
p35
I32
sS'FAMILY'
p36
I33
sS'SPACE'
p37
I34
sS'IMPERSONAL PRON'
p38
I37
sS'3RD PLURAL'
p39
I57
sS'ASSENT'
p40
I35
sS'AUXILIARY VERBS'
p41
I38
sS'INGESTION'
p42
I39
sS'NUMBERS'
p43
I40
sS'NON-FLUENCIES'
p44
I42
sS'SWEAR WORDS'
p45
I43
sS'FEELING'
p46
I44
sS'RELIGION'
p47
I45
sS'FILLERS'
p48
I46
sS'ARTICLES'
p49
I47
sS'TOTAL 2ND'
p50
I48
sS'FUTURE TENSE'
p51
I49
sS'AFFECTIVE PROCESSES'
p52
I50
sS'MONEY'
p53
I41
sS'SOCIAL PROCESSES'
p54
I52
sS'PERCEPTUAL PROCESSES'
p55
I53
sS'HEARING'
p56
I54
sS'BIOLOGICAL PROCESSES'
p57
I23
sS'HEALTH'
p58
I26
sS'TIME'
p59
I36
sS'PERSONAL PRON'
p60
I58
sS'FRIENDS'
p61
I60
sS'CAUSATION'
p62
I61
sS'NEGATIVE EMOTION'
p63
I62
sS'PAST TENSE'
p64
I63
s.