c__builtin__
set
p0
((lp1
Vapproximat
p2
aVhatr
p3
aVyellow
p4
aVfour
p5
aVprotest
p6
aVjihad
p7
aVsleep
p8
aVclimb
p9
aVcaptain
p10
aVhate
p11
aVforget
p12
aVdisappear
p13
aVwhose
p14
aVauthorit
p15
aVfounder
p16
aVopport
p17
aVswam
p18
aVsorri
p19
aVabilit
p20
aVschool
p21
aVbike
p22
aVbuddh
p23
aVbuddi
p24
aVdaze
p25
aVunder
p26
aVlord
p27
aVsped
p28
aVpride
p29
aVworth
p30
aVemphysem
p31
aVeveri
p32
aVrisk
p33
aVappal
p34
aVshi'
p35
aVrise
p36
aVvoic
p37
aVtenni
p38
aVimplicit
p39
aVgovern
p40
aVappar
p41
aVvast
p42
aVchapel
p43
aVwe'll
p44
aVprize
p45
aVaudibl
p46
aVignit
p47
aVmargarita
p48
aVparanoi
p49
aVwednesday
p50
aVfactori
p51
aVtang
p52
aVnigger
p53
aVcrotch
p54
aVdesperat
p55
aVwholli
p56
aVtriumph
p57
aVenjoy
p58
aVchew
p59
aVpubic
p60
aVsabbath
p61
aVbudget
p62
aVjew
p63
aVsecond
p64
aVhorr
p65
aVunresolv
p66
aVunneccess
p67
aVbicyc
p68
aVeven
p69
aVoldest
p70
aVchrist
p71
aVcorrelat
p72
aVsolemn
p73
aVthunder
p74
aVbeaten
p75
aVorchestra
p76
aVpoison
p77
aVbipolar
p78
aVadequa
p79
aVkid'
p80
aVneat
p81
aVcarpet
p82
aVever
p83
aVhazi
p84
aVapprehen
p85
aVafterward
p86
aVhero
p87
aVavert
p88
aVnever
p89
aVhere
p90
aVmet
p91
aVstudio
p92
aVdorm
p93
aVaftermath
p94
aVaren't
p95
aVcongregat
p96
aVdork
p97
aVi'v
p98
aVdaughter
p99
aVsoul
p100
aVauction
p101
aVseduc
p102
aVanymor
p103
aVloos
p104
aVdri
p105
aVcredit
p106
aVharass
p107
aVi'd
p108
aVmentor
p109
aVpermit
p110
aVsikh
p111
aVantagoni
p112
aVi'm
p113
aVmenial
p114
aVseven
p115
aVbrought
p116
aVmoral
p117
aVexhusband
p118
aVtotal
p119
aVdisillus
p120
aVhighli
p121
aVoverhear
p122
aVdescrib
p123
aVwould
p124
aVinsult
p125
aVcall
p126
aVcalm
p127
aVarmi
p128
aVvultur
p129
aVuntil
p130
aVgriev
p131
aVmusi
p132
aVexcu
p133
aVrelax
p134
aVwart
p135
aVrelat
p136
aVhaha
p137
aVaward
p138
aVhurt
p139
aVgrief
p140
aVphone
p141
aVwarm
p142
aVadult
p143
aVholi
p144
aVwari
p145
aVhold
p146
aVmust
p147
aVme
p148
aVma
p149
aVroom
p150
aVhamstr
p151
aVmm
p152
aVwork
p153
aVelicit
p154
aVworn
p155
aVworr
p156
aVwors
p157
aVera
p158
aVtoleran
p159
aVmr
p160
aVelbow
p161
aVfrantic
p162
aVmy
p163
aVshook
p164
aVmerchant
p165
aVincompeten
p166
aVgive
p167
aVfloor
p168
aVheartless
p169
aVhoney
p170
aVwant
p171
aVbasebal
p172
aVattract
p173
aVdyke
p174
aVgigant
p175
aVrecov
p176
aVend
p177
aVthing
p178
aVpolic
p179
aVrib
p180
aVtravel
p181
aVstone
p182
aVintestin
p183
aVhow
p184
aVhot
p185
aVassistan
p186
aVconfin
p187
aVblackish
p188
aVinterview
p189
aVdisappoint
p190
aVbeach
p191
aVconfid
p192
aVrebat
p193
aVsmok
p194
aVfever
p195
aVmess
p196
aVafter
p197
aVabdomen
p198
aVlump
p199
aVpimpl
p200
aVbefor
p201
aVwrong
p202
aVsalsa
p203
aVreligio
p204
aVlaw
p205
aVarch
p206
aVlesbian
p207
aVinventori
p208
aVprofess
p209
aVattempt
p210
aVthird
p211
aVwarfar
p212
aVcredenti
p213
aVthink
p214
aVperform
p215
aVwinn
p216
aVgrandkid
p217
aVenter
p218
aVplagu
p219
aVvarsit
p220
aVidontknow
p221
aVorder
p222
aVgreed
p223
aVwine
p224
aVblind
p225
aVpossib
p226
aVdeci
p227
aVover
p228
aVorang
p229
aVbecaus
p230
aVexwiv
p231
aVfab
p232
aVprivileg
p233
aVfift
p234
aVoven
p235
aVaffect
p236
aVvita
p237
aVantacid
p238
aVvari
p239
aVexwif
p240
aVgentl
p241
aVweekl
p242
aVfit
p243
aVhospit
p244
aVwomanhood
p245
aVchiropract
p246
aVbetter
p247
aVoffic
p248
aVfade
p249
aVonc
p250
aVpass
p251
aVthen
p252
aVthem
p253
aVwoken
p254
aVthee
p255
aVsafe
p256
aVdisturb
p257
aVbreak
p258
aVband
p259
aVviciou
p260
aVthey
p261
aVmgmt
p262
aVmucho
p263
aVbank
p264
aVbread
p265
aVrumour
p266
aVgloom
p267
aVbonu
p268
aVchoir
p269
aVboni
p270
aVeach
p271
aVwent
p272
aVcomplet
p273
aVmeal
p274
aVbone
p275
aVmean
p276
aVburial
p277
aVwe'r
p278
aVwe'v
p279
aVweightless
p280
aVarthr
p281
aVmda
p282
aVoverflow
p283
aVinexpen
p284
aVtaught
p285
aVwe'd
p286
aVforgot
p287
aVsaturday
p288
aVdepress
p289
aVrr
p290
aVgoe
p291
aVscent
p292
aVnewli
p293
aVtonsil
p294
aVrx
p295
aVsand
p296
aVcontent
p297
aVrecenc
p298
aVpieti
p299
aVdebit
p300
aVgot
p301
aVvagina
p302
aVbulimi
p303
aVgate
p304
aVcigar
p305
aVhomework
p306
aVbarrier
p307
aVworthwhil
p308
aVveto
p309
aVoverweight
p310
aVbldg
p311
aVfree
p312
aVstandard
p313
aVtechno
p314
aVskin'
p315
aVdisast
p316
aVchristma
p317
aVallerg
p318
aVate
p319
aVsunshin
p320
aVpuzzl
p321
aVmaniac
p322
aVatm
p323
aVarrogan
p324
aVheck
p325
aVhopeless
p326
aVangr
p327
aVsoda
p328
aVonto
p329
aVhire
p330
aVfuckin
p331
aVkin
p332
aVinvigor
p333
aVrang
p334
aVtrillion
p335
aVdime
p336
aVgrade
p337
aVcapab
p338
aVindepend
p339
aVaggravat
p340
aVrank
p341
aVrestrict
p342
aVwash
p343
aVinstruct
p344
aValreadi
p345
aVstudi
p346
aVexbf
p347
aVthick
p348
aVagre
p349
aVfantast
p350
aVtox
p351
aVwherev
p352
aVattach
p353
aVtangi
p354
aVobit
p355
aVtop
p356
aVsometim
p357
aVdownsiz
p358
aVton
p359
aVtoo
p360
aVdwell
p361
aVeuro
p362
aVbitter
p363
aVmakeout
p364
aVlisten
p365
aVmurder
p366
aVdessert
p367
aVgym
p368
aVtook
p369
aVwisdom
p370
aVobnoxi
p371
aVsomewhat
p372
aVconserv
p373
aVhadnt
p374
aVpersev
p375
aVpeculiar
p376
aVsymptom
p377
aVdriveway
p378
aVunbeat
p379
aVsilli
p380
aVprovid
p381
aVolder
p382
aVbiolog
p383
aVoughtnt
p384
aVfinal
p385
aVproject
p386
aVmatter
p387
aVstreet
p388
aVguilt
p389
aVgiver
p390
aVfrankli
p391
aVgirl'
p392
aVsortof
p393
aVbeginn
p394
aVseer
p395
aVran
p396
aVmodern
p397
aVreassur
p398
aVmine
p399
aVhypothet
p400
aVrap
p401
aVfurther
p402
aVoctob
p403
aVseen
p404
aVseem
p405
aVmint
p406
aVseminar
p407
aVdozen
p408
aVpc
p409
aVponder
p410
aVstrength
p411
aVrecreat
p412
aVterrif
p413
aVrabbi
p414
aVthat
p415
aVchest
p416
aVchess
p417
aVunemploy
p418
aVsnob
p419
aVgripp
p420
aVmemo
p421
aVblue
p422
aVinsur
p423
aVwithdraw
p424
aVplenti
p425
aVshall
p426
aVwhat
p427
aVpoker
p428
aVmouth
p429
aVaddict
p430
aVletter
p431
aVcoin
p432
aVthe
p433
aVgrave
p434
aVglow
p435
aVlikeab
p436
aVacadem
p437
aVunpleas
p438
aValarm
p439
aVside
p440
aVflow
p441
aVrancid
p442
aVaunt
p443
aVplace
p444
aVconstrict
p445
aVcurio
p446
aVer
p447
aVshould'v
p448
aVcame
p449
aVtriang
p450
aVtwel
p451
aVpope
p452
aVimpolit
p453
aVtequila
p454
aVrandom
p455
aVpenanc
p456
aVcorp
p457
aVulcer
p458
aVqueer
p459
aVlethal
p460
aVnephew
p461
aVenviron
p462
aVthermomet
p463
aVhockey
p464
aVinvolv
p465
aVdespit
p466
aVbind
p467
aVacquir
p468
aVspite
p469
aVpledg
p470
aVvatican
p471
aVexplain
p472
aVocd
p473
aVsugar
p474
aVyea
p475
aVbusi
p476
aVdisgust
p477
aVdo
p478
aVnegotiat
p479
aVdj
p480
aVintersect
p481
aVhungov
p482
aVblur
p483
aVstop
p484
aVcompli
p485
aVceil
p486
aVgeek
p487
aVterritor
p488
aVgiggl
p489
aVdx
p490
aVnew
p491
aVsmug
p492
aVreconstruct
p493
aVconglom
p494
aVdr
p495
aVhall
p496
aVearn
p497
aVbar
p498
aVdiabet
p499
aVqueenli
p500
aVchoru
p501
aVsandwich
p502
aVinciden
p503
aVtwice
p504
aVbad
p505
aVeverybod
p506
aVtold
p507
aVsteal
p508
aVstammer
p509
aVdiplom
p510
aVrespond
p511
aVvictim
p512
aVliquor
p513
aVgenit
p514
aVlight
p515
aVnun
p516
aVresult
p517
aVrespons
p518
aVfail
p519
aVchristian
p520
aVbest
p521
aVawar
p522
aVsaid
p523
aVsorta
p524
aVaway
p525
aVreevaluat
p526
aVfigur
p527
aVregga
p528
aVoutstand
p529
aVfinger
p530
aVmum
p531
aVapproach
p532
aVattribut
p533
aVthyroid
p534
aVwe
p535
aVmen
p536
aVwa
p537
aVweak
p538
aVvitamin
p539
aVclergi
p540
aVboss
p541
aVlazi
p542
aVstepmot
p543
aVflexib
p544
aVintox
p545
aVcousin
p546
aVadvertis
p547
aVdebt
p548
aVroller
p549
aVkitchen
p550
aVprotect
p551
aVscien
p552
aVinnocen
p553
aVhowev
p554
aVcoz
p555
aVmovement
p556
aVagainst
p557
aVpiti
p558
aVconcentrat
p559
aVlogic
p560
aVconstipat
p561
aVassur
p562
aVtough
p563
aVkinderg
p564
aVvain
p565
aVheight
p566
aVdarlin
p567
aVparadis
p568
aVtrust
p569
aVassum
p570
aVspeak
p571
aVpleasur
p572
aVrecur
p573
aVfri
p574
aVhypoth
p575
aVthree
p576
aVbeen
p577
aVrevenu
p578
aVbeer
p579
aVpetti
p580
aVinterpret
p581
aVinterest
p582
aVbasic
p583
aVvariab
p584
aVtallest
p585
aVfeedback
p586
aVtini
p587
aVthrew
p588
aVlife
p589
aVimplica
p590
aVloft
p591
aVspit
p592
aVdizz
p593
aVsuppress
p594
aVworker
p595
aVbladder
p596
aVanywher
p597
aVdividend
p598
aVfuzz
p599
aVchild
p600
aVcatch
p601
aVovertak
p602
aVcunt
p603
aVchill
p604
aVphysician
p605
aVeast
p606
aVreddish
p607
aVsculpt
p608
aVliabilit
p609
aVservic
p610
aVspender
p611
aVair
p612
aVemploy
p613
aVdept
p614
aVnear
p615
aVmarriag
p616
aVaid
p617
aVvagu
p618
aVfuriou
p619
aVgarag
p620
aVcoher
p621
aVis
p622
aVir
p623
aVit
p624
aViv
p625
aVshame
p626
aVcant
p627
aVerect
p628
aVim
p629
aVexterior
p630
aVin
p631
aVid
p632
aVsever
p633
aVif
p634
aVgrown
p635
aVbelli
p636
aVreceiv
p637
aVsuggest
p638
aVmake
p639
aVtoaster
p640
aVwound
p641
aVforehead
p642
aVpassov
p643
aVcomplex
p644
aVherp
p645
aVbig
p646
aVdeceas
p647
aVfreeness
p648
aVfragil
p649
aVevid
p650
aVswell
p651
aVsocial
p652
aVhang
p653
aVevil
p654
aVhand
p655
aVfairli
p656
aVmethodi
p657
aVstepkid
p658
aVwheez
p659
aVsupper
p660
aVhe'll
p661
aVkid
p662
aVbutter
p663
aVkept
p664
aVundesir
p665
aVthu
p666
aVroommat
p667
aVinherit
p668
aVtho
p669
aVcontact
p670
aVgreatest
p671
aVthi
p672
aVmother
p673
aVdrie
p674
aVbiz
p675
aVeveryth
p676
aVcampu
p677
aVdoghous
p678
aVleft
p679
aVthankf
p680
aVshe'll
p681
aVjust
p682
aVyen
p683
aVkron
p684
aVlaptop
p685
aVtorah
p686
aVpsych
p687
aVfarther
p688
aVhuman
p689
aVyep
p690
aVyet
p691
aVlanguag
p692
aVenlighten
p693
aVcontingen
p694
aVshiit
p695
aVeasi
p696
aVhad
p697
aVsensat
p698
aVreluctan
p699
aVma'am
p700
aVathlet
p701
aVexgirl
p702
aVzillion
p703
aVels
p704
aVhar
p705
aVsave
p706
aVgave
p707
aVapplic
p708
aVcoron
p709
aVmayb
p710
aVdonat
p711
aVvaniti
p712
aVmocker
p713
aVbirth
p714
aVgod'
p715
aVrumor
p716
aVapart
p717
aVshoulder
p718
aVbro
p719
aVnudi
p720
aVnude
p721
aVhunt
p722
aVnegat
p723
aVstroke
p724
aVxbox
p725
aVnight
p726
aVamor
p727
aVright
p728
aVold
p729
aVcrowd
p730
aVflatter
p731
aVinterv
p732
aVdeaf
p733
aVsomehow
p734
aVdead
p735
aVborn
p736
aVintern
p737
aVadver
p738
aVdear
p739
aVprick
p740
aVbore
p741
aVsaliv
p742
aVginorm
p743
aVmammogram
p744
aVhumor
p745
aVfor
p746
aVbottom
p747
aVnormal
p748
aVzoloft
p749
aVfoe
p750
aVsubdu
p751
aVovercom
p752
aVumm
p753
aVnobod
p754
aVmooch
p755
aVdrink
p756
aVcitizen'
p757
aVholiday
p758
aVplu
p759
aVbold
p760
aVinsecur
p761
aVstepp
p762
aVburi
p763
aVdiscount
p764
aVcolleg
p765
aVstutter
p766
aVpost
p767
aVsuper
p768
aVspoke
p769
aVwept
p770
aVdiner
p771
aVobe
p772
aVrecollect
p773
aVgentlem
p774
aVgentler
p775
aVfestiv
p776
aVdinner
p777
aVdespair
p778
aVafternoon
p779
aVcherish
p780
aVcommit
p781
aVbandag
p782
aVproduc
p783
aVaccepta
p784
aVcapacit
p785
aVtelephon
p786
aVfroze
p787
aVod
p788
aVmailroom
p789
aVbound
p790
aVson
p791
aVdown
p792
aVunwelcom
p793
aVcoffe
p794
aVdean
p795
aVforgav
p796
aVmicrowav
p797
aVdeal
p798
aVfrustrat
p799
aVsupport
p800
aVsinn
p801
aVhappi
p802
aVstuck
p803
aVfought
p804
aVway
p805
aVspring
p806
aVconstantli
p807
aVwar
p808
aVfizz
p809
aVheadach
p810
aVhead
p811
aVveil
p812
aVform
p813
aVoffer
p814
aValtogeth
p815
aVcrown
p816
aVheal
p817
aVsickest
p818
aVwhat'
p819
aVmaddest
p820
aVhear
p821
aVuter
p822
aVoffen
p823
aVtrue
p824
aVbasketbal
p825
aVabsent
p826
aVthrow
p827
aVflavour
p828
aVfriday
p829
aVinquir
p830
aVtype
p831
aVpositiv
p832
aVmtv
p833
aVbargain
p834
aVoptometr
p835
aVtell
p836
aVwhiskey
p837
aVfundament
p838
aVpalm
p839
aVmanicdep
p840
aVlsat
p841
aVtemper
p842
aVinterrup
p843
aVlater
p844
aVforearm
p845
aVupset
p846
aVmuscular
p847
aVsale
p848
aVgland
p849
aVglanc
p850
aVfuri
p851
aVdoor
p852
aVinact
p853
aVshit
p854
aVassembl
p855
aVrough
p856
aVno
p857
aVtit
p858
aVpuss
p859
aVexcel
p860
aVdeni
p861
aVactor
p862
aVtil
p863
aVshrine
p864
aVrole
p865
aVvicodin
p866
aVfragran
p867
aVgenocid
p868
aVpresum
p869
aVhangin
p870
aVsmell
p871
aVrealiti
p872
aVintend
p873
aVo'clock
p874
aVdevot
p875
aVfelt
p876
aVcoronar
p877
aVdiet
p878
aVmissionar
p879
aVfell
p880
aVintent
p881
aVnotic
p882
aVconsid
p883
aVdetox
p884
aVweekend
p885
aVscholar
p886
aVbillion
p887
aVfemal
p888
aVsociet
p889
aVfaster
p890
aVuhhu
p891
aVconsequen
p892
aVwithhold
p893
aVloyal
p894
aVignor
p895
aVsickleav
p896
aVgonorrhea
p897
aVteeth
p898
aVpush
p899
aVserious
p900
aVbackward
p901
aVinc
p902
aVpiou
p903
aVloveseat
p904
aVbreadth
p905
aVcoach
p906
aVclassmat
p907
aVcorps
p908
aVglobal
p909
aVhorseback
p910
aVsignific
p911
aVmile
p912
aVskin
p913
aVmilk
p914
aVdiscern
p915
aVdecid
p916
aVmiddl
p917
aVdepend
p918
aVhump
p919
aVapril
p920
aVfather
p921
aVprom
p922
aVrhetor
p923
aVlibid
p924
aVchaplain
p925
aVrhythm
p926
aVterror
p927
aVchequ
p928
aVstove
p929
aVagreeab
p930
aVbrown
p931
aVsourc
p932
aVnerv
p933
aVjerk
p934
aVsouri
p935
aVevangel
p936
aVnone
p937
aVhardwork
p938
aVmourn
p939
aVlynch
p940
aVunne
p941
aVchild'
p942
aVcook
p943
aVword
p944
aVexact
p945
aVwore
p946
aVhour
p947
aVlevel
p948
aVdid
p949
aVdie
p950
aVreconcil
p951
aVbrother
p952
aVgum
p953
aVitem
p954
aVicu
p955
aVharmon
p956
aVteam
p957
aVquick
p958
aVguy
p959
aVmecca
p960
aVround
p961
aVyall
p962
aVit'll
p963
aVcetera
p964
aVprevent
p965
aVknowab
p966
aVbrave
p967
aVregret
p968
aVporn
p969
aVorwhatev
p970
aVsigh
p971
aVsign
p972
aVparali
p973
aVthinker
p974
aVasham
p975
aVtalker
p976
aVunprotect
p977
aVparticipat
p978
aVhelpless
p979
aVbake
p980
aVfear
p981
aVcinema
p982
aVrapist
p983
aVmortal
p984
aVappear
p985
aVcurrenc
p986
aVrepli
p987
aVmedal
p988
aVfavour
p989
aVcathol
p990
aVcurrent
p991
aVsuspect
p992
aVpessimi
p993
aVkilomet
p994
aVden
p995
aVlongitud
p996
aVhonour
p997
aVgener
p998
aVfootbal
p999
aVbi
p1000
aVwater
p1001
aVentertain
p1002
aVwitch
p1003
aVaddress
p1004
aVhadn't
p1005
aValong
p1006
aVwait
p1007
aVboy
p1008
aVinevitab
p1009
aVroot
p1010
aVrethink
p1011
aVodour
p1012
aVanxi
p1013
aVprude
p1014
aVextrem
p1015
aVweird
p1016
aVhere'
p1017
aVpillow
p1018
aVourselv
p1019
aVlove
p1020
aVneed'nt
p1021
aVhumour
p1022
aVextra
p1023
aVevaluat
p1024
aVprefer
p1025
aVvodka
p1026
aVupstair
p1027
aVleav
p1028
aVfake
p1029
aVinstan
p1030
aVmarket
p1031
aVbloodi
p1032
aVwealth
p1033
aVhomesick
p1034
aVflunk
p1035
aVvisit
p1036
aVapprent
p1037
aVenclo
p1038
aVlive
p1039
aVbook
p1040
aVsatan
p1041
aVthru
p1042
aVtoday
p1043
aVaspirin
p1044
aVdismay
p1045
aVadvi
p1046
aVclub
p1047
aVpeopl
p1048
aVrefrain
p1049
aVfuton
p1050
aVballet
p1051
aVappendix
p1052
aVrigid
p1053
aVexamin
p1054
aVeffort
p1055
aVvirtuo
p1056
aVcar
p1057
aVjuda
p1058
aVnetflix
p1059
aVbattl
p1060
aVuniqu
p1061
aVcau
p1062
aVfli
p1063
aVwanker
p1064
aVsour
p1065
aVwhatev
p1066
aVcitru
p1067
aVpurpos
p1068
aVcaf
p1069
aVvigor
p1070
aVglaucoma
p1071
aVfabul
p1072
aVhears
p1073
aVdidn't
p1074
aVfuck
p1075
aVmover
p1076
aVexerci
p1077
aVheard
p1078
aVcritic
p1079
aVabort
p1080
aVsurround
p1081
aVma'
p1082
aVsharp
p1083
aVspa
p1084
aVunfortun
p1085
aVcardio
p1086
aVstroki
p1087
aVpink
p1088
aVwinter
p1089
aVsavor
p1090
aVreimbur
p1091
aVdefen
p1092
aVwrite
p1093
aVtill
p1094
aVsunday
p1095
aVvital
p1096
aVanyon
p1097
aVpure
p1098
aVmonast
p1099
aVmap
p1100
aVjazz
p1101
aVcocktail
p1102
aVmay
p1103
aVuse
p1104
aVaok
p1105
aVspou
p1106
aVcritici
p1107
aVcours
p1108
aVmad
p1109
aVdate
p1110
aVsuch
p1111
aVsuck
p1112
aVpeni
p1113
aVmam
p1114
aVweightlift
p1115
aVman
p1116
aVclassroom
p1117
aVirrita
p1118
aVstress
p1119
aVtwitch
p1120
aVunsettl
p1121
aVpractic
p1122
aVgrandson
p1123
aVimpatien
p1124
aVprostat
p1125
aVgoal
p1126
aVsecur
p1127
aVexplicit
p1128
aVinform
p1129
aVsi
p1130
aVpungen
p1131
aVso
p1132
aVdeposit
p1133
aVswollen
p1134
aVoffend
p1135
aVtall
p1136
aVtalk
p1137
aVirrat
p1138
aVrefund
p1139
aVcute
p1140
aVhungr
p1141
aVbirdi
p1142
aVblocker
p1143
aVapprov
p1144
aVcuti
p1145
aVcelebrit
p1146
aVbrain
p1147
aVyearn
p1148
aVsob
p1149
aVphotocop
p1150
aVshake
p1151
aVcold
p1152
aVstill
p1153
aVmom'
p1154
aVworship
p1155
aVdynam
p1156
aVgroup
p1157
aVthank
p1158
aVpolici
p1159
aVcomic
p1160
aVhoho
p1161
aVhe'd
p1162
aVplatform
p1163
aVwindow
p1164
aVmonopol
p1165
aVmail
p1166
aVmediocr
p1167
aVmain
p1168
aVtruest
p1169
aVrecal
p1170
aVhalt
p1171
aVkrishna
p1172
aVinsomnia
p1173
aViniti
p1174
aVnation
p1175
aVunderneath
p1176
aVmoron
p1177
aVstepfat
p1178
aVhalf
p1179
aVnot
p1180
aVkind_of
p1181
aVnow
p1182
aVdiscuss
p1183
aVnor
p1184
aVwont
p1185
aVterm
p1186
aVname
p1187
aVopera
p1188
aVdrop
p1189
aVdrow
p1190
aVmagazin
p1191
aVcareless
p1192
aVledg
p1193
aVrock
p1194
aVjanuari
p1195
aVquarter
p1196
aVmustn't
p1197
aVundergrad
p1198
aVreplac
p1199
aVindividu
p1200
aVcontinu
p1201
aVbodi
p1202
aVmen'
p1203
aVex
p1204
aVbegun
p1205
aVyear
p1206
aVresourc
p1207
aVhappen
p1208
aVuhuh
p1209
aVlesson
p1210
aVtoefl
p1211
aVaccomplish
p1212
aVspace
p1213
aVprofit
p1214
aVspaci
p1215
aVthirst
p1216
aVdifferentiat
p1217
aVtrauma
p1218
aVshouldn't
p1219
aVecsta
p1220
aVuncl
p1221
aVcorrect
p1222
aVromanc
p1223
aVunfriendli
p1224
aVdiseas
p1225
aVlandlord
p1226
aVstate
p1227
aVquran
p1228
aVholocaust
p1229
aVdomest
p1230
aVmillion
p1231
aVargu
p1232
aVargh
p1233
aVdeoder
p1234
aVrebel
p1235
aVromant
p1236
aVapath
p1237
aVcough
p1238
aVgrab
p1239
aVquitt
p1240
aVcare
p1241
aVreflect
p1242
aVlaidoff
p1243
aVdepartur
p1244
aVdunno
p1245
aVdiagno
p1246
aVhonest
p1247
aVmotion
p1248
aVturn
p1249
aVthine
p1250
aVyum
p1251
aVthinn
p1252
aVmargin
p1253
aVnonprofit
p1254
aVtruer
p1255
aVneglect
p1256
aVfrequent
p1257
aVfirst
p1258
aVorigin
p1259
aVappeti
p1260
aVdirectli
p1261
aVcarri
p1262
aVquestion
p1263
aVdistan
p1264
aVone
p1265
aVacquisit
p1266
aVpizza
p1267
aVshout
p1268
aVfast
p1269
aVring
p1270
aVdrove
p1271
aVopen
p1272
aVtomorrow
p1273
aVexpen
p1274
aVurin
p1275
aVgiven
p1276
aVafterthought
p1277
aVfieri
p1278
aVvirgin
p1279
aVcaught
p1280
aVslept
p1281
aVciti
p1282
aVchecker
p1283
aVinitiat
p1284
aVtragic
p1285
aVcircl
p1286
aVrenovat
p1287
aVwhite
p1288
aVfriend
p1289
aVrecess
p1290
aVhug
p1291
aVespeci
p1292
aVforeplay
p1293
aVseason
p1294
aVsurger
p1295
aVflatscreen
p1296
aVhuh
p1297
aVforward
p1298
aVmostli
p1299
aVbutt
p1300
aVthan
p1301
aVserv
p1302
aVwide
p1303
aVorgi
p1304
aVlmao
p1305
aVgotta
p1306
aVrecruit
p1307
aVrehab
p1308
aVremors
p1309
aVwere
p1310
aVposit
p1311
aVdeadlin
p1312
aVpsychol
p1313
aVmisund
p1314
aVseri
p1315
aVand
p1316
aVdelic
p1317
aVlick
p1318
aVangel
p1319
aVtherap
p1320
aVrectang
p1321
aVani
p1322
aVsad
p1323
aVanu
p1324
aVsay
p1325
aVrent
p1326
aVdeliv
p1327
aVanger
p1328
aVbreakfast
p1329
aVsaw
p1330
aVmarathon
p1331
aVsat
p1332
aVinhib
p1333
aVsquar
p1334
aVadvic
p1335
aVstrept
p1336
aVadvil
p1337
aVforc
p1338
aVideal
p1339
aVtake
p1340
aVinterior
p1341
aVdestroy
p1342
aVwonder
p1343
aVwetli
p1344
aVnoth
p1345
aVchannel
p1346
aVsect
p1347
aVtherefor
p1348
aVbegin
p1349
aVsure
p1350
aVpain
p1351
aVthirt
p1352
aVprici
p1353
aVmate'
p1354
aVunsuccess
p1355
aVprice
p1356
aVknew
p1357
aVode
p1358
aVpaid
p1359
aVassault
p1360
aVabus
p1361
aVknee
p1362
aVsoulmat
p1363
aVderma
p1364
aVtendon
p1365
aVpathet
p1366
aVdream
p1367
aVproud
p1368
aVdrive
p1369
aVdigni
p1370
aVtooth
p1371
aVkoran
p1372
aVmeanwhil
p1373
aVmelanchol
p1374
aVknuckl
p1375
aVmri
p1376
aVglutton
p1377
aVferoc
p1378
aVsenior
p1379
aVsalt
p1380
aVwidth
p1381
aVhomocid
p1382
aVshop
p1383
aVfranchi
p1384
aVjizz
p1385
aVshow
p1386
aVcheat
p1387
aVcornea
p1388
aVcheap
p1389
aVmerit
p1390
aVgoosebump
p1391
aVbright
p1392
aVshoe
p1393
aVcorner
p1394
aVsickday
p1395
aVground
p1396
aVaint
p1397
aVxray
p1398
aVonli
p1399
aVsnack
p1400
aVunkind
p1401
aVfenc
p1402
aVtransact
p1403
aVdick
p1404
aVactiv
p1405
aVbehind
p1406
aVstud
p1407
aVgulp
p1408
aVblack
p1409
aVjoll
p1410
aVuppermost
p1411
aVheartfelt
p1412
aVpresbyterian
p1413
aVgenero
p1414
aVnearli
p1415
aVvariou
p1416
aVget
p1417
aVagoniz
p1418
aVzen
p1419
aVmormon
p1420
aVbetween
p1421
aVramadan
p1422
aVtens
p1423
aVoughtn't
p1424
aVcannot
p1425
aVpercept
p1426
aVrequir
p1427
aVtruli
p1428
aVreveal
p1429
aVoverdos
p1430
aVartist
p1431
aVleather
p1432
aVhostil
p1433
aVleuk
p1434
aVyield
p1435
aVtriathl
p1436
aVstupid
p1437
aVnostril
p1438
aVwhere
p1439
aVhusband
p1440
aVy'all
p1441
aVcontag
p1442
aVconcert
p1443
aVlozeng
p1444
aVprobablist
p1445
aVhasn't
p1446
aVasleep
p1447
aVanali
p1448
aVreserv
p1449
aVrunner
p1450
aVunderpaid
p1451
aVconcern
p1452
aVinfinit
p1453
aVtelevis
p1454
aVreview
p1455
aVenough
p1456
aVbureau
p1457
aVdigest
p1458
aVman'
p1459
aVbimonth
p1460
aVislam
p1461
aVacross
p1462
aVfight
p1463
aVaugust
p1464
aVparent
p1465
aVmfg
p1466
aVfearless
p1467
aVscreen
p1468
aVpreach
p1469
aVguitar
p1470
aVcycl
p1471
aVcoma
p1472
aVcome
p1473
aVlawn
p1474
aVupperclass
p1475
aVprogno
p1476
aVmono
p1477
aVquiet
p1478
aVcelebrat
p1479
aVretir
p1480
aVmath
p1481
aVhobb
p1482
aVrugbi
p1483
aVmani
p1484
aVresiden
p1485
aVcan't
p1486
aVamong
p1487
aVcancer
p1488
aVcolor
p1489
aVinspir
p1490
aVperiod
p1491
aVnurtur
p1492
aVduti
p1493
aVjd
p1494
aVluckless
p1495
aVcouldn't
p1496
aVfucker
p1497
aVconstant
p1498
aVcolono
p1499
aVdamag
p1500
aVlaidback
p1501
aVcompanionship
p1502
aVcoupl
p1503
aVstretch
p1504
aVwest
p1505
aVhardli
p1506
aVsuicid
p1507
aVtheat
p1508
aVbreath
p1509
aVadministrat
p1510
aVfantasi
p1511
aVfollowup
p1512
aVindirect
p1513
aVrubl
p1514
aVthousand
p1515
aVprereq
p1516
aVtantrum
p1517
aVwake
p1518
aVtextbook
p1519
aVorthodon
p1520
aVstandup
p1521
aVunivers
p1522
aVformer
p1523
aVthose
p1524
aVsound
p1525
aVmyself
p1526
aVsoccer
p1527
aVthesi
p1528
aVthese
p1529
aVincomplet
p1530
aVtrick
p1531
aVsonofa
p1532
aVsemest
p1533
aVoutcom
p1534
aVheartbrok
p1535
aVreport
p1536
aVshopp
p1537
aVcock
p1538
aVactivat
p1539
aVjissom
p1540
aVive
p1541
aVanytim
p1542
aVperson'
p1543
aVadvantag
p1544
aVcemet
p1545
aVhenc
p1546
aVconvinc
p1547
aVmonk
p1548
aVerectil
p1549
aVstrain
p1550
aVsudden
p1551
aVblam
p1552
aVcontract
p1553
aVoutrag
p1554
aVeveryday
p1555
aVpap
p1556
aVpelvi
p1557
aVhyperten
p1558
aVritalin
p1559
aVprojector
p1560
aVtrivi
p1561
aVpay
p1562
aVmedic
p1563
aVcubicl
p1564
aVsame
p1565
aVtrip
p1566
aVfood
p1567
aVheartbreak
p1568
aVspeech
p1569
aVsucker
p1570
aVeventu
p1571
aVpal
p1572
aVworkout
p1573
aVweek
p1574
aVexhaust
p1575
aVoil
p1576
aVclosest
p1577
aVsomeon
p1578
aVcompanion
p1579
aVdriven
p1580
aVfruit
p1581
aVimprov
p1582
aVtheyll
p1583
aVweep
p1584
aVcontemplat
p1585
aVhandsom
p1586
aVmidterm
p1587
aVjesu
p1588
aVreliev
p1589
aVinvariab
p1590
aVhubbi
p1591
aVwithout
p1592
aVrelief
p1593
aVpa'
p1594
aVreward
p1595
aVoranyth
p1596
aVscholarship
p1597
aVsummer
p1598
aVbeaut
p1599
aVhemor
p1600
aVtaxa
p1601
aVfume
p1602
aVrest
p1603
aVviolent
p1604
aVkill
p1605
aVabrupt
p1606
aVtouch
p1607
aVflavor
p1608
aVspeed
p1609
aVversu
p1610
aVdeath
p1611
aVasthma
p1612
aVdelectabl
p1613
aVtrigger
p1614
aVexcept
p1615
aVlittl
p1616
aVidentif
p1617
aVfuner
p1618
aVirrespons
p1619
aVscrapbook
p1620
aVyouknow
p1621
aVpill
p1622
aVskier
p1623
aVreal
p1624
aVsupposit
p1625
aVspann
p1626
aVzion
p1627
aVaround
p1628
aVstunk
p1629
aVchoic
p1630
aVread
p1631
aVmop
p1632
aVladi
p1633
aVgonna
p1634
aVbalcon
p1635
aVtest
p1636
aVdarn
p1637
aVmom
p1638
aVvacuum
p1639
aVmob
p1640
aVcd
p1641
aVamu
p1642
aVgrim
p1643
aVgrin
p1644
aVdivorc
p1645
aVyearli
p1646
aVenerg
p1647
aVintel
p1648
aVlet'
p1649
aVkegger
p1650
aVpetrif
p1651
aVbenefit
p1652
aVwoman'
p1653
aVeither
p1654
aVprejud
p1655
aVcolon
p1656
aVdownward
p1657
aVtart
p1658
aVstriv
p1659
aVmanag
p1660
aVauditorium
p1661
aVfulfil
p1662
aVmall
p1663
aVmuscl
p1664
aVweek'
p1665
aVibuprofen
p1666
aVelegan
p1667
aVlotta
p1668
aVfreer
p1669
aVnoon
p1670
aVdefinit
p1671
aVlegal
p1672
aVthroat
p1673
aVexit
p1674
aVyakn
p1675
aVproficien
p1676
aVfreeb
p1677
aVfreed
p1678
aVcologn
p1679
aVimmun
p1680
aVpew
p1681
aVpower
p1682
aVoptimi
p1683
aVration
p1684
aVbroker
p1685
aVslaughter
p1686
aVhormon
p1687
aVclarif
p1688
aVaversi
p1689
aVcompulsiv
p1690
aVon
p1691
aVjeez
p1692
aVbereav
p1693
aVok
p1694
aVace
p1695
aVoh
p1696
aVof
p1697
aVach
p1698
aVacn
p1699
aVslender
p1700
aVchoo
p1701
aVjourney
p1702
aVintramur
p1703
aVstand
p1704
aVneighbor
p1705
aVchow
p1706
aVstank
p1707
aVluck
p1708
aVor
p1709
aVroad
p1710
aVcheckup
p1711
aVelementari
p1712
aVyoud
p1713
aVsurviv
p1714
aVspinal
p1715
aVdetermina
p1716
aVexpuls
p1717
aVmight'v
p1718
aVyouv
p1719
aVnurs
p1720
aVquiz
p1721
aVyour
p1722
aVstare
p1723
aVgobbl
p1724
aVcomplianc
p1725
aVher
p1726
aVunhealth
p1727
aVthere
p1728
aVhey
p1729
aVlol
p1730
aVhed
p1731
aVmadder
p1732
aVstarv
p1733
aVtheolog
p1734
aVlow
p1735
aVlot
p1736
aVlou
p1737
aVbesid
p1738
aVheh
p1739
aVenorm
p1740
aVyah
p1741
aVoverpaid
p1742
aVshower
p1743
aVsyphili
p1744
aVconclud
p1745
aVpitcher
p1746
aVimpossib
p1747
aVpregnan
p1748
aVfundamentali
p1749
aVspici
p1750
aVmust'nt
p1751
aVmotherli
p1752
aVspice
p1753
aVgynecolog
p1754
aVludicr
p1755
aVtripl
p1756
aVcurtail
p1757
aVrage
p1758
aVwasn't
p1759
aVflirt
p1760
aVhe'
p1761
aVcommerc
p1762
aVgrouch
p1763
aVage
p1764
aVpuls
p1765
aVconnect
p1766
aVgone
p1767
aVab
p1768
aVfright
p1769
aVirrefu
p1770
aVsplend
p1771
aVcertain
p1772
aVam
p1773
aVdeep
p1774
aVfellow
p1775
aVas
p1776
aVat
p1777
aVaw
p1778
aVcultur
p1779
aVgirlfriend
p1780
aVtranquil
p1781
aVrearrang
p1782
aVnerd
p1783
aVfilm
p1784
aVcream
p1785
aVagain
p1786
aVhasnt
p1787
aVyoga
p1788
aVgoddam
p1789
aVpappi
p1790
aVidiot
p1791
aVcompel
p1792
aVgreen
p1793
aVdoa
p1794
aVtight
p1795
aVreconsid
p1796
aVcompet
p1797
aVkrisna
p1798
aVfacult
p1799
aVyou
p1800
aVpoor
p1801
aVpoop
p1802
aVoneself
p1803
aVxanax
p1804
aVappreciat
p1805
aVorg
p1806
aVtime
p1807
aVdrift
p1808
aVregistra
p1809
aVfetid
p1810
aVtentativ
p1811
aVmuhamm
p1812
aVpeac
p1813
aVpool
p1814
aVridden
p1815
aVoriginat
p1816
aVwife
p1817
aVinvest
p1818
aVinjur
p1819
aVmass
p1820
aVpotenti
p1821
aVgod
p1822
aValright
p1823
aVcasualt
p1824
aVdegrad
p1825
aVmotel
p1826
aVall
p1827
aVliar
p1828
aVconsider
p1829
aVvile
p1830
aVson'
p1831
aVmessi
p1832
aVseparat
p1833
aVschizophren
p1834
aVlack
p1835
aVdollar
p1836
aVhypotherm
p1837
aVmonth
p1838
aVdotcom
p1839
aVcurricul
p1840
aVdish
p1841
aVfollow
p1842
aVchildren
p1843
aVduplex
p1844
aVobedien
p1845
aVresum
p1846
aVthursday
p1847
aVspirit
p1848
aVto
p1849
aVprogram
p1850
aVgyno
p1851
aVfax
p1852
aVwoman
p1853
aVdiari
p1854
aVinterf
p1855
aVsong
p1856
aVfar
p1857
aVunlikel
p1858
aVfat
p1859
aVnovel
p1860
aVworst
p1861
aVverg
p1862
aVfall
p1863
aVveri
p1864
aVhumiliat
p1865
aVticket
p1866
aVstrang
p1867
aVdiarr
p1868
aVheaven
p1869
aVcolleagu
p1870
aVsang
p1871
aVmotherf
p1872
aVadjust
p1873
aVprohib
p1874
aVsmall
p1875
aVtear
p1876
aVanal
p1877
aVburp
p1878
aVi'll
p1879
aVwithheld
p1880
aVten
p1881
aVtea
p1882
aVcash
p1883
aVpast
p1884
aVorgasm
p1885
aVzero
p1886
aVpressur
p1887
aVlawyer
p1888
aVthoust
p1889
aVcomplica
p1890
aVhealer
p1891
aVcasual
p1892
aVexcit
p1893
aVchalk
p1894
aVmustv
p1895
aVstood
p1896
aVclock
p1897
aVskeptic
p1898
aVsection
p1899
aVwhiff
p1900
aVabl
p1901
aVbrief
p1902
aVcrush
p1903
aVversion
p1904
aVsweetli
p1905
aVkindof
p1906
aVmasochi
p1907
aVrow
p1908
aVpublic
p1909
aVwomb
p1910
aVturmoil
p1911
aVfull
p1912
aVthemselv
p1913
aVhalfass
p1914
aVshouldv
p1915
aVfratern
p1916
aVscriptur
p1917
aVbenef
p1918
aVimmort
p1919
aVstrong
p1920
aVvalu
p1921
aVunderstandab
p1922
aVembezzl
p1923
aVtingl
p1924
aVahead
p1925
aVindetermin
p1926
aVwhine
p1927
aVreason
p1928
aVbrutal
p1929
aVbapti
p1930
aVprior
p1931
aVamount
p1932
aVarent
p1933
aVtwent
p1934
aVaction
p1935
aVsociab
p1936
aVnarrow
p1937
aVburnout
p1938
aVdepart
p1939
aVput
p1940
aVqur'an
p1941
aVcalculu
p1942
aVfamili
p1943
aVdemis
p1944
aVactress
p1945
aVmemor
p1946
aVselect
p1947
aVthatll
p1948
aVaggress
p1949
aVcasket
p1950
aVeye
p1951
aVproceed
p1952
aVmohamm
p1953
aVdistinct
p1954
aVlady'
p1955
aVfaint
p1956
aVregist
p1957
aVtwo
p1958
aVcoverag
p1959
aVmorn
p1960
aVtaken
p1961
aVbasi
p1962
aVmore
p1963
aVhurra
p1964
aVdesir
p1965
aVwelfar
p1966
aVcategor
p1967
aVhundr
p1968
aVhurri
p1969
aVpreciou
p1970
aVchuckl
p1971
aVain't
p1972
aVbroke
p1973
aVknown
p1974
aVwho'll
p1975
aVcompani
p1976
aVdoom
p1977
aVglad
p1978
aVlotsa
p1979
aVvp
p1980
aVacquainta
p1981
aVvaluabl
p1982
aVhous
p1983
aVoutlin
p1984
aVmagnif
p1985
aVremain
p1986
aVnine
p1987
aVsucki
p1988
aVlearn
p1989
aVabandon
p1990
aVmale
p1991
aVpick
p1992
aVstubborn
p1993
aVritual
p1994
aVscan
p1995
aVchalleng
p1996
aVscab
p1997
aVshare
p1998
aVaccept
p1999
aVautumn
p2000
aVattain
p2001
aVexplor
p2002
aVincom
p2003
aVnippl
p2004
aVobstac
p2005
aVmortg
p2006
aVantidepress
p2007
aVcholest
p2008
aVhuge
p2009
aVhugg
p2010
aVcongest
p2011
aVawkward
p2012
aVflawless
p2013
aVrather
p2014
aVanoth
p2015
aVcomfort
p2016
aVdivin
p2017
aVcuddl
p2018
aVreject
p2019
aVneedi
p2020
aVsimpl
p2021
aVtuition
p2022
aVunabl
p2023
aVbiweek
p2024
aVrug
p2025
aVshouldnt
p2026
aVokay
p2027
aVstartl
p2028
aVrude
p2029
aVembalm
p2030
aVsceptic
p2031
aVtestament
p2032
aVblood
p2033
aVnumb
p2034
aVbackyard
p2035
aVa
p2036
aVincapab
p2037
aVunrelat
p2038
aVshort
p2039
aVmitzvah
p2040
aVthat'd
p2041
aVloud
p2042
aVdoctor
p2043
aVdrumm
p2044
aVmeditat
p2045
aVambigu
p2046
aVdread
p2047
aVgrandf
p2048
aVcaut
p2049
aVdissertat
p2050
aVstocker
p2051
aVegg
p2052
aVgrandm
p2053
aVpatio
p2054
aVinfant
p2055
aVhelp
p2056
aVdon't
p2057
aVitd
p2058
aVsooo
p2059
aVsoon
p2060
aVtrade
p2061
aVheld
p2062
aVisnt
p2063
aVpaper
p2064
aVthrough
p2065
aVerot
p2066
aVhell
p2067
aVsuffer
p2068
aVmale'
p2069
aValla
p2070
aVpray
p2071
aVsumptuou
p2072
aVmattress
p2073
aVlate
p2074
aVharmless
p2075
aVpenc
p2076
aVprai
p2077
aVdelici
p2078
aVcool
p2079
aVmight
p2080
aVhaven't
p2081
aVfool
p2082
aVgood
p2083
aVreturn
p2084
aVarsehol
p2085
aVya
p2086
aVit'
p2087
aVye
p2088
aVfrisbe
p2089
aVborrow
p2090
aVhik
p2091
aVvomit
p2092
aVchick'
p2093
aVrupe
p2094
aVfoot
p2095
aVwouldv
p2096
aVadventur
p2097
aVcomplain
p2098
aVbigger
p2099
aVinfallib
p2100
aVundersid
p2101
aVstopper
p2102
aVmujahid
p2103
aVstink
p2104
aVbless
p2105
aVeasili
p2106
aVachiev
p2107
aVradian
p2108
aVmastercard
p2109
aVanybod
p2110
aVceas
p2111
aVfound
p2112
aVuniversit
p2113
aVisn't
p2114
aVplaystat
p2115
aVheadhunt
p2116
aVharm
p2117
aVcost
p2118
aVrestless
p2119
aVweight
p2120
aVfish
p2121
aVhard
p2122
aVidea
p2123
aVterrifi
p2124
aVrealli
p2125
aVheavi
p2126
aVfinish
p2127
aVexpect
p2128
aVbath
p2129
aVbeyond
p2130
aVevent
p2131
aVsuperb
p2132
aVagitat
p2133
aVvertigo
p2134
aValcohol
p2135
aVsuprem
p2136
aVpublish
p2137
aVresearch
p2138
aVhealth
p2139
aVthey'll
p2140
aVought'nt
p2141
aVass
p2142
aVqualifi
p2143
aVgorgeou
p2144
aVyuan
p2145
aVbelief
p2146
aVpuk
p2147
aVankl
p2148
aVgut
p2149
aVguess
p2150
aVcommitt
p2151
aVcollab
p2152
aVpleasant
p2153
aVmum'
p2154
aVbase
p2155
aVbeliev
p2156
aVtiniest
p2157
aVask
p2158
aVteach
p2159
aVkopek
p2160
aVmarri
p2161
aVbash
p2162
aVrevigor
p2163
aVdirector
p2164
aVbenefitt
p2165
aVexplanat
p2166
aVlaunch
p2167
aVneurolog
p2168
aVsicker
p2169
aVfarsight
p2170
aVstruggl
p2171
aVsicken
p2172
aVperhap
p2173
aVthreat
p2174
aVhunger
p2175
aVfallen
p2176
aVassign
p2177
aVoppo
p2178
aVfeed
p2179
aVmajor
p2180
aVmisl
p2181
aVdont
p2182
aVobviou
p2183
aVupper
p2184
aVfeel
p2185
aVexchang
p2186
aVfeeder
p2187
aVfeet
p2188
aVdone
p2189
aVohwel
p2190
aVeducat
p2191
aVwager
p2192
aVmiss
p2193
aVdiffer
p2194
aVpainf
p2195
aVguest
p2196
aVpainl
p2197
aVinteract
p2198
aVgpa
p2199
aVleast
p2200
aVstori
p2201
aVstatement
p2202
aVcorporat
p2203
aVmaster
p2204
aVstore
p2205
aVnearsight
p2206
aVoption
p2207
aVrelationship
p2208
aVbowel
p2209
aVhotel
p2210
aVpark
p2211
aVasshol
p2212
aVtivo
p2213
aVgraci
p2214
aVdentist
p2215
aVpart
p2216
aVprece
p2217
aVconsult
p2218
aVinduc
p2219
aVgrace
p2220
aVstd
p2221
aVking
p2222
aVkind
p2223
aVgrew
p2224
aVwhenev
p2225
aVremot
p2226
aVgotten
p2227
aVremov
p2228
aVneural
p2229
aVsatisf
p2230
aVgrey
p2231
aVhorizont
p2232
aVyouth
p2233
aVi
p2234
aVovertim
p2235
aVkindli
p2236
aVvocat
p2237
aVdang
p2238
aVtoward
p2239
aVdanc
p2240
aVcolour
p2241
aVcomput
p2242
aVzz
p2243
aVcomrad
p2244
aVsaccharin
p2245
aVwasnt
p2246
aVlibrar
p2247
aVdefect
p2248
aVwaft
p2249
aVcaress
p2250
aVsport
p2251
aVblond
p2252
aVmorgu
p2253
aVremodel
p2254
aVsell
p2255
aVlie
p2256
aVadvanc
p2257
aVrevelat
p2258
aVdinar
p2259
aVcheck
p2260
aVself
p2261
aVviolat
p2262
aVstapl
p2263
aVlit
p2264
aValso
p2265
aVlabour
p2266
aVlip
p2267
aVuseless
p2268
aVschedul
p2269
aVhymn
p2270
aVplay
p2271
aVunsur
p2272
aVblackboard
p2273
aVnasal
p2274
aVreact
p2275
aVmost
p2276
aVcharm
p2277
aVplan
p2278
aVeaten
p2279
aVwive
p2280
aVpediatr
p2281
aVamaz
p2282
aVexe
p2283
aVarter
p2284
aVclear
p2285
aVdestruct
p2286
aVtongu
p2287
aVweigh
p2288
aVlatest
p2289
aVawesom
p2290
aVsector
p2291
aVugh
p2292
aVgolf
p2293
aVridicul
p2294
aVugl
p2295
aVemail'
p2296
aVfond
p2297
aVtaller
p2298
aVefficien
p2299
aVsilen
p2300
aVsession
p2301
aVscrabbl
p2302
aVhesita
p2303
aVweari
p2304
aVfine
p2305
aVfind
p2306
aVblender
p2307
aVquea
p2308
aVupdat
p2309
aVgiant
p2310
aVexecut
p2311
aVpretti
p2312
aVmerger
p2313
aVruin
p2314
aVhope
p2315
aVsolut
p2316
aVball
p2317
aVviagra
p2318
aVquer
p2319
aVcondom
p2320
aVmoney
p2321
aVministr
p2322
aVhip
p2323
aVweve
p2324
aVhit
p2325
aVhiv
p2326
aVthey'r
p2327
aVbambino
p2328
aVexpress
p2329
aVepidem
p2330
aVresent
p2331
aVthey'd
p2332
aVexboyfriend
p2333
aVbreast
p2334
aVcompass
p2335
aVambiti
p2336
aVcould'v
p2337
aVsunni
p2338
aVhim
p2339
aVmfr
p2340
aVenemi
p2341
aVcaramel
p2342
aVcommon
p2343
aVperfum
p2344
aVenema
p2345
aVgospel
p2346
aVcri
p2347
aVwrote
p2348
aVcertif
p2349
aVcramp
p2350
aVars
p2351
aVart
p2352
aVdump
p2353
aVoverwhelm
p2354
aVjade
p2355
aVstartup
p2356
aVsex
p2357
aVsee
p2358
aVdumb
p2359
aVare
p2360
aVovereat
p2361
aVtender
p2362
aVdisadvantag
p2363
aVarm
p2364
aVrestau
p2365
aVmerci
p2366
aVsometh
p2367
aVleg
p2368
aVparticip
p2369
aVdissatisf
p2370
aVgrocer
p2371
aVwon
p2372
aVwoe
p2373
aVdistraught
p2374
aVrite
p2375
aVexperi
p2376
aVnope
p2377
aVcompliment
p2378
aVpiss
p2379
aVbibl
p2380
aVkeyboard
p2381
aVsold
p2382
aVmailbox
p2383
aVbridl
p2384
aVtrage
p2385
aVshould'nt
p2386
aVvulnerab
p2387
aVdistinguish
p2388
aVnervou
p2389
aVcondo
p2390
aVpurpl
p2391
aVminut
p2392
aVboth
p2393
aVlast
p2394
aVthou
p2395
aVwouldn't
p2396
aVannual
p2397
aValon
p2398
aVgrudg
p2399
aVwholl
p2400
aValot
p2401
aVhangout
p2402
aVwhole
p2403
aVinsinc
p2404
aVcynic
p2405
aVload
p2406
aVchildhood
p2407
aVsimpli
p2408
aVdistress
p2409
aVcontrad
p2410
aVdrunk
p2411
aVpuritan
p2412
aVsweet
p2413
aVlikel
p2414
aVsmother
p2415
aVbiblic
p2416
aVrofl
p2417
aVnewborn
p2418
aVinaudibl
p2419
aVprovok
p2420
aVsing
p2421
aVmistak
p2422
aVscari
p2423
aVacrid
p2424
aVprovoc
p2425
aVduh
p2426
aVblog
p2427
aVworthless
p2428
aVdevil
p2429
aVcreati
p2430
aVthere'
p2431
aVdue
p2432
aVperpetu
p2433
aVmiser
p2434
aVwhom
p2435
aVsecret
p2436
aVpa
p2437
aVdamn
p2438
aVwhod
p2439
aVhomosexu
p2440
aVbenevolen
p2441
aVwoke
p2442
aVpm
p2443
aVsweetheart
p2444
aVgentil
p2445
aVprostitu
p2446
aVgaz
p2447
aVgay
p2448
aVbuck
p2449
aVfire
p2450
aVmind
p2451
aVimag
p2452
aVlivel
p2453
aVpharmac
p2454
aVappend
p2455
aVpeso
p2456
aVfund
p2457
aVpartli
p2458
aVliver
p2459
aVrepetit
p2460
aVfunn
p2461
aVpresser
p2462
aVuncertain
p2463
aVlook
p2464
aVpresiden
p2465
aVstraight
p2466
aVbill
p2467
aVhistor
p2468
aVcrucifi
p2469
aVwhile
p2470
aVsmart
p2471
aVabov
p2472
aVmortician
p2473
aVfun
p2474
aVwho'
p2475
aVeveryon
p2476
aVgrip
p2477
aVuncle'
p2478
aVmanufact
p2479
aVreadi
p2480
aVcentr
p2481
aVwhere'
p2482
aVdemon
p2483
aVunimpress
p2484
aVitself
p2485
aVexhubbi
p2486
aVaccura
p2487
aVdemot
p2488
aVvirtu
p2489
aVepiscop
p2490
aVanguish
p2491
aVshirt
p2492
aVmadli
p2493
aVmovi
p2494
aVbenign
p2495
aVhow'
p2496
aVgrand
p2497
aVsalvat
p2498
aVconflict
p2499
aVinsulin
p2500
aVitch
p2501
aVimagin
p2502
aVoptim
p2503
aVarmpit
p2504
aVwherea
p2505
aVyesterday
p2506
aVmoment
p2507
aVcyst
p2508
aVdine
p2509
aVwould'v
p2510
aVtimid
p2511
aVtypic
p2512
aVrecent
p2513
aVgrinn
p2514
aVdiscourag
p2515
aVcellphon
p2516
aVmobb
p2517
aVcheek
p2518
aVspent
p2519
aVmaker
p2520
aVperson
p2521
aVcheer
p2522
aVauditor
p2523
aVknower
p2524
aVolden
p2525
aVtast
p2526
aVspend
p2527
aVconscienti
p2528
aVchore
p2529
aVabstain
p2530
aVfacial
p2531
aVceo
p2532
aVtumo
p2533
aVdesk
p2534
aVobscur
p2535
aVaroma
p2536
aVpress
p2537
aVshape
p2538
aVkippur
p2539
aVbaptiz
p2540
aVskat
p2541
aVworld
p2542
aVregardless
p2543
aVendeav
p2544
aVcouch
p2545
aVunto
p2546
aVcoun
p2547
aVdepriv
p2548
aVcut
p2549
aVovar
p2550
aVcodein
p2551
aVstimul
p2552
aVsinist
p2553
aVcuz
p2554
aVeager
p2555
aVperspir
p2556
aVprudish
p2557
aVdare
p2558
aVhater
p2559
aVmarch
p2560
aVfoundat
p2561
aVmoodi
p2562
aVgame
p2563
aVwomanli
p2564
aVblackjack
p2565
aVtrueness
p2566
aVbit
p2567
aVundetermin
p2568
aVsuccess
p2569
aVspine
p2570
aVconfront
p2571
aVresolv
p2572
aVresolu
p2573
aVheart
p2574
aVdistrust
p2575
aVpagan
p2576
aVpopular
p2577
aVminist
p2578
aVcompensat
p2579
aVscare
p2580
aVoften
p2581
aVmercif
p2582
aVacknowledg
p2583
aVsome
p2584
aVback
p2585
aVah
p2586
aVunderstood
p2587
aVempt
p2588
aVsampl
p2589
aVsight
p2590
aVconsciou
p2591
aVmightv
p2592
aVsyndrom
p2593
aVchocol
p2594
aVunknow
p2595
aVpet
p2596
aVthough
p2597
aVseller
p2598
aVreckon
p2599
aVpen
p2600
aVapplicat
p2601
aVlarg
p2602
aVscalp
p2603
aVmummi
p2604
aVpee
p2605
aVnose
p2606
aVamput
p2607
aVbe
p2608
aVbf
p2609
aVrun
p2610
aVglamor
p2611
aVrum
p2612
aVrub
p2613
aVodor
p2614
aVgmat
p2615
aVagreement
p2616
aVsacrif
p2617
aVstep
p2618
aVconvent
p2619
aVsqueez
p2620
aVperver
p2621
aVsunniest
p2622
aVmeantim
p2623
aVcrap
p2624
aVtaboo
p2625
aVby
p2626
aVvivid
p2627
aVshine
p2628
aVfaith
p2629
aVjealou
p2630
aVwouldnt
p2631
aVyawn
p2632
aVdeligh
p2633
aVshini
p2634
aVindigest
p2635
aVdrama
p2636
aVheel
p2637
aVlibert
p2638
aVunproduc
p2639
aVsubsequen
p2640
aVoverconfiden
p2641
aVwanna
p2642
aVblock
p2643
aVcouldv
p2644
aVboy'
p2645
aVprimarili
p2646
aVinto
p2647
aVwithin
p2648
aVmomma
p2649
aVsavag
p2650
aVpentecost
p2651
aVmommi
p2652
aVmausoleum
p2653
aVstench
p2654
aVspan
p2655
aVeleven
p2656
aVoccupa
p2657
aVlone
p2658
aVvigour
p2659
aVlong
p2660
aVcustom
p2661
aVcountr
p2662
aVspat
p2663
aVhimself
p2664
aVboyf
p2665
aVjewish
p2666
aVreveng
p2667
aVatop
p2668
aVretina
p2669
aVpastor
p2670
aVglamour
p2671
aVcloth
p2672
aVlink
p2673
aVuncontrol
p2674
aVnewer
p2675
aVinclu
p2676
aVreek
p2677
aVinferr
p2678
aVdull
p2679
aVafterlif
p2680
aVinfo
p2681
aVhush
p2682
aVskull
p2683
aVcaller
p2684
aVup
p2685
aVus
p2686
aVur
p2687
aVum
p2688
aVgrowth
p2689
aVuh
p2690
aVprofessor
p2691
aVsunnier
p2692
aVgrandchil
p2693
aVcamp
p2694
aVfreak
p2695
aVestrogen
p2696
aVpilgrim
p2697
aVlectur
p2698
aVindeci
p2699
aVseptemb
p2700
aVcurb
p2701
aVkm
p2702
aVchat
p2703
aVimean
p2704
aVbicep
p2705
aVdoe
p2706
aVkidney
p2707
aVgrr
p2708
aVnag
p2709
aVcrypt
p2710
aVscrape
p2711
aVthiev
p2712
aVstepchild
p2713
aVnap
p2714
aVgre
p2715
aValtar
p2716
aVfreshm
p2717
aVmock
p2718
aVnice
p2719
aVclean
p2720
aVgross
p2721
aVrabbin
p2722
aVresign
p2723
aVneednt
p2724
aVzit
p2725
aVmood
p2726
aVago
p2727
aVland
p2728
aVintimidat
p2729
aVnast
p2730
aVdvd
p2731
aVexclu
p2732
aVshe'd
p2733
aVscream
p2734
aVfeud
p2735
aVdepth
p2736
aVdrown
p2737
aVkarma
p2738
aVhah
p2739
aVgrownup
p2740
aVbandaid
p2741
aVguarant
p2742
aVhello
p2743
aVdecorat
p2744
aVamish
p2745
aVedg
p2746
aVunea
p2747
aVscratch
p2748
aVgf
p2749
aVbehavio
p2750
aVsunbath
p2751
aVgo
p2752
aVgossip
p2753
aVchillin
p2754
aVprivat
p2755
aVleas
p2756
aVtehe
p2757
aVitll
p2758
aVyoung
p2759
aVsend
p2760
aVdecongest
p2761
aVoclock
p2762
aVbecam
p2763
aVsens
p2764
aVfatal
p2765
aVsent
p2766
aVshopahol
p2767
aVqueen
p2768
aVexgf
p2769
aVwhichev
p2770
aVtoenail
p2771
aVphobi
p2772
aVsecretar
p2773
aVbrillian
p2774
aVprescri
p2775
aVenviou
p2776
aVcellular
p2777
aVsuspicio
p2778
aVdiligen
p2779
aVsurgeon
p2780
aVtri
p2781
aVesl
p2782
aVstiff
p2783
aVshock
p2784
aVeve
p2785
aVvertic
p2786
aVtrite
p2787
aVradio
p2788
aVhavent
p2789
aVrefer
p2790
aVpleas
p2791
aVslow
p2792
aVimpli
p2793
aVpretend
p2794
aVfortun
p2795
aVyou'd
p2796
aVflu
p2797
aVprocrastin
p2798
aVjump
p2799
aVfireplac
p2800
aVyou'r
p2801
aVvideo
p2802
aVpodiatr
p2803
aVyou'v
p2804
aVacid
p2805
aVclick
p2806
aVfolk
p2807
aVvictor
p2808
aVjunior
p2809
aVfianc
p2810
aVthat'
p2811
aVespresso
p2812
aVykn
p2813
aVcell
p2814
aVthrob
p2815
aVrotten
p2816
aVcondominium
p2817
aVdeduc
p2818
aVcan
p2819
aVlutheran
p2820
aVnearest
p2821
aVled
p2822
aVabsolut
p2823
aVsinu
p2824
aVindustr
p2825
aVclosur
p2826
aVlet
p2827
aVtenur
p2828
aVsunli
p2829
aVbecom
p2830
aVsinc
p2831
aVgreat
p2832
aVtalent
p2833
aVineffect
p2834
aVinflam
p2835
aVthatd
p2836
aVcasino
p2837
aVvacat
p2838
aVthinli
p2839
aVundeniab
p2840
aVrosari
p2841
aVweren't
p2842
aVdefeat
p2843
aVearli
p2844
aVopinion
p2845
aVchang
p2846
aVhonor
p2847
aVchanc
p2848
aVcontrol
p2849
aVgov
p2850
aVunquest
p2851
aVdanger
p2852
aVforbid
p2853
aVwin
p2854
aVlimp
p2855
aVemot
p2856
aVdisciplin
p2857
aVdisclo
p2858
aVblah
p2859
aVcentur
p2860
aVredd
p2861
aVfed
p2862
aVfee
p2863
aVfrom
p2864
aVcommun
p2865
aVdoubl
p2866
aVcraz
p2867
aVnext
p2868
aVfew
p2869
aVdoubt
p2870
aVdensit
p2871
aVtoy
p2872
aVcommut
p2873
aVdinero
p2874
aVfridg
p2875
aVsort
p2876
aVpencil
p2877
aVclever
p2878
aVbabe
p2879
aVrich
p2880
aVconfu
p2881
aVporch
p2882
aVbabi
p2883
aVgladli
p2884
aVecon
p2885
aVimpress
p2886
aVabout
p2887
aVwhiski
p2888
aVsore
p2889
aVagent
p2890
aVcrusad
p2891
aVgrea
p2892
aVactual
p2893
aVgambl
p2894
aVstarter
p2895
aVwomen
p2896
aVannoy
p2897
aVhigh
p2898
aVaccount
p2899
aVsalad
p2900
aVperceiv
p2901
aVride
p2902
aVwhen
p2903
aVpreci
p2904
aVsaint
p2905
aVsalar
p2906
aVdrili
p2907
aVthin
p2908
aVmeet
p2909
aVdidnt
p2910
aVcoffin
p2911
aValiv
p2912
aVproof
p2913
aVshaki
p2914
aVslid
p2915
aVchok
p2916
aVbent
p2917
aVrode
p2918
aVsectarian
p2919
aVunlov
p2920
aVvillain
p2921
aVthey'v
p2922
aVbend
p2923
aVboner
p2924
aVtan
p2925
aVrape
p2926
aVeverywher
p2927
aVsir
p2928
aVsurfac
p2929
aVwareh
p2930
aVlame
p2931
aVrecogni
p2932
aVsix
p2933
aVthrift
p2934
aVdelay
p2935
aVimportan
p2936
aVcontempt
p2937
aVinstead
p2938
aVpanic
p2939
aVsin
p2940
aVstock
p2941
aVpub
p2942
aVtension
p2943
aVfinanc
p2944
aVinhal
p2945
aVattend
p2946
aVwatch
p2947
aVaerob
p2948
aVact
p2949
aVdiscomfort
p2950
aVfrat
p2951
aVwrist
p2952
aVattent
p2953
aVphysic
p2954
aVexcruciat
p2955
aVdrape
p2956
aVessenti
p2957
aVseriou
p2958
aVbing
p2959
aVsit
p2960
aVdisori
p2961
aVissu
p2962
aVungrat
p2963
aVallot
p2964
aVallow
p2965
aVmartini
p2966
aVfastest
p2967
aVmosqu
p2968
aVthigh
p2969
aVtheyr
p2970
aVmove
p2971
aVimperson
p2972
aVmeter
p2973
aVdelegat
p2974
aVelit
p2975
aVscrumptiou
p2976
aVwon't
p2977
aVbunch
p2978
aVperfect
p2979
aVsuperior
p2980
aVsilk
p2981
aVouter
p2982
aVdecay
p2983
aVbroom
p2984
aVlabor
p2985
aVcoupon
p2986
aVblatant
p2987
aVrestrain
p2988
aVdecad
p2989
aVbye
p2990
aVtortur
p2991
aVdad
p2992
aVtranscript
p2993
aVgreater
p2994
aVorthodox
p2995
aVsweeti
p2996
aVfiesta
p2997
aVstrateg
p2998
aVflew
p2999
aVmention
p3000
aVpallbear
p3001
aVnecessar
p3002
aVanorexi
p3003
aVkiss
p3004
aVfront
p3005
aVflee
p3006
aVfled
p3007
aVsomewher
p3008
aVthrill
p3009
aVanyth
p3010
aVedit
p3011
aVroshashan
p3012
aVpoetri
p3013
aVfebruari
p3014
aVlotof
p3015
aVpolit
p3016
aVtruth
p3017
aVdisregard
p3018
aVlung
p3019
aVbeneath
p3020
aVmetr
p3021
aVunwind
p3022
aVstudiou
p3023
aVawhil
p3024
aVconclu
p3025
aVsandi
p3026
aVconsum
p3027
aVwhitish
p3028
aVsupervi
p3029
aVour
p3030
aVtenth
p3031
aVspecial
p3032
aVout
p3033
aVsentiment
p3034
aVneedn't
p3035
aVconfess
p3036
aVyup
p3037
aVfondli
p3038
aVdefenc
p3039
aVrepress
p3040
aVvcr
p3041
aVmate
p3042
aVstuf
p3043
aVrel
p3044
aVokey
p3045
aVhott
p3046
aVwick
p3047
aVstun
p3048
aVred
p3049
aVobsess
p3050
aVfranc
p3051
aVshut
p3052
aVinsid
p3053
aVipod
p3054
aVmanipul
p3055
aVcharit
p3056
aVundo
p3057
aVtempl
p3058
aVban
p3059
aVembarrass
p3060
aVanyhow
p3061
aVbleed
p3062
aVtenant
p3063
aVetern
p3064
aVnowher
p3065
aVyard
p3066
aVarbitrar
p3067
aVunwant
p3068
aVcould
p3069
aVarea
p3070
aVkeep
p3071
aVkeen
p3072
aVoutsid
p3073
aVltd
p3074
aVretain
p3075
aVinadequa
p3076
aVretail
p3077
aVorganiz
p3078
aVsouth
p3079
aVveggi
p3080
aVsavour
p3081
aVmadden
p3082
aVset
p3083
aVfatigu
p3084
aVbitch
p3085
aVsacr
p3086
aVowner
p3087
aVisolat
p3088
aVdoesn't
p3089
aVscann
p3090
aVancient
p3091
aVstart
p3092
aVtrembl
p3093
aVsystem
p3094
aVmessag
p3095
aVgrow
p3096
aVtheir
p3097
aVattack
p3098
aVsadli
p3099
aVdrool
p3100
aVabusi
p3101
aVhilari
p3102
aVboil
p3103
aVstomach
p3104
aVpunish
p3105
aVjuli
p3106
aVgratef
p3107
aVmigrain
p3108
aVkaraok
p3109
aVgrandpa
p3110
aVsubmiss
p3111
aVthat'll
p3112
aVherself
p3113
aVneck
p3114
aVcompreh
p3115
aVwet
p3116
aVbother
p3117
aVbeg
p3118
aVbed
p3119
aVshill
p3120
aVassociat
p3121
aVpsalm
p3122
aVlover
p3123
aVdubiou
p3124
aVbare
p3125
aVsickli
p3126
aVbet
p3127
aVbeggar
p3128
aVterribl
p3129
aVviewer
p3130
aVclearli
p3131
aVdosag
p3132
aVtonight
p3133
aVcardia
p3134
aVhave
p3135
aVclose
p3136
aVneed
p3137
aVsortsa
p3138
aVtidi
p3139
aVgentli
p3140
aVscrew
p3141
aVbastard
p3142
aVafraid
p3143
aVmin
p3144
aVmid
p3145
aVoutward
p3146
aVunawar
p3147
aVreaper
p3148
aVwhich
p3149
aVsoap
p3150
aVsingl
p3151
aVunaccept
p3152
aVunless
p3153
aVdishwash
p3154
aVwho
p3155
aVwhi
p3156
aVdiscov
p3157
aVspose
p3158
aVhiphop
p3159
aVvisa
p3160
aVeight
p3161
aVfinaliz
p3162
aVhighschool
p3163
aVsegment
p3164
aVclass
p3165
aVegoti
p3166
aVmucou
p3167
aVprove
p3168
aVstereo
p3169
aVsurpri
p3170
aVlooker
p3171
aVdens
p3172
aVskinni
p3173
aVgather
p3174
aVrequest
p3175
aVhiccup
p3176
aVface
p3177
aVinde
p3178
aVyou'll
p3179
aVdetermin
p3180
aVoccasion
p3181
aVconstrain
p3182
aVoffenc
p3183
aVwow
p3184
aVfact
p3185
aVgain
p3186
aVaffair
p3187
aVniec
p3188
aVnutrit
p3189
aVmyopi
p3190
aVproph
p3191
aVborderlin
p3192
aVlymph
p3193
aVanyway
p3194
aVbring
p3195
aVmust'v
p3196
aVbedroom
p3197
aVportfolio
p3198
aVmolest
p3199
aVbrake
p3200
aVbrink
p3201
aVstaff
p3202
aVanswer
p3203
aVnearer
p3204
aVseizur
p3205
aVear
p3206
aVurn
p3207
aVnois
p3208
aVtire
p3209
aVterminat
p3210
aVwith
p3211
aVngo
p3212
aVforev
p3213
aVrash
p3214
aVshould
p3215
aVenvi
p3216
aVrestructur
p3217
aVsuppos
p3218
aVprof
p3219
aVpurcha
p3220
aVlocal
p3221
aVinferior
p3222
aVmeant
p3223
aVjackpot
p3224
aVinsight
p3225
aVpalatabl
p3226
aVbeat
p3227
aVdisagre
p3228
aVrush
p3229
aVhorni
p3230
aVjoint
p3231
aVautop
p3232
aVgraduat
p3233
aVhallucinat
p3234
aVlira
p3235
aVlucki
p3236
aVgray
p3237
aVdishearten
p3238
aVallah
p3239
aVenabl
p3240
aVwhilst
p3241
aVnaus
p3242
aVveget
p3243
aVstuff
p3244
aVshe
p3245
aVunsavo
p3246
aVcontain
p3247
aVshi
p3248
aVrein
p3249
aVgrad
p3250
aVview
p3251
aVtoe
p3252
aVfarthest
p3253
aVunimport
p3254
aVsynch
p3255
aVpersist
p3256
aVheartburn
p3257
aVknowledg
p3258
aVtendoni
p3259
aVapolog
p3260
aVtestosteron
p3261
aVimmor
p3262
aVtroubl
p3263
aVlotter
p3264
aVbutt'
p3265
aVsororit
p3266
aVcloser
p3267
aVentranc
p3268
aVsarca
p3269
aVarou
p3270
aVcloset
p3271
aVmainli
p3272
aVbelow
p3273
aVtend
p3274
aVdevastat
p3275
aVfavor
p3276
aVwritten
p3277
aVdespi
p3278
aVcrude
p3279
aVprogress
p3280
aVneither
p3281
aVyoull
p3282
aVemail
p3283
aVmiscar
p3284
aVbought
p3285
aVagoni
p3286
aVexam
p3287
aVpatholog
p3288
aVamen
p3289
aVkeg
p3290
aVjoy
p3291
aVsorrow
p3292
aVdislik
p3293
aVgrasp
p3294
aVjob
p3295
aVentir
p3296
aVjog
p3297
aVundoubt
p3298
aVgarden
p3299
aVaddit
p3300
aVheartwarm
p3301
aVdrum
p3302
aVsniff
p3303
aVcareer
p3304
aVjoke
p3305
aVreorgani
p3306
aVequal
p3307
aVdrug
p3308
aVkosher
p3309
aVetc
p3310
aVadmit
p3311
aVsucceed
p3312
aVadmir
p3313
aVswim
p3314
aVfreeli
p3315
aVswallow
p3316
aVwear
p3317
aVcomment
p3318
aVunclear
p3319
aVco
p3320
aVextent
p3321
aVdenia
p3322
aVwall
p3323
aVtuesday
p3324
aVarriv
p3325
aVwalk
p3326
aVsolv
p3327
aVincest
p3328
aVlaugh
p3329
aVnews
p3330
aVrespect
p3331
aVunluck
p3332
aVcv
p3333
aVamigo
p3334
aVquit
p3335
aVyay
p3336
aVcreat
p3337
aVmaid
p3338
aVhindu
p3339
aVcard
p3340
aVcent
p3341
aVsnort
p3342
aVtutor
p3343
aVdrank
p3344
aVhellish
p3345
aVtreat
p3346
aVtv
p3347
aVcurtain
p3348
aVimmedi
p3349
aVit'd
p3350
aVnickel
p3351
aVtreasur
p3352
aVtricep
p3353
aVneighbour
p3354
aVplanner
p3355
aVtogeth
p3356
aVorthop
p3357
aVmcat
p3358
aVador
p3359
aVfurnitur
p3360
aVbrunch
p3361
aVan
p3362
aVpresent
p3363
aVcrappi
p3364
aVfactual
p3365
aVcarefre
p3366
aVwill
p3367
aVdefin
p3368
aVunhapp
p3369
aVfault
p3370
aVdomot
p3371
aVill
p3372
aVlayoff
p3373
aVvd
p3374
aVengag
p3375
aVhelper
p3376
aValmost
p3377
aVneuron
p3378
aVrefu
p3379
aVsite
p3380
aVpromot
p3381
aVlust
p3382
aVneurot
p3383
aVvs
p3384
aVmotiv
p3385
aVpartner
p3386
aVencompass
p3387
aVwhore
p3388
aVresponsib
p3389
aVundecid
p3390
aVwelcom
p3391
aVparti
p3392
aVbegan
p3393
aVcross
p3394
aVbishop
p3395
aVmember
p3396
aVspeaker
p3397
aVjaw
p3398
aVinch
p3399
aVfill
p3400
aVinfer
p3401
aVdifficult
p3402
aVnightli
p3403
aVoveral
p3404
aVsadd
p3405
aVselfish
p3406
aVflesh
p3407
aVbald
p3408
aVupon
p3409
aVeffect
p3410
aVpromi
p3411
aVphd
p3412
aVfreez
p3413
aVstudent
p3414
aVbuild
p3415
aVsunburn
p3416
aVstair
p3417
aVpull
p3418
aVaudit
p3419
aVpriest
p3420
aVoff
p3421
aVcenter
p3422
aVlunch
p3423
aVfirstli
p3424
aVcom
p3425
aVweapon
p3426
aVwell
p3427
aVoverwork
p3428
aVthought
p3429
aVbiannu
p3430
aVexampl
p3431
aVconquer
p3432
aVaudio
p3433
aVusual
p3434
aVdail
p3435
aVnewest
p3436
aVless
p3437
aVgranddad
p3438
aVconferenc
p3439
aVobtain
p3440
aVroomi
p3441
aVunattract
p3442
aVclinic
p3443
aVorsometh
p3444
aVgranddau
p3445
aVskill
p3446
aVsimultan
p3447
aVgentlest
p3448
aVsomebod
p3449
aVuncomfortabl
p3450
aVwed
p3451
aVpoint
p3452
aVsky
p3453
aVday
p3454
aVadd
p3455
aVtitti
p3456
aVcremat
p3457
aVcitizen
p3458
aVtax
p3459
aVpurgat
p3460
aVski
p3461
aVloan
p3462
aVought
p3463
aVfutur
p3464
aVminesweep
p3465
aVcrui
p3466
aVsick
p3467
aVagnost
p3468
aVpiec
p3469
aVsweep
p3470
aVrealiz
p3471
aVfive
p3472
aVknow
p3473
aVburden
p3474
aVfatt
p3475
aVopenmind
p3476
aVtick
p3477
aVwho'd
p3478
aVloss
p3479
aVincrea
p3480
aVlike
p3481
aVlost
p3482
aVsofa
p3483
aVwonderf
p3484
aVatho
p3485
aVloser
p3486
aVchairm
p3487
aVlose
p3488
aVchick
p3489
aVcandl
p3490
aVsoft
p3491
aVpage
p3492
aVcandi
p3493
aVhangov
p3494
aVincent
p3495
aVchurch
p3496
aVmyster
p3497
aVthief
p3498
aVhair
p3499
aVhomo
p3500
aVenthu
p3501
aVhome
p3502
aVpersua
p3503
aVconver
p3504
aVtransport
p3505
aVshan't
p3506
aVlead
p3507
aVbroad
p3508
aVavoid
p3509
aVslide
p3510
aVoverlap
p3511
aVhangup
p3512
aVoutgo
p3513
aVpassion
p3514
aVenrag
p3515
aVnake
p3516
aVshe'
p3517
aVencourag
p3518
aVobey
p3519
aVslut
p3520
aVnoisi
p3521
aVmasteri
p3522
aVuptight
p3523
aVforgiv
p3524
aValthough
p3525
aVpasta
p3526
aVskelet
p3527
aVstage
p3528
aVsister
p3529
aVexterminat
p3530
aVrare
p3531
aVcolumn
p3532
aVwaist
p3533
aVjustif
p3534
aVingest
p3535
aVcourag
p3536
aVmofo
p3537
aVcarrier
p3538
aVroomat
p3539
aVsweat
p3540
aVblockbust
p3541
aVtomb
p3542
aVoughtv
p3543
aVown
p3544
aVtheyv
p3545
aVchlamydia
p3546
aVowe
p3547
aVmerr
p3548
aVdiagon
p3549
aVchronic
p3550
aVguard
p3551
aVdoesnt
p3552
aVchamp
p3553
aVbrush
p3554
aVoughta
p3555
aVtheyd
p3556
aVpussi
p3557
aVcouldnt
p3558
aVprozac
p3559
aVpictur
p3560
aVtransfer
p3561
aVmuseum
p3562
aVinfant'
p3563
aVwimp
p3564
aVtylenol
p3565
aVmuch
p3566
aVinner
p3567
aVsmil
p3568
aVbiggest
p3569
aVcowork
p3570
aVincorp
p3571
aVstipend
p3572
aVghost
p3573
aVmailer
p3574
aVbuy
p3575
aVnorth
p3576
aVgranni
p3577
aVsequen
p3578
aVcoke
p3579
aVoutsourc
p3580
aVbut
p3581
aVyeah
p3582
aValway
p3583
aVunambigu
p3584
aVhi
p3585
aVgrati
p3586
aVho
p3587
aVhm
p3588
aVwage
p3589
aVshant
p3590
aVeas
p3591
aVha
p3592
aVeat
p3593
aVbud
p3594
aVhe
p3595
aVmade
p3596
aVwise
p3597
aVmgr
p3598
aVsymphon
p3599
aVwhether
p3600
aVwish
p3601
aVsmooth
p3602
aVdistract
p3603
aVrecord
p3604
aVcruel
p3605
aVbelov
p3606
aVlimit
p3607
aVindefinit
p3608
aVglori
p3609
aVcounc
p3610
aVotherwis
p3611
aVproblem
p3612
aVsolitair
p3613
aVdomina
p3614
aVwhisper
p3615
aVdure
p3616
aVyiddish
p3617
aVjesuit
p3618
aVxerox
p3619
aVmustnt
p3620
aVnovemb
p3621
aVinn
p3622
aVscholast
p3623
aVworkabl
p3624
aVpenni
p3625
aVgirl
p3626
aVprobabl
p3627
aVbooz
p3628
aVpercent
p3629
aVtempora
p3630
aVother
p3631
aVboom
p3632
aVrememb
p3633
aVinfect
p3634
aVdose
p3635
aVsophom
p3636
aVboob
p3637
aVtheor
p3638
aVexpel
p3639
aVdropout
p3640
aVscholarli
p3641
aVdresser
p3642
aVrepeat
p3643
aVpoverti
p3644
aVmonday
p3645
aVjune
p3646
aVstay
p3647
aVmanslaught
p3648
aVtown
p3649
aVtinier
p3650
aVkinda
p3651
aVnintendo
p3652
aVkindn
p3653
aVmastermind
p3654
aVdecemb
p3655
aVvein
p3656
aVbronchi
p3657
aVexperienc
p3658
aVmassacr
p3659
aVsyllabu
p3660
aVinfluenc
p3661
aVportion
p3662
aVought'v
p3663
aVpension
p3664
aVunderstand
p3665
aVyell
p3666
aVvolleyb
p3667
aVsincer
p3668
atp3669
Rp3670
.