(dp0
S'm511'
p1
I1
sS'm510'
p2
I0
sS'm437'
p3
I-1
sS'm329'
p4
I-1
sS'm519'
p5
I0
sS'm526'
p6
I0
sS'm518'
p7
I0
sS'm527'
p8
I0
sS'm281'
p9
I0
sS'm280'
p10
I-1
sS'm368'
p11
I0
sS'm282'
p12
I1
sS'm285'
p13
I0
sS'm284'
p14
I-1
sS'm287'
p15
I0
sS'm286'
p16
I0
sS'm362'
p17
I0
sS'm363'
p18
I0
sS'm360'
p19
I0
sS'm361'
p20
I0
sS'm366'
p21
I0
sS'm367'
p22
I-1
sS'm364'
p23
I0
sS'm365'
p24
I0
sS'm218'
p25
I-1
sS'm219'
p26
I0
sS'm216'
p27
I1
sS'm217'
p28
I1
sS'm214'
p29
I-1
sS'm215'
p30
I0
sS'm212'
p31
I0
sS'm213'
p32
I0
sS'm210'
p33
I0
sS'm211'
p34
I0
sS'm39'
p35
I1
sS'm38'
p36
I-1
sS'm37'
p37
I-1
sS'm36'
p38
I0
sS'm35'
p39
I-1
sS'm34'
p40
I0
sS'm33'
p41
I0
sS'm32'
p42
I-1
sS'm31'
p43
I0
sS'm30'
p44
I-1
sS'm443'
p45
I1
sS'm442'
p46
I1
sS'm441'
p47
I0
sS'm440'
p48
I-1
sS'm447'
p49
I0
sS'm446'
p50
I0
sS'm445'
p51
I0
sS'm444'
p52
I0
sS'm449'
p53
I0
sS'm448'
p54
I0
sS'm195'
p55
I0
sS'm194'
p56
I0
sS'm197'
p57
I0
sS'm542'
p58
I1
sS'm543'
p59
I-1
sS'm540'
p60
I0
sS'm196'
p61
I0
sS'm546'
p62
I0
sS'm547'
p63
I1
sS'm544'
p64
I1
sS'm545'
p65
I0
sS'm191'
p66
I1
sS'm548'
p67
I0
sS'm549'
p68
I1
sS'm190'
p69
I0
sS'm193'
p70
I1
sS'm192'
p71
I0
sS'm146'
p72
I0
sS'm147'
p73
I0
sS'm144'
p74
I0
sS'm145'
p75
I1
sS'm142'
p76
I1
sS'm143'
p77
I-1
sS'm140'
p78
I0
sS'm141'
p79
I0
sS'm148'
p80
I0
sS'm149'
p81
I0
sS'm199'
p82
I0
sS'm198'
p83
I-1
sS'm5'
p84
I0
sS'm4'
p85
I0
sS'm7'
p86
I0
sS'm6'
p87
I-1
sS'm1'
p88
I-1
sS'm0'
p89
I0
sS'm3'
p90
I1
sS'm2'
p91
I-1
sS'm9'
p92
I0
sS'm8'
p93
I0
sS'm588'
p94
I0
sS'm88'
p95
I-1
sS'm89'
p96
I0
sS'm86'
p97
I-1
sS'm87'
p98
I0
sS'm84'
p99
I0
sS'm85'
p100
I0
sS'm82'
p101
I0
sS'm83'
p102
I0
sS'm80'
p103
I0
sS'm81'
p104
I0
sS'm231'
p105
I0
sS'm582'
p106
I0
sS'm583'
p107
I0
sS'm438'
p108
I0
sS'm439'
p109
I1
sS'm432'
p110
I-1
sS'm433'
p111
I1
sS'm430'
p112
I0
sS'm431'
p113
I0
sS'm436'
p114
I1
sS'm283'
p115
I0
sS'm434'
p116
I0
sS'm435'
p117
I-1
sS'm369'
p118
I1
sS'm589'
p119
I0
sS'm245'
p120
I-1
sS'm289'
p121
I0
sS'm247'
p122
I0
sS'm246'
p123
I0
sS'm241'
p124
I0
sS'm240'
p125
I1
sS'm243'
p126
I1
sS'm288'
p127
I0
sS'm326'
p128
I0
sS'm327'
p129
I0
sS'm324'
p130
I0
sS'm325'
p131
I0
sS'm322'
p132
I0
sS'm248'
p133
I0
sS'm320'
p134
I1
sS'm321'
p135
I0
sS'm506'
p136
I1
sS'm507'
p137
I1
sS'm504'
p138
I1
sS'm505'
p139
I1
sS'm119'
p140
I-1
sS'm118'
p141
I0
sS'm500'
p142
I0
sS'm501'
p143
I0
sS'm115'
p144
I0
sS'm114'
p145
I0
sS'm117'
p146
I1
sS'm116'
p147
I0
sS'm111'
p148
I1
sS'm110'
p149
I0
sS'm113'
p150
I0
sS'm112'
p151
I0
sS'm60'
p152
I-1
sS'm61'
p153
I0
sS'm62'
p154
I0
sS'm63'
p155
I0
sS'm64'
p156
I0
sS'm65'
p157
I0
sS'm66'
p158
I0
sS'm67'
p159
I0
sS'm68'
p160
I1
sS'm69'
p161
I0
sS'm473'
p162
I0
sS'm188'
p163
I0
sS'm189'
p164
I1
sS'm182'
p165
I1
sS'm183'
p166
I0
sS'm180'
p167
I0
sS'm181'
p168
I0
sS'm186'
p169
I1
sS'm187'
p170
I-1
sS'm184'
p171
I-1
sS'm185'
p172
I0
sS'm612'
p173
I-1
sS'm613'
p174
I1
sS'm610'
p175
I0
sS'm611'
p176
I0
sS'm616'
p177
I0
sS'm614'
p178
I1
sS'm615'
p179
I1
sS'm244'
p180
I0
sS'm601'
p181
I1
sS'm600'
p182
I0
sS'm252'
p183
I1
sS'm253'
p184
I1
sS'm93'
p185
I0
sS'm92'
p186
I1
sS'm328'
p187
I-1
sS'm95'
p188
I1
sS'm242'
p189
I0
sS'm94'
p190
I0
sS'm97'
p191
I1
sS'm96'
p192
I0
sS'm249'
p193
I1
sS'm323'
p194
I1
sS'm559'
p195
I-1
sS'm491'
p196
I0
sS'm278'
p197
I-1
sS'm279'
p198
I1
sS'm274'
p199
I0
sS'm275'
p200
I0
sS'm276'
p201
I-1
sS'm277'
p202
I0
sS'm270'
p203
I-1
sS'm271'
p204
I1
sS'm272'
p205
I0
sS'm273'
p206
I1
sS'm502'
p207
I1
sS'm503'
p208
I0
sS'm551'
p209
I0
sS'm550'
p210
I0
sS'm209'
p211
I0
sS'm208'
p212
I0
sS'm201'
p213
I-1
sS'm200'
p214
I-1
sS'm203'
p215
I1
sS'm202'
p216
I0
sS'm205'
p217
I0
sS'm204'
p218
I1
sS'm207'
p219
I-1
sS'm206'
p220
I1
sS'm388'
p221
I0
sS'm389'
p222
I0
sS'm508'
p223
I1
sS'm380'
p224
I0
sS'm381'
p225
I1
sS'm382'
p226
I0
sS'm383'
p227
I0
sS'm384'
p228
I-1
sS'm385'
p229
I0
sS'm386'
p230
I1
sS'm387'
p231
I0
sS'm28'
p232
I0
sS'm29'
p233
I0
sS'm24'
p234
I0
sS'm25'
p235
I0
sS'm26'
p236
I0
sS'm27'
p237
I0
sS'm20'
p238
I1
sS'm21'
p239
I0
sS'm22'
p240
I1
sS'm23'
p241
I0
sS'm375'
p242
I0
sS'm374'
p243
I0
sS'm377'
p244
I0
sS'm376'
p245
I0
sS'm371'
p246
I0
sS'm370'
p247
I-1
sS'm373'
p248
I0
sS'm479'
p249
I1
sS'm476'
p250
I0
sS'm477'
p251
I0
sS'm474'
p252
I1
sS'm475'
p253
I0
sS'm472'
p254
I1
sS'm378'
p255
I1
sS'm470'
p256
I0
sS'm471'
p257
I1
sS'm124'
p258
I0
sS'm125'
p259
I1
sS'm126'
p260
I0
sS'm127'
p261
I0
sS'm120'
p262
I-1
sS'm121'
p263
I-1
sS'm122'
p264
I0
sS'm123'
p265
I0
sS'm128'
p266
I0
sS'm129'
p267
I0
sS'm494'
p268
I0
sS'm495'
p269
I0
sS'm496'
p270
I1
sS'm497'
p271
I1
sS'm490'
p272
I0
sS'm558'
p273
I0
sS'm492'
p274
I1
sS'm493'
p275
I0
sS'm555'
p276
I0
sS'm554'
p277
I0
sS'm557'
p278
I1
sS'm556'
p279
I0
sS'm498'
p280
I1
sS'm499'
p281
I1
sS'm553'
p282
I0
sS'm552'
p283
I-1
sS'm151'
p284
I0
sS'm150'
p285
I-1
sS'm153'
p286
I0
sS'm152'
p287
I-1
sS'm155'
p288
I1
sS'm154'
p289
I0
sS'm157'
p290
I0
sS'm156'
p291
I0
sS'm159'
p292
I0
sS'm158'
p293
I0
sS'm372'
p294
I0
sS'm348'
p295
I-1
sS'm349'
p296
I0
sS'm344'
p297
I0
sS'm345'
p298
I0
sS'm346'
p299
I0
sS'm347'
p300
I1
sS'm340'
p301
I0
sS'm341'
p302
I0
sS'm342'
p303
I0
sS'm343'
p304
I0
sS'm379'
p305
I0
sS'm339'
p306
I0
sS'm338'
p307
I0
sS'm232'
p308
I0
sS'm233'
p309
I0
sS'm234'
p310
I0
sS'm235'
p311
I0
sS'm236'
p312
I1
sS'm237'
p313
I0
sS'm331'
p314
I-1
sS'm330'
p315
I-1
sS'm333'
p316
I0
sS'm332'
p317
I0
sS'm335'
p318
I0
sS'm334'
p319
I1
sS'm337'
p320
I0
sS'm336'
p321
I1
sS'm168'
p322
I0
sS'm169'
p323
I-1
sS'm513'
p324
I0
sS'm512'
p325
I0
sS'm515'
p326
I0
sS'm514'
p327
I1
sS'm517'
p328
I0
sS'm516'
p329
I0
sS'm160'
p330
I0
sS'm161'
p331
I0
sS'm162'
p332
I-1
sS'm163'
p333
I0
sS'm164'
p334
I0
sS'm165'
p335
I0
sS'm166'
p336
I0
sS'm167'
p337
I0
sS'm55'
p338
I1
sS'm54'
p339
I0
sS'm57'
p340
I0
sS'm56'
p341
I0
sS'm51'
p342
I-1
sS'm50'
p343
I-1
sS'm53'
p344
I0
sS'm52'
p345
I0
sS'm358'
p346
I0
sS'm59'
p347
I0
sS'm58'
p348
I-1
sS'm425'
p349
I1
sS'm424'
p350
I0
sS'm427'
p351
I0
sS'm426'
p352
I-1
sS'm421'
p353
I0
sS'm420'
p354
I1
sS'm423'
p355
I0
sS'm422'
p356
I0
sS'm586'
p357
I0
sS'm587'
p358
I0
sS'm584'
p359
I1
sS'm585'
p360
I0
sS'm429'
p361
I0
sS'm428'
p362
I-1
sS'm580'
p363
I0
sS'm581'
p364
I0
sS'm564'
p365
I0
sS'm565'
p366
I-1
sS'm566'
p367
I-1
sS'm567'
p368
I0
sS'm560'
p369
I-1
sS'm608'
p370
I0
sS'm562'
p371
I-1
sS'm563'
p372
I0
sS'm605'
p373
I0
sS'm604'
p374
I0
sS'm607'
p375
I-1
sS'm606'
p376
I0
sS'm568'
p377
I0
sS'm569'
p378
I0
sS'm603'
p379
I0
sS'm602'
p380
I1
sS'm478'
p381
I1
sS'm269'
p382
I0
sS'm268'
p383
I-1
sS'm267'
p384
I1
sS'm266'
p385
I0
sS'm265'
p386
I0
sS'm264'
p387
I1
sS'm263'
p388
I1
sS'm262'
p389
I1
sS'm261'
p390
I1
sS'm260'
p391
I-1
sS'm509'
p392
I0
sS'm541'
p393
I0
sS'm102'
p394
I0
sS'm418'
p395
I-1
sS'm419'
p396
I1
sS'm414'
p397
I0
sS'm415'
p398
I0
sS'm416'
p399
I0
sS'm417'
p400
I-1
sS'm410'
p401
I1
sS'm411'
p402
I1
sS'm412'
p403
I1
sS'm413'
p404
I0
sS'm11'
p405
I1
sS'm10'
p406
I0
sS'm13'
p407
I1
sS'm12'
p408
I0
sS'm15'
p409
I0
sS'm14'
p410
I0
sS'm17'
p411
I0
sS'm16'
p412
I0
sS'm19'
p413
I0
sS'm18'
p414
I0
sS'm391'
p415
I0
sS'm390'
p416
I0
sS'm397'
p417
I0
sS'm396'
p418
I0
sS'm395'
p419
I-1
sS'm394'
p420
I-1
sS'm300'
p421
I0
sS'm301'
p422
I1
sS'm302'
p423
I1
sS'm303'
p424
I0
sS'm304'
p425
I0
sS'm305'
p426
I0
sS'm306'
p427
I0
sS'm307'
p428
I1
sS'm308'
p429
I0
sS'm309'
p430
I0
sS'm463'
p431
I1
sS'm462'
p432
I1
sS'm465'
p433
I0
sS'm464'
p434
I0
sS'm467'
p435
I0
sS'm466'
p436
I0
sS'm137'
p437
I-1
sS'm136'
p438
I0
sS'm135'
p439
I0
sS'm134'
p440
I0
sS'm133'
p441
I0
sS'm132'
p442
I0
sS'm131'
p443
I0
sS'm130'
p444
I0
sS'm139'
p445
I0
sS'm138'
p446
I0
sS'm487'
p447
I-1
sS'm486'
p448
I0
sS'm485'
p449
I0
sS'm484'
p450
I0
sS'm483'
p451
I0
sS'm482'
p452
I0
sS'm481'
p453
I-1
sS'm480'
p454
I0
sS'm520'
p455
I-1
sS'm521'
p456
I-1
sS'm522'
p457
I0
sS'm523'
p458
I1
sS'm524'
p459
I0
sS'm525'
p460
I1
sS'm489'
p461
I0
sS'm488'
p462
I0
sS'm106'
p463
I0
sS'm561'
p464
I0
sS'm296'
p465
I0
sS'm297'
p466
I0
sS'm294'
p467
I0
sS'm295'
p468
I-1
sS'm292'
p469
I0
sS'm293'
p470
I0
sS'm290'
p471
I-1
sS'm291'
p472
I0
sS'm357'
p473
I0
sS'm356'
p474
I0
sS'm355'
p475
I0
sS'm354'
p476
I0
sS'm353'
p477
I0
sS'm352'
p478
I0
sS'm351'
p479
I0
sS'm299'
p480
I0
sS'm223'
p481
I0
sS'm222'
p482
I0
sS'm221'
p483
I1
sS'm220'
p484
I0
sS'm227'
p485
I0
sS'm226'
p486
I0
sS'm225'
p487
I0
sS'm224'
p488
I0
sS'm229'
p489
I0
sS'm228'
p490
I0
sS'm179'
p491
I1
sS'm178'
p492
I1
sS'm173'
p493
I-1
sS'm172'
p494
I1
sS'm171'
p495
I0
sS'm170'
p496
I1
sS'm177'
p497
I0
sS'm176'
p498
I0
sS'm175'
p499
I0
sS'm174'
p500
I0
sS'm48'
p501
I0
sS'm49'
p502
I-1
sS'm42'
p503
I0
sS'm43'
p504
I1
sS'm40'
p505
I0
sS'm41'
p506
I1
sS'm46'
p507
I0
sS'm47'
p508
I0
sS'm44'
p509
I1
sS'm45'
p510
I-1
sS'm450'
p511
I0
sS'm451'
p512
I1
sS'm452'
p513
I0
sS'm398'
p514
I0
sS'm454'
p515
I0
sS'm455'
p516
I0
sS'm456'
p517
I0
sS'm457'
p518
I0
sS'm458'
p519
I1
sS'm459'
p520
I0
sS'm593'
p521
I0
sS'm592'
p522
I1
sS'm595'
p523
I-1
sS'm594'
p524
I0
sS'm597'
p525
I0
sS'm596'
p526
I0
sS'm230'
p527
I-1
sS'm577'
p528
I0
sS'm393'
p529
I0
sS'm575'
p530
I0
sS'm574'
p531
I1
sS'm573'
p532
I0
sS'm572'
p533
I0
sS'm571'
p534
I0
sS'm570'
p535
I-1
sS'm579'
p536
I0
sS'm578'
p537
I0
sS'm599'
p538
I0
sS'm598'
p539
I0
sS'm453'
p540
I0
sS'm591'
p541
I0
sS'm590'
p542
I0
sS'm392'
p543
I0
sS'm99'
p544
I1
sS'm98'
p545
I1
sS'm258'
p546
I0
sS'm259'
p547
I1
sS'm91'
p548
I0
sS'm90'
p549
I0
sS'm250'
p550
I-1
sS'm251'
p551
I0
sS'm256'
p552
I0
sS'm257'
p553
I1
sS'm254'
p554
I0
sS'm255'
p555
I0
sS'm469'
p556
I0
sS'm468'
p557
I0
sS'm350'
p558
I1
sS'm409'
p559
I1
sS'm408'
p560
I1
sS'm407'
p561
I0
sS'm406'
p562
I0
sS'm405'
p563
I0
sS'm404'
p564
I0
sS'm403'
p565
I0
sS'm402'
p566
I0
sS'm401'
p567
I0
sS'm400'
p568
I-1
sS'm461'
p569
I0
sS'm460'
p570
I0
sS'm576'
p571
I0
sS'm313'
p572
I0
sS'm312'
p573
I1
sS'm311'
p574
I0
sS'm310'
p575
I0
sS'm317'
p576
I1
sS'm316'
p577
I0
sS'm315'
p578
I0
sS'm314'
p579
I0
sS'm319'
p580
I0
sS'm318'
p581
I0
sS'm609'
p582
I0
sS'm103'
p583
I0
sS'm100'
p584
I0
sS'm101'
p585
I-1
sS'm359'
p586
I0
sS'm107'
p587
I0
sS'm104'
p588
I0
sS'm105'
p589
I1
sS'm108'
p590
I1
sS'm109'
p591
I1
sS'm539'
p592
I0
sS'm538'
p593
I-1
sS'm533'
p594
I1
sS'm532'
p595
I0
sS'm531'
p596
I1
sS'm530'
p597
I-1
sS'm537'
p598
I0
sS'm536'
p599
I1
sS'm535'
p600
I0
sS'm534'
p601
I0
sS'm73'
p602
I0
sS'm72'
p603
I-1
sS'm71'
p604
I1
sS'm70'
p605
I0
sS'm77'
p606
I0
sS'm76'
p607
I1
sS'm75'
p608
I1
sS'm74'
p609
I0
sS'm79'
p610
I0
sS'm78'
p611
I0
sS'm238'
p612
I0
sS'm239'
p613
I0
sS'm528'
p614
I0
sS'm399'
p615
I0
sS'm529'
p616
I1
sS'm298'
p617
I0
s.