(dp0
S'm511'
p1
I1
sS'm510'
p2
I0
sS'm437'
p3
I-1
sS'm329'
p4
I-1
sS'm519'
p5
I0
sS'm526'
p6
I0
sS'm518'
p7
I0
sS'm527'
p8
I0
sS'm281'
p9
I0
sS'm280'
p10
I-1
sS'm368'
p11
I0
sS'm282'
p12
I1
sS'm285'
p13
I0
sS'm284'
p14
I-1
sS'm287'
p15
I0
sS'm286'
p16
I0
sS'm362'
p17
I0
sS'm363'
p18
I0
sS'm360'
p19
I0
sS'm361'
p20
I0
sS'm366'
p21
I0
sS'm367'
p22
I0
sS'm364'
p23
I0
sS'm365'
p24
I0
sS'm218'
p25
I-1
sS'm219'
p26
I0
sS'm216'
p27
I-1
sS'm217'
p28
I-1
sS'm214'
p29
I-1
sS'm215'
p30
I0
sS'm212'
p31
I0
sS'm213'
p32
I0
sS'm210'
p33
I0
sS'm211'
p34
I0
sS'm39'
p35
I1
sS'm38'
p36
I-1
sS'm37'
p37
I-1
sS'm36'
p38
I1
sS'm35'
p39
I-1
sS'm34'
p40
I0
sS'm33'
p41
I0
sS'm32'
p42
I-1
sS'm31'
p43
I0
sS'm30'
p44
I-1
sS'm443'
p45
I1
sS'm442'
p46
I1
sS'm441'
p47
I0
sS'm440'
p48
I-1
sS'm447'
p49
I0
sS'm446'
p50
I0
sS'm445'
p51
I0
sS'm444'
p52
I0
sS'm448'
p53
I0
sS'm195'
p54
I1
sS'm194'
p55
I0
sS'm197'
p56
I0
sS'm542'
p57
I1
sS'm543'
p58
I-1
sS'm540'
p59
I0
sS'm196'
p60
I0
sS'm546'
p61
I0
sS'm547'
p62
I1
sS'm544'
p63
I1
sS'm545'
p64
I0
sS'm191'
p65
I1
sS'm548'
p66
I0
sS'm549'
p67
I0
sS'm190'
p68
I0
sS'm193'
p69
I-1
sS'm192'
p70
I0
sS'm146'
p71
I0
sS'm147'
p72
I0
sS'm144'
p73
I-1
sS'm145'
p74
I1
sS'm142'
p75
I1
sS'm143'
p76
I-1
sS'm140'
p77
I0
sS'm141'
p78
I0
sS'm148'
p79
I0
sS'm149'
p80
I0
sS'm199'
p81
I0
sS'm198'
p82
I-1
sS'm5'
p83
I0
sS'm4'
p84
I0
sS'm7'
p85
I0
sS'm6'
p86
I-1
sS'm1'
p87
I-1
sS'm0'
p88
I1
sS'm3'
p89
I1
sS'm2'
p90
I-1
sS'm9'
p91
I0
sS'm8'
p92
I-1
sS'm588'
p93
I0
sS'm88'
p94
I-1
sS'm89'
p95
I0
sS'm86'
p96
I-1
sS'm87'
p97
I0
sS'm84'
p98
I0
sS'm85'
p99
I0
sS'm82'
p100
I0
sS'm83'
p101
I0
sS'm80'
p102
I0
sS'm81'
p103
I0
sS'm231'
p104
I0
sS'm582'
p105
I0
sS'm583'
p106
I0
sS'm438'
p107
I0
sS'm439'
p108
I0
sS'm432'
p109
I-1
sS'm433'
p110
I1
sS'm430'
p111
I-1
sS'm431'
p112
I0
sS'm436'
p113
I1
sS'm283'
p114
I0
sS'm434'
p115
I0
sS'm435'
p116
I-1
sS'm369'
p117
I-1
sS'm589'
p118
I-1
sS'm245'
p119
I-1
sS'm289'
p120
I0
sS'm247'
p121
I0
sS'm246'
p122
I0
sS'm241'
p123
I1
sS'm240'
p124
I1
sS'm243'
p125
I1
sS'm288'
p126
I0
sS'm326'
p127
I0
sS'm327'
p128
I1
sS'm324'
p129
I0
sS'm325'
p130
I0
sS'm322'
p131
I0
sS'm248'
p132
I0
sS'm320'
p133
I1
sS'm321'
p134
I0
sS'm506'
p135
I1
sS'm507'
p136
I1
sS'm504'
p137
I-1
sS'm505'
p138
I1
sS'm119'
p139
I-1
sS'm118'
p140
I0
sS'm500'
p141
I-1
sS'm501'
p142
I0
sS'm115'
p143
I0
sS'm114'
p144
I0
sS'm117'
p145
I1
sS'm116'
p146
I0
sS'm111'
p147
I0
sS'm110'
p148
I0
sS'm113'
p149
I0
sS'm112'
p150
I0
sS'm60'
p151
I0
sS'm61'
p152
I0
sS'm62'
p153
I0
sS'm63'
p154
I0
sS'm64'
p155
I0
sS'm65'
p156
I1
sS'm66'
p157
I0
sS'm67'
p158
I1
sS'm68'
p159
I1
sS'm69'
p160
I0
sS'm473'
p161
I0
sS'm188'
p162
I0
sS'm189'
p163
I1
sS'm182'
p164
I1
sS'm183'
p165
I-1
sS'm180'
p166
I0
sS'm181'
p167
I0
sS'm186'
p168
I-1
sS'm187'
p169
I-1
sS'm184'
p170
I-1
sS'm185'
p171
I0
sS'm612'
p172
I-1
sS'm613'
p173
I1
sS'm610'
p174
I0
sS'm616'
p175
I0
sS'm614'
p176
I1
sS'm615'
p177
I0
sS'm244'
p178
I0
sS'm601'
p179
I1
sS'm600'
p180
I0
sS'm252'
p181
I0
sS'm253'
p182
I1
sS'm93'
p183
I0
sS'm92'
p184
I-1
sS'm328'
p185
I-1
sS'm95'
p186
I1
sS'm242'
p187
I0
sS'm94'
p188
I0
sS'm97'
p189
I1
sS'm96'
p190
I0
sS'm249'
p191
I1
sS'm323'
p192
I1
sS'm559'
p193
I-1
sS'm491'
p194
I0
sS'm278'
p195
I-1
sS'm279'
p196
I1
sS'm274'
p197
I0
sS'm275'
p198
I0
sS'm276'
p199
I-1
sS'm277'
p200
I0
sS'm270'
p201
I-1
sS'm271'
p202
I1
sS'm272'
p203
I0
sS'm273'
p204
I1
sS'm502'
p205
I1
sS'm503'
p206
I0
sS'm551'
p207
I1
sS'm550'
p208
I0
sS'm209'
p209
I0
sS'm208'
p210
I0
sS'm201'
p211
I-1
sS'm200'
p212
I-1
sS'm203'
p213
I1
sS'm202'
p214
I0
sS'm205'
p215
I0
sS'm204'
p216
I1
sS'm207'
p217
I-1
sS'm206'
p218
I1
sS'm388'
p219
I0
sS'm389'
p220
I0
sS'm508'
p221
I1
sS'm380'
p222
I0
sS'm381'
p223
I1
sS'm382'
p224
I0
sS'm383'
p225
I0
sS'm384'
p226
I-1
sS'm385'
p227
I0
sS'm386'
p228
I1
sS'm387'
p229
I0
sS'm28'
p230
I0
sS'm29'
p231
I0
sS'm24'
p232
I0
sS'm25'
p233
I0
sS'm26'
p234
I0
sS'm27'
p235
I0
sS'm20'
p236
I1
sS'm21'
p237
I0
sS'm22'
p238
I0
sS'm23'
p239
I0
sS'm375'
p240
I0
sS'm374'
p241
I0
sS'm377'
p242
I0
sS'm376'
p243
I0
sS'm371'
p244
I-1
sS'm370'
p245
I-1
sS'm373'
p246
I0
sS'm479'
p247
I1
sS'm476'
p248
I0
sS'm477'
p249
I0
sS'm474'
p250
I1
sS'm475'
p251
I0
sS'm472'
p252
I1
sS'm378'
p253
I1
sS'm470'
p254
I0
sS'm471'
p255
I1
sS'm124'
p256
I0
sS'm125'
p257
I1
sS'm126'
p258
I1
sS'm127'
p259
I0
sS'm120'
p260
I-1
sS'm121'
p261
I-1
sS'm122'
p262
I0
sS'm123'
p263
I0
sS'm128'
p264
I0
sS'm129'
p265
I1
sS'm494'
p266
I0
sS'm495'
p267
I0
sS'm496'
p268
I1
sS'm497'
p269
I1
sS'm490'
p270
I0
sS'm558'
p271
I0
sS'm492'
p272
I1
sS'm493'
p273
I0
sS'm555'
p274
I0
sS'm554'
p275
I0
sS'm557'
p276
I1
sS'm556'
p277
I0
sS'm498'
p278
I1
sS'm499'
p279
I1
sS'm553'
p280
I0
sS'm552'
p281
I-1
sS'm151'
p282
I0
sS'm150'
p283
I-1
sS'm153'
p284
I0
sS'm152'
p285
I-1
sS'm155'
p286
I1
sS'm154'
p287
I0
sS'm157'
p288
I1
sS'm156'
p289
I0
sS'm159'
p290
I0
sS'm158'
p291
I0
sS'm372'
p292
I0
sS'm348'
p293
I-1
sS'm349'
p294
I0
sS'm344'
p295
I1
sS'm345'
p296
I0
sS'm346'
p297
I0
sS'm347'
p298
I1
sS'm340'
p299
I0
sS'm341'
p300
I0
sS'm342'
p301
I0
sS'm343'
p302
I1
sS'm379'
p303
I0
sS'm339'
p304
I0
sS'm338'
p305
I0
sS'm232'
p306
I0
sS'm233'
p307
I0
sS'm234'
p308
I0
sS'm235'
p309
I0
sS'm236'
p310
I1
sS'm237'
p311
I1
sS'm331'
p312
I-1
sS'm330'
p313
I-1
sS'm333'
p314
I1
sS'm332'
p315
I0
sS'm335'
p316
I1
sS'm334'
p317
I1
sS'm337'
p318
I0
sS'm336'
p319
I1
sS'm168'
p320
I0
sS'm169'
p321
I-1
sS'm513'
p322
I0
sS'm512'
p323
I0
sS'm515'
p324
I0
sS'm514'
p325
I1
sS'm517'
p326
I1
sS'm516'
p327
I0
sS'm160'
p328
I0
sS'm161'
p329
I-1
sS'm162'
p330
I-1
sS'm163'
p331
I0
sS'm164'
p332
I0
sS'm165'
p333
I0
sS'm166'
p334
I0
sS'm167'
p335
I0
sS'm55'
p336
I1
sS'm54'
p337
I0
sS'm57'
p338
I0
sS'm56'
p339
I0
sS'm51'
p340
I-1
sS'm50'
p341
I-1
sS'm53'
p342
I0
sS'm52'
p343
I0
sS'm358'
p344
I1
sS'm59'
p345
I0
sS'm58'
p346
I-1
sS'm425'
p347
I1
sS'm424'
p348
I0
sS'm427'
p349
I1
sS'm426'
p350
I-1
sS'm421'
p351
I0
sS'm420'
p352
I-1
sS'm423'
p353
I0
sS'm422'
p354
I0
sS'm586'
p355
I0
sS'm587'
p356
I-1
sS'm584'
p357
I1
sS'm585'
p358
I1
sS'm429'
p359
I0
sS'm428'
p360
I-1
sS'm580'
p361
I0
sS'm581'
p362
I0
sS'm564'
p363
I0
sS'm565'
p364
I0
sS'm566'
p365
I-1
sS'm567'
p366
I0
sS'm560'
p367
I0
sS'm608'
p368
I0
sS'm562'
p369
I-1
sS'm563'
p370
I0
sS'm605'
p371
I0
sS'm604'
p372
I0
sS'm607'
p373
I-1
sS'm606'
p374
I0
sS'm568'
p375
I0
sS'm569'
p376
I0
sS'm603'
p377
I0
sS'm602'
p378
I1
sS'm478'
p379
I1
sS'm269'
p380
I0
sS'm268'
p381
I-1
sS'm267'
p382
I1
sS'm266'
p383
I0
sS'm265'
p384
I0
sS'm264'
p385
I1
sS'm263'
p386
I1
sS'm262'
p387
I1
sS'm261'
p388
I1
sS'm260'
p389
I-1
sS'm509'
p390
I0
sS'm541'
p391
I0
sS'm102'
p392
I0
sS'm418'
p393
I-1
sS'm419'
p394
I1
sS'm414'
p395
I1
sS'm415'
p396
I0
sS'm416'
p397
I0
sS'm417'
p398
I-1
sS'm410'
p399
I1
sS'm411'
p400
I1
sS'm412'
p401
I1
sS'm413'
p402
I0
sS'm11'
p403
I1
sS'm10'
p404
I1
sS'm13'
p405
I0
sS'm12'
p406
I0
sS'm15'
p407
I0
sS'm14'
p408
I0
sS'm17'
p409
I0
sS'm16'
p410
I0
sS'm19'
p411
I0
sS'm18'
p412
I0
sS'm391'
p413
I1
sS'm390'
p414
I0
sS'm397'
p415
I0
sS'm396'
p416
I0
sS'm395'
p417
I-1
sS'm394'
p418
I-1
sS'm300'
p419
I1
sS'm301'
p420
I0
sS'm302'
p421
I1
sS'm303'
p422
I0
sS'm304'
p423
I1
sS'm305'
p424
I0
sS'm306'
p425
I0
sS'm307'
p426
I0
sS'm308'
p427
I0
sS'm309'
p428
I0
sS'm463'
p429
I-1
sS'm462'
p430
I1
sS'm465'
p431
I0
sS'm464'
p432
I0
sS'm467'
p433
I0
sS'm466'
p434
I0
sS'm137'
p435
I-1
sS'm136'
p436
I0
sS'm135'
p437
I-1
sS'm134'
p438
I0
sS'm133'
p439
I0
sS'm132'
p440
I0
sS'm131'
p441
I0
sS'm130'
p442
I0
sS'm139'
p443
I0
sS'm138'
p444
I0
sS'm487'
p445
I0
sS'm486'
p446
I0
sS'm485'
p447
I0
sS'm484'
p448
I0
sS'm483'
p449
I0
sS'm482'
p450
I0
sS'm481'
p451
I-1
sS'm480'
p452
I0
sS'm520'
p453
I-1
sS'm521'
p454
I-1
sS'm522'
p455
I0
sS'm523'
p456
I1
sS'm524'
p457
I0
sS'm525'
p458
I-1
sS'm489'
p459
I0
sS'm488'
p460
I0
sS'm106'
p461
I-1
sS'm561'
p462
I0
sS'm296'
p463
I0
sS'm297'
p464
I0
sS'm294'
p465
I0
sS'm295'
p466
I-1
sS'm292'
p467
I0
sS'm293'
p468
I0
sS'm290'
p469
I-1
sS'm291'
p470
I1
sS'm357'
p471
I0
sS'm356'
p472
I0
sS'm355'
p473
I0
sS'm354'
p474
I0
sS'm353'
p475
I0
sS'm352'
p476
I0
sS'm351'
p477
I0
sS'm299'
p478
I0
sS'm223'
p479
I0
sS'm222'
p480
I0
sS'm221'
p481
I1
sS'm220'
p482
I0
sS'm227'
p483
I-1
sS'm226'
p484
I0
sS'm225'
p485
I0
sS'm224'
p486
I-1
sS'm229'
p487
I0
sS'm228'
p488
I0
sS'm179'
p489
I1
sS'm178'
p490
I1
sS'm173'
p491
I-1
sS'm172'
p492
I1
sS'm171'
p493
I0
sS'm170'
p494
I0
sS'm177'
p495
I0
sS'm176'
p496
I0
sS'm175'
p497
I0
sS'm174'
p498
I0
sS'm48'
p499
I0
sS'm49'
p500
I-1
sS'm42'
p501
I0
sS'm43'
p502
I1
sS'm40'
p503
I1
sS'm41'
p504
I1
sS'm46'
p505
I0
sS'm47'
p506
I0
sS'm44'
p507
I0
sS'm45'
p508
I-1
sS'm450'
p509
I0
sS'm451'
p510
I1
sS'm452'
p511
I-1
sS'm398'
p512
I1
sS'm454'
p513
I1
sS'm455'
p514
I-1
sS'm456'
p515
I0
sS'm457'
p516
I0
sS'm458'
p517
I1
sS'm459'
p518
I-1
sS'm593'
p519
I0
sS'm592'
p520
I1
sS'm595'
p521
I-1
sS'm594'
p522
I0
sS'm597'
p523
I0
sS'm596'
p524
I0
sS'm230'
p525
I-1
sS'm577'
p526
I0
sS'm393'
p527
I0
sS'm575'
p528
I0
sS'm574'
p529
I1
sS'm573'
p530
I0
sS'm572'
p531
I0
sS'm571'
p532
I0
sS'm570'
p533
I-1
sS'm579'
p534
I0
sS'm578'
p535
I0
sS'm599'
p536
I0
sS'm598'
p537
I0
sS'm453'
p538
I0
sS'm591'
p539
I0
sS'm590'
p540
I1
sS'm392'
p541
I0
sS'm99'
p542
I1
sS'm98'
p543
I1
sS'm258'
p544
I0
sS'm259'
p545
I1
sS'm91'
p546
I0
sS'm90'
p547
I0
sS'm250'
p548
I-1
sS'm251'
p549
I0
sS'm256'
p550
I0
sS'm257'
p551
I1
sS'm254'
p552
I-1
sS'm255'
p553
I0
sS'm469'
p554
I0
sS'm468'
p555
I1
sS'm350'
p556
I1
sS'm409'
p557
I1
sS'm408'
p558
I1
sS'm407'
p559
I-1
sS'm406'
p560
I0
sS'm405'
p561
I-1
sS'm404'
p562
I0
sS'm403'
p563
I0
sS'm402'
p564
I0
sS'm401'
p565
I0
sS'm400'
p566
I-1
sS'm461'
p567
I0
sS'm460'
p568
I0
sS'm576'
p569
I0
sS'm313'
p570
I0
sS'm312'
p571
I0
sS'm311'
p572
I0
sS'm310'
p573
I0
sS'm317'
p574
I0
sS'm316'
p575
I0
sS'm315'
p576
I0
sS'm314'
p577
I0
sS'm319'
p578
I0
sS'm318'
p579
I0
sS'm609'
p580
I0
sS'm103'
p581
I0
sS'm100'
p582
I0
sS'm101'
p583
I-1
sS'm359'
p584
I0
sS'm107'
p585
I1
sS'm104'
p586
I0
sS'm105'
p587
I1
sS'm108'
p588
I1
sS'm109'
p589
I0
sS'm539'
p590
I0
sS'm538'
p591
I-1
sS'm533'
p592
I1
sS'm532'
p593
I0
sS'm531'
p594
I1
sS'm530'
p595
I-1
sS'm537'
p596
I0
sS'm536'
p597
I0
sS'm535'
p598
I-1
sS'm534'
p599
I0
sS'm73'
p600
I0
sS'm72'
p601
I-1
sS'm71'
p602
I1
sS'm70'
p603
I0
sS'm77'
p604
I0
sS'm76'
p605
I1
sS'm75'
p606
I1
sS'm74'
p607
I0
sS'm79'
p608
I0
sS'm78'
p609
I0
sS'm238'
p610
I0
sS'm239'
p611
I-1
sS'm528'
p612
I-1
sS'm399'
p613
I0
sS'm529'
p614
I1
sS'm298'
p615
I0
s.