(dp0
S'm511'
p1
I1
sS'm510'
p2
I0
sS'm437'
p3
I-1
sS'm329'
p4
I-1
sS'm519'
p5
I0
sS'm526'
p6
I0
sS'm518'
p7
I0
sS'm527'
p8
I0
sS'm281'
p9
I0
sS'm280'
p10
I-1
sS'm368'
p11
I0
sS'm282'
p12
I1
sS'm285'
p13
I0
sS'm284'
p14
I-1
sS'm287'
p15
I0
sS'm286'
p16
I0
sS'm362'
p17
I0
sS'm363'
p18
I0
sS'm360'
p19
I0
sS'm361'
p20
I0
sS'm366'
p21
I0
sS'm367'
p22
I-1
sS'm364'
p23
I0
sS'm365'
p24
I0
sS'm218'
p25
I-1
sS'm219'
p26
I0
sS'm216'
p27
I1
sS'm217'
p28
I1
sS'm214'
p29
I-1
sS'm215'
p30
I0
sS'm212'
p31
I0
sS'm213'
p32
I0
sS'm210'
p33
I0
sS'm211'
p34
I0
sS'm39'
p35
I1
sS'm38'
p36
I-1
sS'm37'
p37
I-1
sS'm36'
p38
I0
sS'm35'
p39
I-1
sS'm34'
p40
I0
sS'm33'
p41
I0
sS'm32'
p42
I-1
sS'm31'
p43
I0
sS'm30'
p44
I-1
sS'm443'
p45
I1
sS'm442'
p46
I1
sS'm441'
p47
I0
sS'm440'
p48
I-1
sS'm447'
p49
I0
sS'm446'
p50
I0
sS'm445'
p51
I0
sS'm444'
p52
I0
sS'm448'
p53
I0
sS'm195'
p54
I0
sS'm194'
p55
I0
sS'm197'
p56
I0
sS'm542'
p57
I1
sS'm543'
p58
I-1
sS'm540'
p59
I0
sS'm196'
p60
I0
sS'm546'
p61
I0
sS'm547'
p62
I1
sS'm544'
p63
I1
sS'm545'
p64
I0
sS'm191'
p65
I1
sS'm548'
p66
I0
sS'm549'
p67
I1
sS'm190'
p68
I0
sS'm193'
p69
I1
sS'm192'
p70
I0
sS'm146'
p71
I0
sS'm147'
p72
I0
sS'm144'
p73
I0
sS'm145'
p74
I1
sS'm142'
p75
I1
sS'm143'
p76
I-1
sS'm140'
p77
I0
sS'm141'
p78
I0
sS'm148'
p79
I0
sS'm149'
p80
I0
sS'm199'
p81
I0
sS'm198'
p82
I-1
sS'm5'
p83
I0
sS'm4'
p84
I0
sS'm7'
p85
I0
sS'm6'
p86
I-1
sS'm1'
p87
I-1
sS'm0'
p88
I0
sS'm3'
p89
I1
sS'm2'
p90
I-1
sS'm9'
p91
I0
sS'm8'
p92
I0
sS'm588'
p93
I0
sS'm88'
p94
I0
sS'm89'
p95
I0
sS'm87'
p96
I0
sS'm84'
p97
I0
sS'm85'
p98
I0
sS'm82'
p99
I0
sS'm83'
p100
I0
sS'm80'
p101
I0
sS'm81'
p102
I0
sS'm231'
p103
I0
sS'm582'
p104
I0
sS'm583'
p105
I0
sS'm438'
p106
I0
sS'm439'
p107
I1
sS'm432'
p108
I-1
sS'm433'
p109
I1
sS'm430'
p110
I0
sS'm431'
p111
I0
sS'm436'
p112
I1
sS'm283'
p113
I0
sS'm434'
p114
I0
sS'm435'
p115
I-1
sS'm369'
p116
I1
sS'm589'
p117
I0
sS'm245'
p118
I-1
sS'm244'
p119
I0
sS'm247'
p120
I0
sS'm246'
p121
I0
sS'm241'
p122
I0
sS'm240'
p123
I1
sS'm243'
p124
I1
sS'm288'
p125
I0
sS'm326'
p126
I0
sS'm327'
p127
I0
sS'm324'
p128
I0
sS'm325'
p129
I0
sS'm322'
p130
I0
sS'm248'
p131
I0
sS'm320'
p132
I1
sS'm321'
p133
I0
sS'm506'
p134
I1
sS'm507'
p135
I1
sS'm504'
p136
I1
sS'm505'
p137
I1
sS'm119'
p138
I-1
sS'm118'
p139
I0
sS'm500'
p140
I0
sS'm501'
p141
I0
sS'm115'
p142
I0
sS'm114'
p143
I0
sS'm117'
p144
I1
sS'm116'
p145
I0
sS'm111'
p146
I1
sS'm110'
p147
I0
sS'm113'
p148
I0
sS'm112'
p149
I0
sS'm60'
p150
I-1
sS'm61'
p151
I0
sS'm62'
p152
I0
sS'm63'
p153
I0
sS'm64'
p154
I0
sS'm65'
p155
I0
sS'm66'
p156
I0
sS'm67'
p157
I0
sS'm68'
p158
I1
sS'm69'
p159
I0
sS'm473'
p160
I0
sS'm188'
p161
I0
sS'm189'
p162
I1
sS'm182'
p163
I1
sS'm183'
p164
I0
sS'm180'
p165
I0
sS'm181'
p166
I0
sS'm186'
p167
I1
sS'm187'
p168
I-1
sS'm184'
p169
I-1
sS'm185'
p170
I0
sS'm612'
p171
I-1
sS'm613'
p172
I1
sS'm610'
p173
I0
sS'm616'
p174
I0
sS'm614'
p175
I1
sS'm615'
p176
I1
sS'm601'
p177
I1
sS'm600'
p178
I0
sS'm252'
p179
I1
sS'm253'
p180
I1
sS'm93'
p181
I0
sS'm92'
p182
I1
sS'm328'
p183
I-1
sS'm95'
p184
I1
sS'm242'
p185
I0
sS'm94'
p186
I0
sS'm97'
p187
I1
sS'm96'
p188
I0
sS'm249'
p189
I1
sS'm323'
p190
I1
sS'm559'
p191
I-1
sS'm491'
p192
I0
sS'm278'
p193
I-1
sS'm279'
p194
I1
sS'm274'
p195
I0
sS'm275'
p196
I0
sS'm276'
p197
I-1
sS'm277'
p198
I0
sS'm270'
p199
I-1
sS'm271'
p200
I1
sS'm272'
p201
I0
sS'm273'
p202
I1
sS'm502'
p203
I1
sS'm503'
p204
I0
sS'm551'
p205
I0
sS'm550'
p206
I0
sS'm209'
p207
I0
sS'm208'
p208
I0
sS'm201'
p209
I-1
sS'm200'
p210
I-1
sS'm203'
p211
I1
sS'm202'
p212
I0
sS'm205'
p213
I0
sS'm204'
p214
I1
sS'm207'
p215
I-1
sS'm206'
p216
I1
sS'm388'
p217
I0
sS'm389'
p218
I0
sS'm508'
p219
I1
sS'm380'
p220
I0
sS'm381'
p221
I1
sS'm382'
p222
I0
sS'm383'
p223
I0
sS'm384'
p224
I-1
sS'm385'
p225
I0
sS'm386'
p226
I1
sS'm387'
p227
I0
sS'm28'
p228
I0
sS'm29'
p229
I0
sS'm24'
p230
I0
sS'm25'
p231
I0
sS'm26'
p232
I0
sS'm27'
p233
I0
sS'm20'
p234
I1
sS'm21'
p235
I0
sS'm22'
p236
I1
sS'm23'
p237
I0
sS'm375'
p238
I0
sS'm374'
p239
I0
sS'm377'
p240
I0
sS'm376'
p241
I0
sS'm371'
p242
I0
sS'm370'
p243
I-1
sS'm373'
p244
I0
sS'm479'
p245
I1
sS'm476'
p246
I0
sS'm477'
p247
I0
sS'm474'
p248
I1
sS'm475'
p249
I0
sS'm472'
p250
I1
sS'm378'
p251
I1
sS'm470'
p252
I0
sS'm471'
p253
I1
sS'm124'
p254
I0
sS'm125'
p255
I1
sS'm126'
p256
I0
sS'm127'
p257
I0
sS'm120'
p258
I-1
sS'm121'
p259
I-1
sS'm122'
p260
I0
sS'm123'
p261
I0
sS'm128'
p262
I0
sS'm129'
p263
I0
sS'm494'
p264
I0
sS'm495'
p265
I0
sS'm496'
p266
I1
sS'm497'
p267
I1
sS'm490'
p268
I0
sS'm558'
p269
I0
sS'm492'
p270
I1
sS'm493'
p271
I0
sS'm555'
p272
I0
sS'm554'
p273
I0
sS'm557'
p274
I1
sS'm556'
p275
I0
sS'm498'
p276
I1
sS'm499'
p277
I1
sS'm553'
p278
I0
sS'm552'
p279
I-1
sS'm151'
p280
I0
sS'm150'
p281
I-1
sS'm153'
p282
I0
sS'm152'
p283
I-1
sS'm155'
p284
I1
sS'm154'
p285
I0
sS'm157'
p286
I0
sS'm156'
p287
I0
sS'm159'
p288
I0
sS'm158'
p289
I0
sS'm372'
p290
I0
sS'm348'
p291
I-1
sS'm349'
p292
I0
sS'm344'
p293
I0
sS'm345'
p294
I0
sS'm346'
p295
I0
sS'm347'
p296
I1
sS'm340'
p297
I0
sS'm341'
p298
I0
sS'm342'
p299
I0
sS'm343'
p300
I0
sS'm379'
p301
I0
sS'm339'
p302
I0
sS'm338'
p303
I0
sS'm232'
p304
I0
sS'm233'
p305
I0
sS'm234'
p306
I0
sS'm235'
p307
I0
sS'm236'
p308
I1
sS'm237'
p309
I0
sS'm331'
p310
I-1
sS'm330'
p311
I-1
sS'm333'
p312
I0
sS'm332'
p313
I0
sS'm335'
p314
I0
sS'm334'
p315
I1
sS'm337'
p316
I0
sS'm336'
p317
I1
sS'm168'
p318
I0
sS'm169'
p319
I-1
sS'm513'
p320
I0
sS'm512'
p321
I0
sS'm515'
p322
I0
sS'm514'
p323
I1
sS'm517'
p324
I0
sS'm516'
p325
I0
sS'm160'
p326
I0
sS'm161'
p327
I0
sS'm162'
p328
I-1
sS'm163'
p329
I0
sS'm164'
p330
I0
sS'm165'
p331
I0
sS'm166'
p332
I0
sS'm167'
p333
I0
sS'm55'
p334
I1
sS'm54'
p335
I0
sS'm57'
p336
I0
sS'm56'
p337
I0
sS'm51'
p338
I-1
sS'm50'
p339
I-1
sS'm53'
p340
I0
sS'm52'
p341
I0
sS'm358'
p342
I0
sS'm59'
p343
I0
sS'm58'
p344
I-1
sS'm425'
p345
I1
sS'm424'
p346
I0
sS'm427'
p347
I0
sS'm426'
p348
I-1
sS'm421'
p349
I0
sS'm420'
p350
I1
sS'm423'
p351
I0
sS'm422'
p352
I0
sS'm586'
p353
I0
sS'm587'
p354
I0
sS'm584'
p355
I1
sS'm585'
p356
I0
sS'm429'
p357
I0
sS'm428'
p358
I-1
sS'm580'
p359
I0
sS'm581'
p360
I0
sS'm564'
p361
I0
sS'm565'
p362
I-1
sS'm566'
p363
I-1
sS'm567'
p364
I0
sS'm560'
p365
I-1
sS'm608'
p366
I0
sS'm562'
p367
I-1
sS'm563'
p368
I0
sS'm605'
p369
I0
sS'm604'
p370
I0
sS'm607'
p371
I-1
sS'm606'
p372
I0
sS'm568'
p373
I0
sS'm569'
p374
I0
sS'm603'
p375
I0
sS'm602'
p376
I1
sS'm478'
p377
I1
sS'm269'
p378
I0
sS'm268'
p379
I-1
sS'm267'
p380
I1
sS'm266'
p381
I0
sS'm265'
p382
I0
sS'm264'
p383
I1
sS'm263'
p384
I1
sS'm262'
p385
I1
sS'm261'
p386
I1
sS'm260'
p387
I-1
sS'm509'
p388
I0
sS'm541'
p389
I0
sS'm102'
p390
I0
sS'm418'
p391
I-1
sS'm419'
p392
I1
sS'm414'
p393
I0
sS'm415'
p394
I0
sS'm416'
p395
I0
sS'm417'
p396
I-1
sS'm410'
p397
I1
sS'm411'
p398
I1
sS'm412'
p399
I1
sS'm413'
p400
I0
sS'm11'
p401
I1
sS'm10'
p402
I0
sS'm13'
p403
I1
sS'm12'
p404
I0
sS'm15'
p405
I0
sS'm14'
p406
I0
sS'm17'
p407
I0
sS'm16'
p408
I0
sS'm19'
p409
I0
sS'm18'
p410
I0
sS'm391'
p411
I0
sS'm390'
p412
I0
sS'm397'
p413
I0
sS'm396'
p414
I0
sS'm395'
p415
I-1
sS'm394'
p416
I-1
sS'm300'
p417
I0
sS'm301'
p418
I1
sS'm302'
p419
I1
sS'm303'
p420
I0
sS'm304'
p421
I0
sS'm305'
p422
I0
sS'm306'
p423
I0
sS'm307'
p424
I1
sS'm308'
p425
I0
sS'm309'
p426
I0
sS'm463'
p427
I1
sS'm462'
p428
I1
sS'm465'
p429
I0
sS'm464'
p430
I0
sS'm467'
p431
I0
sS'm466'
p432
I0
sS'm137'
p433
I-1
sS'm136'
p434
I0
sS'm135'
p435
I0
sS'm134'
p436
I0
sS'm133'
p437
I0
sS'm132'
p438
I0
sS'm131'
p439
I0
sS'm130'
p440
I0
sS'm139'
p441
I0
sS'm138'
p442
I0
sS'm487'
p443
I-1
sS'm486'
p444
I0
sS'm485'
p445
I0
sS'm484'
p446
I0
sS'm483'
p447
I0
sS'm482'
p448
I0
sS'm481'
p449
I-1
sS'm480'
p450
I0
sS'm520'
p451
I-1
sS'm521'
p452
I-1
sS'm522'
p453
I0
sS'm523'
p454
I1
sS'm524'
p455
I0
sS'm525'
p456
I1
sS'm489'
p457
I0
sS'm488'
p458
I0
sS'm106'
p459
I0
sS'm561'
p460
I0
sS'm296'
p461
I0
sS'm297'
p462
I0
sS'm294'
p463
I0
sS'm295'
p464
I-1
sS'm292'
p465
I0
sS'm293'
p466
I0
sS'm290'
p467
I-1
sS'm291'
p468
I0
sS'm357'
p469
I0
sS'm356'
p470
I0
sS'm355'
p471
I0
sS'm354'
p472
I0
sS'm353'
p473
I0
sS'm352'
p474
I0
sS'm351'
p475
I0
sS'm299'
p476
I0
sS'm223'
p477
I0
sS'm222'
p478
I0
sS'm221'
p479
I1
sS'm220'
p480
I0
sS'm227'
p481
I0
sS'm226'
p482
I0
sS'm225'
p483
I0
sS'm224'
p484
I0
sS'm229'
p485
I0
sS'm228'
p486
I0
sS'm179'
p487
I1
sS'm178'
p488
I1
sS'm173'
p489
I-1
sS'm172'
p490
I1
sS'm171'
p491
I0
sS'm170'
p492
I1
sS'm177'
p493
I0
sS'm176'
p494
I0
sS'm175'
p495
I0
sS'm174'
p496
I0
sS'm48'
p497
I0
sS'm49'
p498
I-1
sS'm42'
p499
I0
sS'm43'
p500
I1
sS'm40'
p501
I0
sS'm41'
p502
I1
sS'm46'
p503
I0
sS'm47'
p504
I0
sS'm44'
p505
I1
sS'm45'
p506
I-1
sS'm450'
p507
I0
sS'm451'
p508
I1
sS'm452'
p509
I0
sS'm398'
p510
I0
sS'm454'
p511
I0
sS'm455'
p512
I0
sS'm456'
p513
I0
sS'm457'
p514
I0
sS'm458'
p515
I1
sS'm459'
p516
I0
sS'm593'
p517
I0
sS'm592'
p518
I1
sS'm595'
p519
I-1
sS'm594'
p520
I0
sS'm597'
p521
I0
sS'm596'
p522
I0
sS'm230'
p523
I-1
sS'm577'
p524
I0
sS'm393'
p525
I0
sS'm575'
p526
I0
sS'm574'
p527
I1
sS'm573'
p528
I0
sS'm572'
p529
I0
sS'm571'
p530
I0
sS'm570'
p531
I-1
sS'm579'
p532
I0
sS'm578'
p533
I0
sS'm599'
p534
I0
sS'm598'
p535
I0
sS'm453'
p536
I0
sS'm591'
p537
I0
sS'm590'
p538
I0
sS'm392'
p539
I0
sS'm99'
p540
I1
sS'm98'
p541
I1
sS'm258'
p542
I0
sS'm259'
p543
I1
sS'm91'
p544
I0
sS'm90'
p545
I0
sS'm250'
p546
I-1
sS'm251'
p547
I0
sS'm256'
p548
I0
sS'm257'
p549
I1
sS'm254'
p550
I0
sS'm255'
p551
I0
sS'm469'
p552
I0
sS'm468'
p553
I0
sS'm350'
p554
I1
sS'm409'
p555
I1
sS'm408'
p556
I1
sS'm407'
p557
I0
sS'm406'
p558
I0
sS'm405'
p559
I0
sS'm404'
p560
I0
sS'm403'
p561
I0
sS'm402'
p562
I0
sS'm401'
p563
I0
sS'm400'
p564
I-1
sS'm461'
p565
I0
sS'm460'
p566
I0
sS'm576'
p567
I0
sS'm313'
p568
I0
sS'm312'
p569
I1
sS'm311'
p570
I0
sS'm310'
p571
I0
sS'm317'
p572
I1
sS'm316'
p573
I0
sS'm315'
p574
I0
sS'm314'
p575
I0
sS'm319'
p576
I0
sS'm318'
p577
I0
sS'm609'
p578
I0
sS'm103'
p579
I0
sS'm100'
p580
I0
sS'm101'
p581
I-1
sS'm359'
p582
I0
sS'm107'
p583
I0
sS'm104'
p584
I0
sS'm105'
p585
I1
sS'm108'
p586
I1
sS'm109'
p587
I1
sS'm539'
p588
I0
sS'm538'
p589
I-1
sS'm533'
p590
I1
sS'm532'
p591
I0
sS'm531'
p592
I1
sS'm530'
p593
I-1
sS'm537'
p594
I0
sS'm536'
p595
I1
sS'm535'
p596
I0
sS'm534'
p597
I0
sS'm73'
p598
I0
sS'm72'
p599
I-1
sS'm71'
p600
I1
sS'm70'
p601
I0
sS'm77'
p602
I0
sS'm76'
p603
I1
sS'm75'
p604
I1
sS'm74'
p605
I0
sS'm79'
p606
I0
sS'm78'
p607
I0
sS'm238'
p608
I0
sS'm239'
p609
I0
sS'm528'
p610
I-1
sS'm399'
p611
I0
sS'm529'
p612
I1
sS'm298'
p613
I0
s.